
bin.soft:     file format elf32-littlemips


Disassembly of section seg_kcode:

80000000 <tab_causes>:
80000000:	800002d4 	lb	zero,724(zero)
80000004:	80000468 	lb	zero,1128(zero)
80000008:	80000468 	lb	zero,1128(zero)
8000000c:	80000468 	lb	zero,1128(zero)
80000010:	80000468 	lb	zero,1128(zero)
80000014:	80000468 	lb	zero,1128(zero)
80000018:	80000468 	lb	zero,1128(zero)
8000001c:	80000468 	lb	zero,1128(zero)
80000020:	8000019c 	lb	zero,412(zero)
80000024:	80000468 	lb	zero,1128(zero)
80000028:	80000468 	lb	zero,1128(zero)
8000002c:	80000468 	lb	zero,1128(zero)
80000030:	80000468 	lb	zero,1128(zero)
80000034:	80000468 	lb	zero,1128(zero)
80000038:	80000468 	lb	zero,1128(zero)
8000003c:	80000468 	lb	zero,1128(zero)
	...

80000180 <_giet>:
80000180:	401b6800 	mfc0	k1,c0_cause
80000184:	3c1a8000 	lui	k0,0x8000
80000188:	337b003c 	andi	k1,k1,0x3c
8000018c:	035bd021 	addu	k0,k0,k1
80000190:	8f5a0000 	lw	k0,0(k0)
80000194:	03400008 	jr	k0
80000198:	00000000 	nop

8000019c <_sys_handler>:
8000019c:	27bdffe8 	addiu	sp,sp,-24
800001a0:	401a6000 	mfc0	k0,c0_status
800001a4:	afba0010 	sw	k0,16(sp)
800001a8:	401b7000 	mfc0	k1,c0_epc
800001ac:	277b0004 	addiu	k1,k1,4
800001b0:	afbb0014 	sw	k1,20(sp)
800001b4:	305a001f 	andi	k0,v0,0x1f
800001b8:	001ad080 	sll	k0,k0,0x2
800001bc:	3c1b8000 	lui	k1,0x8000
800001c0:	277b0254 	addiu	k1,k1,596
800001c4:	037ad821 	addu	k1,k1,k0
800001c8:	8f630000 	lw	v1,0(k1)
800001cc:	241bffed 	li	k1,-19
800001d0:	401a6000 	mfc0	k0,c0_status
800001d4:	035bd024 	and	k0,k0,k1
800001d8:	0060f809 	jalr	v1
800001dc:	409a6000 	mtc0	k0,c0_status
800001e0:	40806000 	mtc0	zero,c0_status
800001e4:	8fba0010 	lw	k0,16(sp)
800001e8:	409a6000 	mtc0	k0,c0_status
800001ec:	8fba0014 	lw	k0,20(sp)
800001f0:	409a7000 	mtc0	k0,c0_epc
800001f4:	27bd0018 	addiu	sp,sp,24
800001f8:	42000018 	eret

800001fc <_sys_ukn>:
800001fc:	3c048000 	lui	a0,0x8000
80000200:	2484056f 	addiu	a0,a0,1391
80000204:	0c000374 	jal	80000dd0 <_tty_write>
80000208:	24050024 	li	a1,36
8000020c:	3c048000 	lui	a0,0x8000
80000210:	24840541 	addiu	a0,a0,1345
80000214:	0c000374 	jal	80000dd0 <_tty_write>
80000218:	24050008 	li	a1,8
8000021c:	40047000 	mfc0	a0,c0_epc
80000220:	3c058000 	lui	a1,0x8000
80000224:	24a50248 	addiu	a1,a1,584
80000228:	0c0002f7 	jal	80000bdc <_itoa_hex>
8000022c:	24a50002 	addiu	a1,a1,2
80000230:	3c048000 	lui	a0,0x8000
80000234:	24840248 	addiu	a0,a0,584
80000238:	0c000374 	jal	80000dd0 <_tty_write>
8000023c:	2405000a 	li	a1,10
80000240:	08000460 	j	80001180 <_exit>
80000244:	00000000 	nop

80000248 <itoa_buffer>:
80000248:	30307830 	andi	s0,at,0x7830
8000024c:	30303030 	andi	s0,at,0x3030
80000250:	00003030 	tge	zero,zero,0xc0

80000254 <tab_syscalls>:
80000254:	800009e4 	lb	zero,2532(zero)
80000258:	80000a00 	lb	zero,2560(zero)
8000025c:	80000dd0 	lb	zero,3536(zero)
80000260:	80001058 	lb	zero,4184(zero)
80000264:	80000cb4 	lb	zero,3252(zero)
80000268:	80000d40 	lb	zero,3392(zero)
8000026c:	80001374 	lb	zero,4980(zero)
80000270:	800013d0 	lb	zero,5072(zero)
80000274:	80001240 	lb	zero,4672(zero)
80000278:	800012d8 	lb	zero,4824(zero)
8000027c:	80000f18 	lb	zero,3864(zero)
80000280:	800001fc 	lb	zero,508(zero)
80000284:	80001430 	lb	zero,5168(zero)
80000288:	80001494 	lb	zero,5268(zero)
8000028c:	80001180 	lb	zero,4480(zero)
80000290:	800001fc 	lb	zero,508(zero)
80000294:	8000180c 	lb	zero,6156(zero)
80000298:	800018cc 	lb	zero,6348(zero)
8000029c:	80001994 	lb	zero,6548(zero)
800002a0:	80001aa8 	lb	zero,6824(zero)
800002a4:	80001bc8 	lb	zero,7112(zero)
800002a8:	80001544 	lb	zero,5444(zero)
800002ac:	80001670 	lb	zero,5744(zero)
800002b0:	800017b4 	lb	zero,6068(zero)
800002b4:	800001fc 	lb	zero,508(zero)
800002b8:	800001fc 	lb	zero,508(zero)
800002bc:	800001fc 	lb	zero,508(zero)
800002c0:	800001fc 	lb	zero,508(zero)
800002c4:	800001fc 	lb	zero,508(zero)
800002c8:	800001fc 	lb	zero,508(zero)
800002cc:	800001fc 	lb	zero,508(zero)
800002d0:	800001fc 	lb	zero,508(zero)

800002d4 <_int_handler>:
800002d4:	27bdffa4 	addiu	sp,sp,-92
800002d8:	afa10010 	sw	at,16(sp)
800002dc:	afa20014 	sw	v0,20(sp)
800002e0:	afa30018 	sw	v1,24(sp)
800002e4:	afa4001c 	sw	a0,28(sp)
800002e8:	afa50020 	sw	a1,32(sp)
800002ec:	afa60024 	sw	a2,36(sp)
800002f0:	afa70028 	sw	a3,40(sp)
800002f4:	afa8002c 	sw	t0,44(sp)
800002f8:	afa90030 	sw	t1,48(sp)
800002fc:	afaa0034 	sw	t2,52(sp)
80000300:	afab0038 	sw	t3,56(sp)
80000304:	afac003c 	sw	t4,60(sp)
80000308:	afad0040 	sw	t5,64(sp)
8000030c:	afae0044 	sw	t6,68(sp)
80000310:	afaf0048 	sw	t7,72(sp)
80000314:	afb8004c 	sw	t8,76(sp)
80000318:	afb90050 	sw	t9,80(sp)
8000031c:	afbf0054 	sw	ra,84(sp)
80000320:	401b7000 	mfc0	k1,c0_epc
80000324:	afbb0058 	sw	k1,88(sp)
80000328:	401b7801 	mfc0	k1,$15,1
8000032c:	337b0007 	andi	k1,k1,0x7
80000330:	001bdf00 	sll	k1,k1,0x1c
80000334:	3c1a8600 	lui	k0,0x8600
80000338:	275a0000 	addiu	k0,k0,0
8000033c:	035bd020 	add	k0,k0,k1
80000340:	8f5a0010 	lw	k0,16(k0)
80000344:	001ad942 	srl	k1,k0,0x5
80000348:	17600008 	bnez	k1,8000036c <restore>
8000034c:	00000000 	nop
80000350:	001ad080 	sll	k0,k0,0x2
80000354:	3c1b8000 	lui	k1,0x8000
80000358:	277b03e8 	addiu	k1,k1,1000
8000035c:	035bd021 	addu	k0,k0,k1
80000360:	8f5a0000 	lw	k0,0(k0)
80000364:	0340f809 	jalr	k0
80000368:	00000000 	nop

8000036c <restore>:
8000036c:	8fa10010 	lw	at,16(sp)
80000370:	8fa20014 	lw	v0,20(sp)
80000374:	8fa30018 	lw	v1,24(sp)
80000378:	8fa4001c 	lw	a0,28(sp)
8000037c:	8fa50020 	lw	a1,32(sp)
80000380:	8fa60024 	lw	a2,36(sp)
80000384:	8fa70028 	lw	a3,40(sp)
80000388:	8fa8002c 	lw	t0,44(sp)
8000038c:	8fa90030 	lw	t1,48(sp)
80000390:	8faa0034 	lw	t2,52(sp)
80000394:	8fab0038 	lw	t3,56(sp)
80000398:	8fac003c 	lw	t4,60(sp)
8000039c:	8fad0040 	lw	t5,64(sp)
800003a0:	8fae0044 	lw	t6,68(sp)
800003a4:	8faf0048 	lw	t7,72(sp)
800003a8:	8fb8004c 	lw	t8,76(sp)
800003ac:	8fb90050 	lw	t9,80(sp)
800003b0:	8fbf0054 	lw	ra,84(sp)
800003b4:	8fbb0058 	lw	k1,88(sp)
800003b8:	27bd005c 	addiu	sp,sp,92
800003bc:	409b7000 	mtc0	k1,c0_epc
800003c0:	42000018 	eret

800003c4 <isr_default>:
800003c4:	27bdffec 	addiu	sp,sp,-20
800003c8:	afbf0010 	sw	ra,16(sp)
800003cc:	3c048000 	lui	a0,0x8000
800003d0:	2484054a 	addiu	a0,a0,1354
800003d4:	0c000374 	jal	80000dd0 <_tty_write>
800003d8:	20050024 	addi	a1,zero,36
800003dc:	8fbf0010 	lw	ra,16(sp)
800003e0:	03e00008 	jr	ra
800003e4:	27bd0014 	addiu	sp,sp,20

800003e8 <_interrupt_vector>:
800003e8:	800003c4 	lb	zero,964(zero)
800003ec:	800003c4 	lb	zero,964(zero)
800003f0:	800003c4 	lb	zero,964(zero)
800003f4:	800003c4 	lb	zero,964(zero)
800003f8:	800003c4 	lb	zero,964(zero)
800003fc:	800003c4 	lb	zero,964(zero)
80000400:	800003c4 	lb	zero,964(zero)
80000404:	800003c4 	lb	zero,964(zero)
80000408:	800003c4 	lb	zero,964(zero)
8000040c:	800003c4 	lb	zero,964(zero)
80000410:	800003c4 	lb	zero,964(zero)
80000414:	800003c4 	lb	zero,964(zero)
80000418:	800003c4 	lb	zero,964(zero)
8000041c:	800003c4 	lb	zero,964(zero)
80000420:	800003c4 	lb	zero,964(zero)
80000424:	800003c4 	lb	zero,964(zero)
80000428:	800003c4 	lb	zero,964(zero)
8000042c:	800003c4 	lb	zero,964(zero)
80000430:	800003c4 	lb	zero,964(zero)
80000434:	800003c4 	lb	zero,964(zero)
80000438:	800003c4 	lb	zero,964(zero)
8000043c:	800003c4 	lb	zero,964(zero)
80000440:	800003c4 	lb	zero,964(zero)
80000444:	800003c4 	lb	zero,964(zero)
80000448:	800003c4 	lb	zero,964(zero)
8000044c:	800003c4 	lb	zero,964(zero)
80000450:	800003c4 	lb	zero,964(zero)
80000454:	800003c4 	lb	zero,964(zero)
80000458:	800003c4 	lb	zero,964(zero)
8000045c:	800003c4 	lb	zero,964(zero)
80000460:	800003c4 	lb	zero,964(zero)
80000464:	800003c4 	lb	zero,964(zero)

80000468 <_cause_adel>:
80000468:	401a6800 	mfc0	k0,c0_cause
8000046c:	335a003c 	andi	k0,k0,0x3c
80000470:	3c1b8000 	lui	k1,0x8000
80000474:	277b04f8 	addiu	k1,k1,1272
80000478:	035bd821 	addu	k1,k0,k1
8000047c:	8f640000 	lw	a0,0(k1)
80000480:	0c000374 	jal	80000dd0 <_tty_write>
80000484:	24050024 	li	a1,36
80000488:	3c048000 	lui	a0,0x8000
8000048c:	24840541 	addiu	a0,a0,1345
80000490:	0c000374 	jal	80000dd0 <_tty_write>
80000494:	24050008 	li	a1,8
80000498:	40047000 	mfc0	a0,c0_epc
8000049c:	3c058000 	lui	a1,0x8000
800004a0:	24a50248 	addiu	a1,a1,584
800004a4:	0c0002f7 	jal	80000bdc <_itoa_hex>
800004a8:	24a50002 	addiu	a1,a1,2
800004ac:	3c048000 	lui	a0,0x8000
800004b0:	24840248 	addiu	a0,a0,584
800004b4:	0c000374 	jal	80000dd0 <_tty_write>
800004b8:	2405000a 	li	a1,10
800004bc:	3c048000 	lui	a0,0x8000
800004c0:	24840538 	addiu	a0,a0,1336
800004c4:	0c000374 	jal	80000dd0 <_tty_write>
800004c8:	24050008 	li	a1,8
800004cc:	40044000 	mfc0	a0,c0_badvaddr
800004d0:	3c058000 	lui	a1,0x8000
800004d4:	24a50248 	addiu	a1,a1,584
800004d8:	0c0002f7 	jal	80000bdc <_itoa_hex>
800004dc:	24a50002 	addiu	a1,a1,2
800004e0:	3c048000 	lui	a0,0x8000
800004e4:	24840248 	addiu	a0,a0,584
800004e8:	0c000374 	jal	80000dd0 <_tty_write>
800004ec:	2405000a 	li	a1,10
800004f0:	08000460 	j	80001180 <_exit>
800004f4:	00000000 	nop

800004f8 <mess_causes>:
800004f8:	80000594 	lb	zero,1428(zero)
800004fc:	80000594 	lb	zero,1428(zero)
80000500:	80000594 	lb	zero,1428(zero)
80000504:	80000594 	lb	zero,1428(zero)
80000508:	800005b9 	lb	zero,1465(zero)
8000050c:	800005de 	lb	zero,1502(zero)
80000510:	80000603 	lb	zero,1539(zero)
80000514:	80000628 	lb	zero,1576(zero)
80000518:	80000594 	lb	zero,1428(zero)
8000051c:	8000064d 	lb	zero,1613(zero)
80000520:	80000672 	lb	zero,1650(zero)
80000524:	800006bc 	lb	zero,1724(zero)
80000528:	80000697 	lb	zero,1687(zero)
8000052c:	80000594 	lb	zero,1428(zero)
80000530:	80000594 	lb	zero,1428(zero)
80000534:	80000594 	lb	zero,1428(zero)

80000538 <msg_bar>:
80000538:	5241420a 	beql	s2,at,80010d64 <_isr_switch+0xefd8>
8000053c:	203d2020 	addi	sp,at,8224
	...

80000541 <msg_epc>:
80000541:	450a      	addiu	s0,a1,-6
80000543:	4350      	daddiu	v0,v1,0
80000545:	2020      	beqz	s0,80000587 <msg_uknsyscall+0x18>
80000547:	203d      	beqz	s0,800005c3 <msg_adel+0xa>
	...

8000054a <msg_default>:
8000054a:	20200a0a 	addi	zero,at,2570
8000054e:	20212121 	addi	at,at,8481
80000552:	61666544 	0x61666544
80000556:	20746c75 	addi	s4,v1,27765
8000055a:	20525349 	addi	s2,v0,21321
8000055e:	21212120 	addi	at,t1,8480
80000562:	20202020 	addi	zero,at,8224
80000566:	20202020 	addi	zero,at,8224
8000056a:	0a202020 	j	88808080 <seg_timer_base+0x808080>
8000056e:	200a0a00 	addi	t2,zero,2560

8000056f <msg_uknsyscall>:
8000056f:	0a0a      	la	v0,80000594 <msg_ukncause>
80000571:	2020      	beqz	s0,800005b3 <msg_ukncause+0x1f>
80000573:	2121      	beqz	s1,800005b7 <msg_ukncause+0x23>
80000575:	2021      	beqz	s0,800005b9 <msg_adel>
80000577:	6e55      	li	a2,85
80000579:	6564      	move	v1,a0
8000057b:	6966      	li	s1,102
8000057d:	656e      	move	t3,a2
8000057f:	2064      	beqz	s0,80000649 <msg_dbe+0x21>
80000581:	7953      	sd	v0,152(s1)
80000583:	7473      	cmpi	a0,115
80000585:	6d65      	li	a1,101
80000587:	4320      	addiu	s1,v1,0
80000589:	6c61      	li	a0,97
8000058b:	206c      	beqz	s0,80000665 <msg_bp+0x18>
8000058d:	2121      	beqz	s1,800005d1 <msg_adel+0x18>
8000058f:	2021      	beqz	s0,800005d3 <msg_adel+0x1a>
80000591:	0a20      	la	v0,80000610 <msg_ibe+0xd>
	...

80000594 <msg_ukncause>:
80000594:	78450a0a 	0x78450a0a
80000598:	74706563 	jalx	81c1958c <_isr_switch+0x1c17800>
8000059c:	206e6f69 	addi	t6,v1,28521
800005a0:	7473203a 	jalx	81cc80e8 <_isr_switch+0x1cc635c>
800005a4:	676e6172 	0x676e6172
800005a8:	6e752065 	0x6e752065
800005ac:	776f6e6b 	jalx	8dbdb9ac <seg_gcd_base+0xbdb9ac>
800005b0:	6163206e 	0x6163206e
800005b4:	0a657375 	j	8995cdd4 <seg_ioc_base+0x95cdd4>
800005b8:	450a0a00 	bc1fl	$fcc2,80002dbc <_isr_switch+0x1030>

800005b9 <msg_adel>:
800005b9:	0a0a      	la	v0,800005e0 <msg_ades+0x2>
800005bb:	7845      	sd	v0,40(s0)
800005bd:	6563      	move	v1,v1
800005bf:	7470      	cmpi	a0,112
800005c1:	6f69      	li	a3,105
800005c3:	206e      	beqz	s0,800006a1 <msg_ovf+0xa>
800005c5:	203a      	beqz	s0,8000063b <msg_dbe+0x13>
800005c7:	6c69      	li	a0,105
800005c9:	656c      	move	t3,a0
800005cb:	6167      	btnez	8000069b <msg_ovf+0x4>
800005cd:	206c      	beqz	s0,800006a7 <msg_ovf+0x10>
800005cf:	6572      	move	s3,v0
800005d1:	6461      	restore	8,ra,s0
800005d3:	6120      	btnez	80000615 <msg_ibe+0x12>
800005d5:	6464      	restore	32,ra,s0
800005d7:	6572      	move	s3,v0
800005d9:	7373      	cmpi	v1,115
800005db:	0a20      	la	v0,80000658 <msg_bp+0xb>
	...

800005de <msg_ades>:
800005de:	78450a0a 	0x78450a0a
800005e2:	74706563 	jalx	81c1958c <_isr_switch+0x1c17800>
800005e6:	206e6f69 	addi	t6,v1,28521
800005ea:	6c69203a 	0x6c69203a
800005ee:	6167656c 	0x6167656c
800005f2:	7277206c 	0x7277206c
800005f6:	20657469 	addi	a1,v1,29801
800005fa:	72646461 	0x72646461
800005fe:	0a737365 	j	89cdcd94 <seg_ioc_base+0xcdcd94>
80000602:	450a0a00 	bc1fl	$fcc2,80002e06 <_isr_switch+0x107a>

80000603 <msg_ibe>:
80000603:	0a0a      	la	v0,80000628 <msg_dbe>
80000605:	7845      	sd	v0,40(s0)
80000607:	6563      	move	v1,v1
80000609:	7470      	cmpi	a0,112
8000060b:	6f69      	li	a3,105
8000060d:	206e      	beqz	s0,800006eb <_ctx_switch+0x7>
8000060f:	203a      	beqz	s0,80000685 <msg_ri+0x13>
80000611:	6e69      	li	a2,105
80000613:	7473      	cmpi	a0,115
80000615:	6220      	sw	ra,128(sp)
80000617:	7375      	cmpi	v1,117
80000619:	6520      	move	at,s0
8000061b:	7272      	cmpi	v0,114
8000061d:	726f      	cmpi	v0,111
8000061f:	2020      	beqz	s0,80000661 <msg_bp+0x14>
80000621:	2020      	beqz	s0,80000663 <msg_bp+0x16>
80000623:	2020      	beqz	s0,80000665 <msg_bp+0x18>
80000625:	0a20      	la	v0,800006a4 <msg_ovf+0xd>
	...

80000628 <msg_dbe>:
80000628:	78450a0a 	0x78450a0a
8000062c:	74706563 	jalx	81c1958c <_isr_switch+0x1c17800>
80000630:	206e6f69 	addi	t6,v1,28521
80000634:	6164203a 	0x6164203a
80000638:	62206174 	0x62206174
8000063c:	65207375 	0x65207375
80000640:	726f7272 	0x726f7272
80000644:	20202020 	addi	zero,at,8224
80000648:	0a202020 	j	88808080 <seg_timer_base+0x808080>
8000064c:	450a0a00 	bc1fl	$fcc2,80002e50 <_isr_switch+0x10c4>

8000064d <msg_bp>:
8000064d:	0a0a      	la	v0,80000674 <msg_ri+0x2>
8000064f:	7845      	sd	v0,40(s0)
80000651:	6563      	move	v1,v1
80000653:	7470      	cmpi	a0,112
80000655:	6f69      	li	a3,105
80000657:	206e      	beqz	s0,80000735 <do_it+0x21>
80000659:	203a      	beqz	s0,800006cf <msg_cpu+0x13>
8000065b:	7262      	cmpi	v0,98
8000065d:	6165      	btnez	80000729 <do_it+0x15>
8000065f:	706b      	cmpi	s0,107
80000661:	696f      	li	s1,111
80000663:	746e      	cmpi	a0,110
80000665:	2020      	beqz	s0,800006a7 <msg_ovf+0x10>
80000667:	2020      	beqz	s0,800006a9 <msg_ovf+0x12>
80000669:	2020      	beqz	s0,800006ab <msg_ovf+0x14>
8000066b:	2020      	beqz	s0,800006ad <msg_ovf+0x16>
8000066d:	2020      	beqz	s0,800006af <msg_ovf+0x18>
8000066f:	0a20      	la	v0,800006ec <_ctx_switch+0x8>
	...

80000672 <msg_ri>:
80000672:	78450a0a 	0x78450a0a
80000676:	74706563 	jalx	81c1958c <_isr_switch+0x1c17800>
8000067a:	206e6f69 	addi	t6,v1,28521
8000067e:	6572203a 	0x6572203a
80000682:	76726573 	jalx	89c995cc <seg_ioc_base+0xc995cc>
80000686:	69206465 	0x69206465
8000068a:	7274736e 	0x7274736e
8000068e:	69746375 	0x69746375
80000692:	0a206e6f 	j	8881b9bc <seg_timer_base+0x81b9bc>
80000696:	450a0a00 	bc1fl	$fcc2,80002e9a <_isr_switch+0x110e>

80000697 <msg_ovf>:
80000697:	0a0a      	la	v0,800006bc <msg_cpu>
80000699:	7845      	sd	v0,40(s0)
8000069b:	6563      	move	v1,v1
8000069d:	7470      	cmpi	a0,112
8000069f:	6f69      	li	a3,105
800006a1:	206e      	beqz	s0,8000077f <do_it+0x6b>
800006a3:	203a      	beqz	s0,80000719 <do_it+0x5>
800006a5:	7261      	cmpi	v0,97
800006a7:	7469      	cmpi	a0,105
800006a9:	6d68      	li	a1,104
800006ab:	7465      	cmpi	a0,101
800006ad:	6369      	addiu	sp,840
800006af:	6f20      	li	a3,32
800006b1:	6576      	move	s3,a2
800006b3:	6672      	0x6672
800006b5:	6f6c      	li	a3,108
800006b7:	2077      	beqz	s0,800007a7 <do_it+0x93>
800006b9:	0a20      	la	v0,80000738 <do_it+0x24>
	...

800006bc <msg_cpu>:
800006bc:	78450a0a 	0x78450a0a
800006c0:	74706563 	jalx	81c1958c <_isr_switch+0x1c17800>
800006c4:	206e6f69 	addi	t6,v1,28521
800006c8:	6c69203a 	0x6c69203a
800006cc:	6167656c 	0x6167656c
800006d0:	6f63206c 	0x6f63206c
800006d4:	636f7270 	0x636f7270
800006d8:	63636120 	0x63636120
800006dc:	0a737365 	j	89cdcd94 <seg_ioc_base+0xcdcd94>
800006e0:	00000000 	nop

800006e4 <_ctx_switch>:
800006e4:	401a7801 	mfc0	k0,$15,1
800006e8:	335a0007 	andi	k0,k0,0x7
800006ec:	001ad080 	sll	k0,k0,0x2
800006f0:	3c1b9100 	lui	k1,0x9100
800006f4:	277b2020 	addiu	k1,k1,8224
800006f8:	037ad821 	addu	k1,k1,k0
800006fc:	8f7b0000 	lw	k1,0(k1)
80000700:	237affff 	addi	k0,k1,-1
80000704:	17400003 	bnez	k0,80000714 <do_it>
80000708:	00000000 	nop
8000070c:	03e00008 	jr	ra
80000710:	00000000 	nop

80000714 <do_it>:
80000714:	401a7801 	mfc0	k0,$15,1
80000718:	335a0007 	andi	k0,k0,0x7
8000071c:	001ad080 	sll	k0,k0,0x2
80000720:	3c1b9100 	lui	k1,0x9100
80000724:	277b2000 	addiu	k1,k1,8192
80000728:	037ad821 	addu	k1,k1,k0
8000072c:	8f7a0000 	lw	k0,0(k1)
80000730:	001ad200 	sll	k0,k0,0x8
80000734:	3c1b9100 	lui	k1,0x9100
80000738:	277b0000 	addiu	k1,k1,0
8000073c:	037ad821 	addu	k1,k1,k0
80000740:	401a7801 	mfc0	k0,$15,1
80000744:	335a0007 	andi	k0,k0,0x7
80000748:	001ad280 	sll	k0,k0,0xa
8000074c:	037ad821 	addu	k1,k1,k0
80000750:	401a6000 	mfc0	k0,c0_status
80000754:	af7a0000 	sw	k0,0(k1)
80000758:	af610004 	sw	at,4(k1)
8000075c:	af620008 	sw	v0,8(k1)
80000760:	af63000c 	sw	v1,12(k1)
80000764:	af640010 	sw	a0,16(k1)
80000768:	af650014 	sw	a1,20(k1)
8000076c:	af660018 	sw	a2,24(k1)
80000770:	af67001c 	sw	a3,28(k1)
80000774:	af680020 	sw	t0,32(k1)
80000778:	af690024 	sw	t1,36(k1)
8000077c:	af6a0028 	sw	t2,40(k1)
80000780:	af6b002c 	sw	t3,44(k1)
80000784:	af6c0030 	sw	t4,48(k1)
80000788:	af6d0034 	sw	t5,52(k1)
8000078c:	af6e0038 	sw	t6,56(k1)
80000790:	af6f003c 	sw	t7,60(k1)
80000794:	af700040 	sw	s0,64(k1)
80000798:	af710044 	sw	s1,68(k1)
8000079c:	af720048 	sw	s2,72(k1)
800007a0:	af73004c 	sw	s3,76(k1)
800007a4:	af740050 	sw	s4,80(k1)
800007a8:	af750054 	sw	s5,84(k1)
800007ac:	af760058 	sw	s6,88(k1)
800007b0:	af77005c 	sw	s7,92(k1)
800007b4:	af780060 	sw	t8,96(k1)
800007b8:	af790064 	sw	t9,100(k1)
800007bc:	0000d012 	mflo	k0
800007c0:	af7a0068 	sw	k0,104(k1)
800007c4:	0000d010 	mfhi	k0
800007c8:	af7a006c 	sw	k0,108(k1)
800007cc:	af7c0070 	sw	gp,112(k1)
800007d0:	af7d0074 	sw	sp,116(k1)
800007d4:	af7e0078 	sw	s8,120(k1)
800007d8:	af7f007c 	sw	ra,124(k1)
800007dc:	401a7000 	mfc0	k0,c0_epc
800007e0:	af7a0080 	sw	k0,128(k1)
800007e4:	401a6800 	mfc0	k0,c0_cause
800007e8:	af7a0084 	sw	k0,132(k1)
800007ec:	400f7801 	mfc0	t7,$15,1
800007f0:	31ef0007 	andi	t7,t7,0x7
800007f4:	000f8080 	sll	s0,t7,0x2
800007f8:	3c119100 	lui	s1,0x9100
800007fc:	26312000 	addiu	s1,s1,8192
80000800:	02308821 	addu	s1,s1,s0
80000804:	8e320000 	lw	s2,0(s1)
80000808:	3c139100 	lui	s3,0x9100
8000080c:	26732020 	addiu	s3,s3,8224
80000810:	02709821 	addu	s3,s3,s0
80000814:	8e740000 	lw	s4,0(s3)
80000818:	26520001 	addiu	s2,s2,1
8000081c:	02541022 	sub	v0,s2,s4
80000820:	14400002 	bnez	v0,8000082c <no_wrap>
80000824:	00000000 	nop
80000828:	00009020 	add	s2,zero,zero

8000082c <no_wrap>:
8000082c:	ae320000 	sw	s2,0(s1)
80000830:	00129a00 	sll	s3,s2,0x8
80000834:	3c1b9100 	lui	k1,0x9100
80000838:	277b0000 	addiu	k1,k1,0
8000083c:	0373d821 	addu	k1,k1,s3
80000840:	000f9a80 	sll	s3,t7,0xa
80000844:	0373d821 	addu	k1,k1,s3
80000848:	8f7a0000 	lw	k0,0(k1)
8000084c:	409a6000 	mtc0	k0,c0_status
80000850:	8f610004 	lw	at,4(k1)
80000854:	8f620008 	lw	v0,8(k1)
80000858:	8f63000c 	lw	v1,12(k1)
8000085c:	8f640010 	lw	a0,16(k1)
80000860:	8f650014 	lw	a1,20(k1)
80000864:	8f660018 	lw	a2,24(k1)
80000868:	8f67001c 	lw	a3,28(k1)
8000086c:	8f680020 	lw	t0,32(k1)
80000870:	8f690024 	lw	t1,36(k1)
80000874:	8f6a0028 	lw	t2,40(k1)
80000878:	8f6b002c 	lw	t3,44(k1)
8000087c:	8f6c0030 	lw	t4,48(k1)
80000880:	8f6d0034 	lw	t5,52(k1)
80000884:	8f6e0038 	lw	t6,56(k1)
80000888:	8f6f003c 	lw	t7,60(k1)
8000088c:	8f700040 	lw	s0,64(k1)
80000890:	8f710044 	lw	s1,68(k1)
80000894:	8f720048 	lw	s2,72(k1)
80000898:	8f73004c 	lw	s3,76(k1)
8000089c:	8f740050 	lw	s4,80(k1)
800008a0:	8f750054 	lw	s5,84(k1)
800008a4:	8f760058 	lw	s6,88(k1)
800008a8:	8f77005c 	lw	s7,92(k1)
800008ac:	8f780060 	lw	t8,96(k1)
800008b0:	8f790064 	lw	t9,100(k1)
800008b4:	8f7a0068 	lw	k0,104(k1)
800008b8:	03400013 	mtlo	k0
800008bc:	8f7a006c 	lw	k0,108(k1)
800008c0:	03400011 	mthi	k0
800008c4:	8f7c0070 	lw	gp,112(k1)
800008c8:	8f7d0074 	lw	sp,116(k1)
800008cc:	8f7e0078 	lw	s8,120(k1)
800008d0:	8f7f007c 	lw	ra,124(k1)
800008d4:	8f7a0080 	lw	k0,128(k1)
800008d8:	409a7000 	mtc0	k0,c0_epc
800008dc:	8f7a0084 	lw	k0,132(k1)
800008e0:	03e00008 	jr	ra
800008e4:	409a6800 	mtc0	k0,c0_cause

800008e8 <memcpy>:
800008e8:	27bdfff0 	addiu	sp,sp,-16
800008ec:	afa40010 	sw	a0,16(sp)
800008f0:	afa50014 	sw	a1,20(sp)
800008f4:	afa60018 	sw	a2,24(sp)
800008f8:	8fa20010 	lw	v0,16(sp)
800008fc:	afa2000c 	sw	v0,12(sp)
80000900:	8fa20014 	lw	v0,20(sp)
80000904:	afa20008 	sw	v0,8(sp)
80000908:	8fa2000c 	lw	v0,12(sp)
8000090c:	30420003 	andi	v0,v0,0x3
80000910:	14400018 	bnez	v0,80000974 <memcpy+0x8c>
80000914:	00000000 	nop
80000918:	8fa20008 	lw	v0,8(sp)
8000091c:	30420003 	andi	v0,v0,0x3
80000920:	14400014 	bnez	v0,80000974 <memcpy+0x8c>
80000924:	00000000 	nop
80000928:	08000259 	j	80000964 <memcpy+0x7c>
8000092c:	00000000 	nop
80000930:	8fa20008 	lw	v0,8(sp)
80000934:	8c430000 	lw	v1,0(v0)
80000938:	8fa2000c 	lw	v0,12(sp)
8000093c:	ac430000 	sw	v1,0(v0)
80000940:	8fa2000c 	lw	v0,12(sp)
80000944:	24420004 	addiu	v0,v0,4
80000948:	afa2000c 	sw	v0,12(sp)
8000094c:	8fa20008 	lw	v0,8(sp)
80000950:	24420004 	addiu	v0,v0,4
80000954:	afa20008 	sw	v0,8(sp)
80000958:	8fa20018 	lw	v0,24(sp)
8000095c:	2442fffc 	addiu	v0,v0,-4
80000960:	afa20018 	sw	v0,24(sp)
80000964:	8fa20018 	lw	v0,24(sp)
80000968:	2c420004 	sltiu	v0,v0,4
8000096c:	1040fff0 	beqz	v0,80000930 <memcpy+0x48>
80000970:	00000000 	nop
80000974:	8fa2000c 	lw	v0,12(sp)
80000978:	afa20004 	sw	v0,4(sp)
8000097c:	8fa20008 	lw	v0,8(sp)
80000980:	afa20000 	sw	v0,0(sp)
80000984:	0800026d 	j	800009b4 <memcpy+0xcc>
80000988:	00000000 	nop
8000098c:	8fa20000 	lw	v0,0(sp)
80000990:	90430000 	lbu	v1,0(v0)
80000994:	8fa20004 	lw	v0,4(sp)
80000998:	a0430000 	sb	v1,0(v0)
8000099c:	8fa20004 	lw	v0,4(sp)
800009a0:	24420001 	addiu	v0,v0,1
800009a4:	afa20004 	sw	v0,4(sp)
800009a8:	8fa20000 	lw	v0,0(sp)
800009ac:	24420001 	addiu	v0,v0,1
800009b0:	afa20000 	sw	v0,0(sp)
800009b4:	8fa20018 	lw	v0,24(sp)
800009b8:	0002102b 	sltu	v0,zero,v0
800009bc:	304200ff 	andi	v0,v0,0xff
800009c0:	8fa30018 	lw	v1,24(sp)
800009c4:	2463ffff 	addiu	v1,v1,-1
800009c8:	afa30018 	sw	v1,24(sp)
800009cc:	1440ffef 	bnez	v0,8000098c <memcpy+0xa4>
800009d0:	00000000 	nop
800009d4:	8fa20010 	lw	v0,16(sp)
800009d8:	27bd0010 	addiu	sp,sp,16
800009dc:	03e00008 	jr	ra
800009e0:	00000000 	nop

800009e4 <_procid>:
800009e4:	27bdfff8 	addiu	sp,sp,-8
800009e8:	40027801 	mfc0	v0,$15,1
800009ec:	afa20000 	sw	v0,0(sp)
800009f0:	8fa20000 	lw	v0,0(sp)
800009f4:	30420007 	andi	v0,v0,0x7
800009f8:	03e00008 	jr	ra
800009fc:	27bd0008 	addiu	sp,sp,8

80000a00 <_proctime>:
80000a00:	27bdfff8 	addiu	sp,sp,-8
80000a04:	40024800 	mfc0	v0,c0_count
80000a08:	afa20000 	sw	v0,0(sp)
80000a0c:	8fa20000 	lw	v0,0(sp)
80000a10:	03e00008 	jr	ra
80000a14:	27bd0008 	addiu	sp,sp,8

80000a18 <_it_mask>:
80000a18:	27bdfff8 	addiu	sp,sp,-8
80000a1c:	40026000 	mfc0	v0,c0_status
80000a20:	afa20000 	sw	v0,0(sp)
80000a24:	34420001 	ori	v0,v0,0x1
80000a28:	afa20000 	sw	v0,0(sp)
80000a2c:	40826000 	mtc0	v0,c0_status
80000a30:	afa20000 	sw	v0,0(sp)
80000a34:	03e00008 	jr	ra
80000a38:	27bd0008 	addiu	sp,sp,8

80000a3c <_it_enable>:
80000a3c:	27bdfff8 	addiu	sp,sp,-8
80000a40:	40026000 	mfc0	v0,c0_status
80000a44:	afa20000 	sw	v0,0(sp)
80000a48:	2042ffff 	addi	v0,v0,-1
80000a4c:	afa20000 	sw	v0,0(sp)
80000a50:	40826000 	mtc0	v0,c0_status
80000a54:	afa20000 	sw	v0,0(sp)
80000a58:	03e00008 	jr	ra
80000a5c:	27bd0008 	addiu	sp,sp,8

80000a60 <_dcache_buf_invalidate>:
80000a60:	27bdfff8 	addiu	sp,sp,-8
80000a64:	afa40008 	sw	a0,8(sp)
80000a68:	afa5000c 	sw	a1,12(sp)
80000a6c:	40028001 	mfc0	v0,c0_config1
80000a70:	afa20000 	sw	v0,0(sp)
80000a74:	8fa20000 	lw	v0,0(sp)
80000a78:	00021282 	srl	v0,v0,0xa
80000a7c:	30420007 	andi	v0,v0,0x7
80000a80:	24030002 	li	v1,2
80000a84:	00431004 	sllv	v0,v1,v0
80000a88:	afa20000 	sw	v0,0(sp)
80000a8c:	080002ad 	j	80000ab4 <_dcache_buf_invalidate+0x54>
80000a90:	afa00004 	sw	zero,4(sp)
80000a94:	8fa30008 	lw	v1,8(sp)
80000a98:	8fa20004 	lw	v0,4(sp)
80000a9c:	00621021 	addu	v0,v1,v0
80000aa0:	bc510000 	cache	0x11,0(v0)
80000aa4:	8fa30004 	lw	v1,4(sp)
80000aa8:	8fa20000 	lw	v0,0(sp)
80000aac:	00621021 	addu	v0,v1,v0
80000ab0:	afa20004 	sw	v0,4(sp)
80000ab4:	8fa30004 	lw	v1,4(sp)
80000ab8:	8fa2000c 	lw	v0,12(sp)
80000abc:	0062102b 	sltu	v0,v1,v0
80000ac0:	1440fff4 	bnez	v0,80000a94 <_dcache_buf_invalidate+0x34>
80000ac4:	00000000 	nop
80000ac8:	03e00008 	jr	ra
80000acc:	27bd0008 	addiu	sp,sp,8

80000ad0 <_itoa_dec>:
80000ad0:	27bdfff0 	addiu	sp,sp,-16
80000ad4:	afa40010 	sw	a0,16(sp)
80000ad8:	afa50014 	sw	a1,20(sp)
80000adc:	3c023100 	lui	v0,0x3100
80000ae0:	8c440000 	lw	a0,0(v0)
80000ae4:	24430000 	addiu	v1,v0,0
80000ae8:	8c630004 	lw	v1,4(v1)
80000aec:	afa40004 	sw	a0,4(sp)
80000af0:	afa30008 	sw	v1,8(sp)
80000af4:	24420000 	addiu	v0,v0,0
80000af8:	94430008 	lhu	v1,8(v0)
80000afc:	a7a3000c 	sh	v1,12(sp)
80000b00:	9042000a 	lbu	v0,10(v0)
80000b04:	a3a2000e 	sb	v0,14(sp)
80000b08:	afa00000 	sw	zero,0(sp)
80000b0c:	080002f0 	j	80000bc0 <_itoa_dec+0xf0>
80000b10:	00000000 	nop
80000b14:	8fa20010 	lw	v0,16(sp)
80000b18:	14400004 	bnez	v0,80000b2c <_itoa_dec+0x5c>
80000b1c:	00000000 	nop
80000b20:	8fa20000 	lw	v0,0(sp)
80000b24:	14400015 	bnez	v0,80000b7c <_itoa_dec+0xac>
80000b28:	00000000 	nop
80000b2c:	24030009 	li	v1,9
80000b30:	8fa20000 	lw	v0,0(sp)
80000b34:	00621023 	subu	v0,v1,v0
80000b38:	8fa30014 	lw	v1,20(sp)
80000b3c:	00621821 	addu	v1,v1,v0
80000b40:	8fa40010 	lw	a0,16(sp)
80000b44:	3c02cccc 	lui	v0,0xcccc
80000b48:	3442cccd 	ori	v0,v0,0xcccd
80000b4c:	00820019 	multu	a0,v0
80000b50:	00001010 	mfhi	v0
80000b54:	000210c2 	srl	v0,v0,0x3
80000b58:	00021040 	sll	v0,v0,0x1
80000b5c:	00022880 	sll	a1,v0,0x2
80000b60:	00451021 	addu	v0,v0,a1
80000b64:	00821023 	subu	v0,a0,v0
80000b68:	03a21021 	addu	v0,sp,v0
80000b6c:	80420004 	lb	v0,4(v0)
80000b70:	a0620000 	sb	v0,0(v1)
80000b74:	080002e6 	j	80000b98 <_itoa_dec+0xc8>
80000b78:	00000000 	nop
80000b7c:	24030009 	li	v1,9
80000b80:	8fa20000 	lw	v0,0(sp)
80000b84:	00621023 	subu	v0,v1,v0
80000b88:	8fa30014 	lw	v1,20(sp)
80000b8c:	00621021 	addu	v0,v1,v0
80000b90:	24030020 	li	v1,32
80000b94:	a0430000 	sb	v1,0(v0)
80000b98:	8fa30010 	lw	v1,16(sp)
80000b9c:	3c02cccc 	lui	v0,0xcccc
80000ba0:	3442cccd 	ori	v0,v0,0xcccd
80000ba4:	00620019 	multu	v1,v0
80000ba8:	00001010 	mfhi	v0
80000bac:	000210c2 	srl	v0,v0,0x3
80000bb0:	afa20010 	sw	v0,16(sp)
80000bb4:	8fa20000 	lw	v0,0(sp)
80000bb8:	24420001 	addiu	v0,v0,1
80000bbc:	afa20000 	sw	v0,0(sp)
80000bc0:	8fa20000 	lw	v0,0(sp)
80000bc4:	2c42000a 	sltiu	v0,v0,10
80000bc8:	1440ffd2 	bnez	v0,80000b14 <_itoa_dec+0x44>
80000bcc:	00000000 	nop
80000bd0:	27bd0010 	addiu	sp,sp,16
80000bd4:	03e00008 	jr	ra
80000bd8:	00000000 	nop

80000bdc <_itoa_hex>:
80000bdc:	27bdffe8 	addiu	sp,sp,-24
80000be0:	afa40018 	sw	a0,24(sp)
80000be4:	afa5001c 	sw	a1,28(sp)
80000be8:	3c023100 	lui	v0,0x3100
80000bec:	8c45000c 	lw	a1,12(v0)
80000bf0:	2443000c 	addiu	v1,v0,12
80000bf4:	8c640004 	lw	a0,4(v1)
80000bf8:	2443000c 	addiu	v1,v0,12
80000bfc:	8c630008 	lw	v1,8(v1)
80000c00:	afa50004 	sw	a1,4(sp)
80000c04:	afa40008 	sw	a0,8(sp)
80000c08:	afa3000c 	sw	v1,12(sp)
80000c0c:	2442000c 	addiu	v0,v0,12
80000c10:	9443000c 	lhu	v1,12(v0)
80000c14:	a7a30010 	sh	v1,16(sp)
80000c18:	9042000e 	lbu	v0,14(v0)
80000c1c:	a3a20012 	sb	v0,18(sp)
80000c20:	afa00000 	sw	zero,0(sp)
80000c24:	08000326 	j	80000c98 <_itoa_hex+0xbc>
80000c28:	00000000 	nop
80000c2c:	24030007 	li	v1,7
80000c30:	8fa20000 	lw	v0,0(sp)
80000c34:	00621023 	subu	v0,v1,v0
80000c38:	8fa3001c 	lw	v1,28(sp)
80000c3c:	00621821 	addu	v1,v1,v0
80000c40:	8fa40018 	lw	a0,24(sp)
80000c44:	3c028000 	lui	v0,0x8000
80000c48:	3442000f 	ori	v0,v0,0xf
80000c4c:	00821024 	and	v0,a0,v0
80000c50:	04410005 	bgez	v0,80000c68 <_itoa_hex+0x8c>
80000c54:	00000000 	nop
80000c58:	2442ffff 	addiu	v0,v0,-1
80000c5c:	2404fff0 	li	a0,-16
80000c60:	00441025 	or	v0,v0,a0
80000c64:	24420001 	addiu	v0,v0,1
80000c68:	03a21021 	addu	v0,sp,v0
80000c6c:	80420004 	lb	v0,4(v0)
80000c70:	a0620000 	sb	v0,0(v1)
80000c74:	8fa20018 	lw	v0,24(sp)
80000c78:	04410002 	bgez	v0,80000c84 <_itoa_hex+0xa8>
80000c7c:	00000000 	nop
80000c80:	2442000f 	addiu	v0,v0,15
80000c84:	00021103 	sra	v0,v0,0x4
80000c88:	afa20018 	sw	v0,24(sp)
80000c8c:	8fa20000 	lw	v0,0(sp)
80000c90:	24420001 	addiu	v0,v0,1
80000c94:	afa20000 	sw	v0,0(sp)
80000c98:	8fa20000 	lw	v0,0(sp)
80000c9c:	2c420008 	sltiu	v0,v0,8
80000ca0:	1440ffe2 	bnez	v0,80000c2c <_itoa_hex+0x50>
80000ca4:	00000000 	nop
80000ca8:	27bd0018 	addiu	sp,sp,24
80000cac:	03e00008 	jr	ra
80000cb0:	00000000 	nop

80000cb4 <_timer_write>:
80000cb4:	27bdfff8 	addiu	sp,sp,-8
80000cb8:	afa40008 	sw	a0,8(sp)
80000cbc:	afa5000c 	sw	a1,12(sp)
80000cc0:	afa60010 	sw	a2,16(sp)
80000cc4:	3c020000 	lui	v0,0x0
80000cc8:	24420001 	addiu	v0,v0,1
80000ccc:	afa20000 	sw	v0,0(sp)
80000cd0:	8fa30008 	lw	v1,8(sp)
80000cd4:	8fa20000 	lw	v0,0(sp)
80000cd8:	0062102a 	slt	v0,v1,v0
80000cdc:	10400005 	beqz	v0,80000cf4 <_timer_write+0x40>
80000ce0:	00000000 	nop
80000ce4:	8fa2000c 	lw	v0,12(sp)
80000ce8:	28420004 	slti	v0,v0,4
80000cec:	14400004 	bnez	v0,80000d00 <_timer_write+0x4c>
80000cf0:	00000000 	nop
80000cf4:	2402ffff 	li	v0,-1
80000cf8:	0800034d 	j	80000d34 <_timer_write+0x80>
80000cfc:	00000000 	nop
80000d00:	3c028800 	lui	v0,0x8800
80000d04:	24430000 	addiu	v1,v0,0
80000d08:	8fa20008 	lw	v0,8(sp)
80000d0c:	00021100 	sll	v0,v0,0x4
80000d10:	00621021 	addu	v0,v1,v0
80000d14:	afa20004 	sw	v0,4(sp)
80000d18:	8fa2000c 	lw	v0,12(sp)
80000d1c:	00021080 	sll	v0,v0,0x2
80000d20:	8fa30004 	lw	v1,4(sp)
80000d24:	00621021 	addu	v0,v1,v0
80000d28:	8fa30010 	lw	v1,16(sp)
80000d2c:	ac430000 	sw	v1,0(v0)
80000d30:	00001021 	move	v0,zero
80000d34:	27bd0008 	addiu	sp,sp,8
80000d38:	03e00008 	jr	ra
80000d3c:	00000000 	nop

80000d40 <_timer_read>:
80000d40:	27bdfff8 	addiu	sp,sp,-8
80000d44:	afa40008 	sw	a0,8(sp)
80000d48:	afa5000c 	sw	a1,12(sp)
80000d4c:	afa60010 	sw	a2,16(sp)
80000d50:	3c020000 	lui	v0,0x0
80000d54:	24420001 	addiu	v0,v0,1
80000d58:	afa20000 	sw	v0,0(sp)
80000d5c:	8fa30008 	lw	v1,8(sp)
80000d60:	8fa20000 	lw	v0,0(sp)
80000d64:	0062102a 	slt	v0,v1,v0
80000d68:	10400005 	beqz	v0,80000d80 <_timer_read+0x40>
80000d6c:	00000000 	nop
80000d70:	8fa2000c 	lw	v0,12(sp)
80000d74:	28420004 	slti	v0,v0,4
80000d78:	14400004 	bnez	v0,80000d8c <_timer_read+0x4c>
80000d7c:	00000000 	nop
80000d80:	2402ffff 	li	v0,-1
80000d84:	08000371 	j	80000dc4 <_timer_read+0x84>
80000d88:	00000000 	nop
80000d8c:	3c028800 	lui	v0,0x8800
80000d90:	24430000 	addiu	v1,v0,0
80000d94:	8fa20008 	lw	v0,8(sp)
80000d98:	00021100 	sll	v0,v0,0x4
80000d9c:	00621021 	addu	v0,v1,v0
80000da0:	afa20004 	sw	v0,4(sp)
80000da4:	8fa2000c 	lw	v0,12(sp)
80000da8:	00021080 	sll	v0,v0,0x2
80000dac:	8fa30004 	lw	v1,4(sp)
80000db0:	00621021 	addu	v0,v1,v0
80000db4:	8c430000 	lw	v1,0(v0)
80000db8:	8fa20010 	lw	v0,16(sp)
80000dbc:	ac430000 	sw	v1,0(v0)
80000dc0:	00001021 	move	v0,zero
80000dc4:	27bd0008 	addiu	sp,sp,8
80000dc8:	03e00008 	jr	ra
80000dcc:	00000000 	nop

80000dd0 <_tty_write>:
80000dd0:	27bdffc8 	addiu	sp,sp,-56
80000dd4:	afbf0034 	sw	ra,52(sp)
80000dd8:	afa40038 	sw	a0,56(sp)
80000ddc:	afa5003c 	sw	a1,60(sp)
80000de0:	3c020000 	lui	v0,0x0
80000de4:	24420001 	addiu	v0,v0,1
80000de8:	afa20020 	sw	v0,32(sp)
80000dec:	3c020000 	lui	v0,0x0
80000df0:	24420004 	addiu	v0,v0,4
80000df4:	afa2001c 	sw	v0,28(sp)
80000df8:	afa00014 	sw	zero,20(sp)
80000dfc:	0c000279 	jal	800009e4 <_procid>
80000e00:	00000000 	nop
80000e04:	afa20028 	sw	v0,40(sp)
80000e08:	8fa30028 	lw	v1,40(sp)
80000e0c:	8fa2001c 	lw	v0,28(sp)
80000e10:	0062102a 	slt	v0,v1,v0
80000e14:	14400004 	bnez	v0,80000e28 <_tty_write+0x58>
80000e18:	00000000 	nop
80000e1c:	2402ffff 	li	v0,-1
80000e20:	080003c2 	j	80000f08 <_tty_write+0x138>
80000e24:	00000000 	nop
80000e28:	8fa30028 	lw	v1,40(sp)
80000e2c:	3c029100 	lui	v0,0x9100
80000e30:	00031880 	sll	v1,v1,0x2
80000e34:	24422000 	addiu	v0,v0,8192
80000e38:	00621021 	addu	v0,v1,v0
80000e3c:	8c420000 	lw	v0,0(v0)
80000e40:	afa20024 	sw	v0,36(sp)
80000e44:	8fa30024 	lw	v1,36(sp)
80000e48:	8fa20020 	lw	v0,32(sp)
80000e4c:	0062102a 	slt	v0,v1,v0
80000e50:	14400004 	bnez	v0,80000e64 <_tty_write+0x94>
80000e54:	00000000 	nop
80000e58:	2402ffff 	li	v0,-1
80000e5c:	080003c2 	j	80000f08 <_tty_write+0x138>
80000e60:	00000000 	nop
80000e64:	3c028700 	lui	v0,0x8700
80000e68:	24430000 	addiu	v1,v0,0
80000e6c:	8fa20028 	lw	v0,40(sp)
80000e70:	00021600 	sll	v0,v0,0x18
80000e74:	00402021 	move	a0,v0
80000e78:	8fa20024 	lw	v0,36(sp)
80000e7c:	00821021 	addu	v0,a0,v0
80000e80:	00021100 	sll	v0,v0,0x4
80000e84:	00621021 	addu	v0,v1,v0
80000e88:	afa20010 	sw	v0,16(sp)
80000e8c:	afa00018 	sw	zero,24(sp)
80000e90:	080003b9 	j	80000ee4 <_tty_write+0x114>
80000e94:	00000000 	nop
80000e98:	8fa20010 	lw	v0,16(sp)
80000e9c:	24420004 	addiu	v0,v0,4
80000ea0:	80420000 	lb	v0,0(v0)
80000ea4:	304200ff 	andi	v0,v0,0xff
80000ea8:	30420002 	andi	v0,v0,0x2
80000eac:	14400014 	bnez	v0,80000f00 <_tty_write+0x130>
80000eb0:	00000000 	nop
80000eb4:	8fa20018 	lw	v0,24(sp)
80000eb8:	8fa30038 	lw	v1,56(sp)
80000ebc:	00621021 	addu	v0,v1,v0
80000ec0:	80430000 	lb	v1,0(v0)
80000ec4:	8fa20010 	lw	v0,16(sp)
80000ec8:	a0430000 	sb	v1,0(v0)
80000ecc:	8fa20014 	lw	v0,20(sp)
80000ed0:	24420001 	addiu	v0,v0,1
80000ed4:	afa20014 	sw	v0,20(sp)
80000ed8:	8fa20018 	lw	v0,24(sp)
80000edc:	24420001 	addiu	v0,v0,1
80000ee0:	afa20018 	sw	v0,24(sp)
80000ee4:	8fa30018 	lw	v1,24(sp)
80000ee8:	8fa2003c 	lw	v0,60(sp)
80000eec:	0062102a 	slt	v0,v1,v0
80000ef0:	1440ffe9 	bnez	v0,80000e98 <_tty_write+0xc8>
80000ef4:	00000000 	nop
80000ef8:	080003c1 	j	80000f04 <_tty_write+0x134>
80000efc:	00000000 	nop
80000f00:	00000000 	nop
80000f04:	8fa20014 	lw	v0,20(sp)
80000f08:	8fbf0034 	lw	ra,52(sp)
80000f0c:	27bd0038 	addiu	sp,sp,56
80000f10:	03e00008 	jr	ra
80000f14:	00000000 	nop

80000f18 <_tty_read_irq>:
80000f18:	27bdffd0 	addiu	sp,sp,-48
80000f1c:	afbf002c 	sw	ra,44(sp)
80000f20:	afa40030 	sw	a0,48(sp)
80000f24:	afa50034 	sw	a1,52(sp)
80000f28:	3c020000 	lui	v0,0x0
80000f2c:	24420001 	addiu	v0,v0,1
80000f30:	afa20018 	sw	v0,24(sp)
80000f34:	3c020000 	lui	v0,0x0
80000f38:	24420004 	addiu	v0,v0,4
80000f3c:	afa20014 	sw	v0,20(sp)
80000f40:	8fa30034 	lw	v1,52(sp)
80000f44:	24020001 	li	v0,1
80000f48:	10620004 	beq	v1,v0,80000f5c <_tty_read_irq+0x44>
80000f4c:	00000000 	nop
80000f50:	2402ffff 	li	v0,-1
80000f54:	08000412 	j	80001048 <_tty_read_irq+0x130>
80000f58:	00000000 	nop
80000f5c:	0c000279 	jal	800009e4 <_procid>
80000f60:	00000000 	nop
80000f64:	afa20020 	sw	v0,32(sp)
80000f68:	8fa30020 	lw	v1,32(sp)
80000f6c:	8fa20014 	lw	v0,20(sp)
80000f70:	0062102a 	slt	v0,v1,v0
80000f74:	14400004 	bnez	v0,80000f88 <_tty_read_irq+0x70>
80000f78:	00000000 	nop
80000f7c:	2402ffff 	li	v0,-1
80000f80:	08000412 	j	80001048 <_tty_read_irq+0x130>
80000f84:	00000000 	nop
80000f88:	8fa30020 	lw	v1,32(sp)
80000f8c:	3c029100 	lui	v0,0x9100
80000f90:	00031880 	sll	v1,v1,0x2
80000f94:	24422000 	addiu	v0,v0,8192
80000f98:	00621021 	addu	v0,v1,v0
80000f9c:	8c420000 	lw	v0,0(v0)
80000fa0:	afa2001c 	sw	v0,28(sp)
80000fa4:	8fa3001c 	lw	v1,28(sp)
80000fa8:	8fa20018 	lw	v0,24(sp)
80000fac:	0062102a 	slt	v0,v1,v0
80000fb0:	14400004 	bnez	v0,80000fc4 <_tty_read_irq+0xac>
80000fb4:	00000000 	nop
80000fb8:	2402ffff 	li	v0,-1
80000fbc:	08000412 	j	80001048 <_tty_read_irq+0x130>
80000fc0:	00000000 	nop
80000fc4:	8fa30020 	lw	v1,32(sp)
80000fc8:	8fa20018 	lw	v0,24(sp)
80000fcc:	70621802 	mul	v1,v1,v0
80000fd0:	8fa2001c 	lw	v0,28(sp)
80000fd4:	00621021 	addu	v0,v1,v0
80000fd8:	afa20010 	sw	v0,16(sp)
80000fdc:	8fa30010 	lw	v1,16(sp)
80000fe0:	3c029200 	lui	v0,0x9200
80000fe4:	00031880 	sll	v1,v1,0x2
80000fe8:	24420030 	addiu	v0,v0,48
80000fec:	00621021 	addu	v0,v1,v0
80000ff0:	8c420000 	lw	v0,0(v0)
80000ff4:	14400004 	bnez	v0,80001008 <_tty_read_irq+0xf0>
80000ff8:	00000000 	nop
80000ffc:	00001021 	move	v0,zero
80001000:	08000412 	j	80001048 <_tty_read_irq+0x130>
80001004:	00000000 	nop
80001008:	8fa30010 	lw	v1,16(sp)
8000100c:	3c029200 	lui	v0,0x9200
80001010:	24420010 	addiu	v0,v0,16
80001014:	00621021 	addu	v0,v1,v0
80001018:	90420000 	lbu	v0,0(v0)
8000101c:	00021e00 	sll	v1,v0,0x18
80001020:	00031e03 	sra	v1,v1,0x18
80001024:	8fa20030 	lw	v0,48(sp)
80001028:	a0430000 	sb	v1,0(v0)
8000102c:	8fa30010 	lw	v1,16(sp)
80001030:	3c029200 	lui	v0,0x9200
80001034:	00031880 	sll	v1,v1,0x2
80001038:	24420030 	addiu	v0,v0,48
8000103c:	00621021 	addu	v0,v1,v0
80001040:	ac400000 	sw	zero,0(v0)
80001044:	24020001 	li	v0,1
80001048:	8fbf002c 	lw	ra,44(sp)
8000104c:	27bd0030 	addiu	sp,sp,48
80001050:	03e00008 	jr	ra
80001054:	00000000 	nop

80001058 <_tty_read>:
80001058:	27bdffd0 	addiu	sp,sp,-48
8000105c:	afbf002c 	sw	ra,44(sp)
80001060:	afa40030 	sw	a0,48(sp)
80001064:	afa50034 	sw	a1,52(sp)
80001068:	3c020000 	lui	v0,0x0
8000106c:	24420001 	addiu	v0,v0,1
80001070:	afa20018 	sw	v0,24(sp)
80001074:	3c020000 	lui	v0,0x0
80001078:	24420004 	addiu	v0,v0,4
8000107c:	afa20014 	sw	v0,20(sp)
80001080:	8fa30034 	lw	v1,52(sp)
80001084:	24020001 	li	v0,1
80001088:	10620004 	beq	v1,v0,8000109c <_tty_read+0x44>
8000108c:	00000000 	nop
80001090:	2402ffff 	li	v0,-1
80001094:	0800045c 	j	80001170 <_tty_read+0x118>
80001098:	00000000 	nop
8000109c:	0c000279 	jal	800009e4 <_procid>
800010a0:	00000000 	nop
800010a4:	afa20020 	sw	v0,32(sp)
800010a8:	8fa30020 	lw	v1,32(sp)
800010ac:	8fa20014 	lw	v0,20(sp)
800010b0:	0062102a 	slt	v0,v1,v0
800010b4:	14400004 	bnez	v0,800010c8 <_tty_read+0x70>
800010b8:	00000000 	nop
800010bc:	2402ffff 	li	v0,-1
800010c0:	0800045c 	j	80001170 <_tty_read+0x118>
800010c4:	00000000 	nop
800010c8:	8fa30020 	lw	v1,32(sp)
800010cc:	3c029100 	lui	v0,0x9100
800010d0:	00031880 	sll	v1,v1,0x2
800010d4:	24422000 	addiu	v0,v0,8192
800010d8:	00621021 	addu	v0,v1,v0
800010dc:	8c420000 	lw	v0,0(v0)
800010e0:	afa2001c 	sw	v0,28(sp)
800010e4:	8fa3001c 	lw	v1,28(sp)
800010e8:	8fa20018 	lw	v0,24(sp)
800010ec:	0062102a 	slt	v0,v1,v0
800010f0:	14400004 	bnez	v0,80001104 <_tty_read+0xac>
800010f4:	00000000 	nop
800010f8:	2402ffff 	li	v0,-1
800010fc:	0800045c 	j	80001170 <_tty_read+0x118>
80001100:	00000000 	nop
80001104:	3c028700 	lui	v0,0x8700
80001108:	24430000 	addiu	v1,v0,0
8000110c:	8fa20020 	lw	v0,32(sp)
80001110:	00021600 	sll	v0,v0,0x18
80001114:	00402021 	move	a0,v0
80001118:	8fa2001c 	lw	v0,28(sp)
8000111c:	00821021 	addu	v0,a0,v0
80001120:	00021100 	sll	v0,v0,0x4
80001124:	00621021 	addu	v0,v1,v0
80001128:	afa20010 	sw	v0,16(sp)
8000112c:	8fa20010 	lw	v0,16(sp)
80001130:	24420004 	addiu	v0,v0,4
80001134:	80420000 	lb	v0,0(v0)
80001138:	304200ff 	andi	v0,v0,0xff
8000113c:	30420001 	andi	v0,v0,0x1
80001140:	304200ff 	andi	v0,v0,0xff
80001144:	10400009 	beqz	v0,8000116c <_tty_read+0x114>
80001148:	00000000 	nop
8000114c:	8fa20010 	lw	v0,16(sp)
80001150:	24420008 	addiu	v0,v0,8
80001154:	80430000 	lb	v1,0(v0)
80001158:	8fa20030 	lw	v0,48(sp)
8000115c:	a0430000 	sb	v1,0(v0)
80001160:	24020001 	li	v0,1
80001164:	0800045c 	j	80001170 <_tty_read+0x118>
80001168:	00000000 	nop
8000116c:	00001021 	move	v0,zero
80001170:	8fbf002c 	lw	ra,44(sp)
80001174:	27bd0030 	addiu	sp,sp,48
80001178:	03e00008 	jr	ra
8000117c:	00000000 	nop

80001180 <_exit>:
80001180:	27bdffb8 	addiu	sp,sp,-72
80001184:	afbf0044 	sw	ra,68(sp)
80001188:	3c023100 	lui	v0,0x3100
8000118c:	27a40014 	addiu	a0,sp,20
80001190:	2443001c 	addiu	v1,v0,28
80001194:	24020025 	li	v0,37
80001198:	00602821 	move	a1,v1
8000119c:	0c00023a 	jal	800008e8 <memcpy>
800011a0:	00403021 	move	a2,v0
800011a4:	0c000279 	jal	800009e4 <_procid>
800011a8:	00000000 	nop
800011ac:	afa20010 	sw	v0,16(sp)
800011b0:	24020030 	li	v0,48
800011b4:	a3a2002c 	sb	v0,44(sp)
800011b8:	24020078 	li	v0,120
800011bc:	a3a2002d 	sb	v0,45(sp)
800011c0:	8fa20010 	lw	v0,16(sp)
800011c4:	00021203 	sra	v0,v0,0x8
800011c8:	304200ff 	andi	v0,v0,0xff
800011cc:	3042000f 	andi	v0,v0,0xf
800011d0:	24420030 	addiu	v0,v0,48
800011d4:	304200ff 	andi	v0,v0,0xff
800011d8:	00021600 	sll	v0,v0,0x18
800011dc:	00021603 	sra	v0,v0,0x18
800011e0:	a3a2002e 	sb	v0,46(sp)
800011e4:	8fa20010 	lw	v0,16(sp)
800011e8:	00021103 	sra	v0,v0,0x4
800011ec:	304200ff 	andi	v0,v0,0xff
800011f0:	3042000f 	andi	v0,v0,0xf
800011f4:	24420030 	addiu	v0,v0,48
800011f8:	304200ff 	andi	v0,v0,0xff
800011fc:	00021600 	sll	v0,v0,0x18
80001200:	00021603 	sra	v0,v0,0x18
80001204:	a3a2002f 	sb	v0,47(sp)
80001208:	8fa20010 	lw	v0,16(sp)
8000120c:	304200ff 	andi	v0,v0,0xff
80001210:	3042000f 	andi	v0,v0,0xf
80001214:	24420030 	addiu	v0,v0,48
80001218:	304200ff 	andi	v0,v0,0xff
8000121c:	00021600 	sll	v0,v0,0x18
80001220:	00021603 	sra	v0,v0,0x18
80001224:	a3a20030 	sb	v0,48(sp)
80001228:	27a20014 	addiu	v0,sp,20
8000122c:	00402021 	move	a0,v0
80001230:	0c000374 	jal	80000dd0 <_tty_write>
80001234:	24050024 	li	a1,36
80001238:	0800048e 	j	80001238 <_exit+0xb8>
8000123c:	00000000 	nop

80001240 <_icu_write>:
80001240:	27bdffe0 	addiu	sp,sp,-32
80001244:	afbf001c 	sw	ra,28(sp)
80001248:	afa40020 	sw	a0,32(sp)
8000124c:	afa50024 	sw	a1,36(sp)
80001250:	0c000279 	jal	800009e4 <_procid>
80001254:	00000000 	nop
80001258:	afa20010 	sw	v0,16(sp)
8000125c:	8fa20020 	lw	v0,32(sp)
80001260:	28420005 	slti	v0,v0,5
80001264:	14400004 	bnez	v0,80001278 <_icu_write+0x38>
80001268:	00000000 	nop
8000126c:	2402ffff 	li	v0,-1
80001270:	080004b2 	j	800012c8 <_icu_write+0x88>
80001274:	00000000 	nop
80001278:	8fa20010 	lw	v0,16(sp)
8000127c:	28420008 	slti	v0,v0,8
80001280:	14400004 	bnez	v0,80001294 <_icu_write+0x54>
80001284:	00000000 	nop
80001288:	2402ffff 	li	v0,-1
8000128c:	080004b2 	j	800012c8 <_icu_write+0x88>
80001290:	00000000 	nop
80001294:	3c028600 	lui	v0,0x8600
80001298:	24420000 	addiu	v0,v0,0
8000129c:	afa20014 	sw	v0,20(sp)
800012a0:	8fa20010 	lw	v0,16(sp)
800012a4:	000218c0 	sll	v1,v0,0x3
800012a8:	8fa20020 	lw	v0,32(sp)
800012ac:	00621021 	addu	v0,v1,v0
800012b0:	00021080 	sll	v0,v0,0x2
800012b4:	8fa30014 	lw	v1,20(sp)
800012b8:	00621021 	addu	v0,v1,v0
800012bc:	8fa30024 	lw	v1,36(sp)
800012c0:	ac430000 	sw	v1,0(v0)
800012c4:	00001021 	move	v0,zero
800012c8:	8fbf001c 	lw	ra,28(sp)
800012cc:	27bd0020 	addiu	sp,sp,32
800012d0:	03e00008 	jr	ra
800012d4:	00000000 	nop

800012d8 <_icu_read>:
800012d8:	27bdffe0 	addiu	sp,sp,-32
800012dc:	afbf001c 	sw	ra,28(sp)
800012e0:	afa40020 	sw	a0,32(sp)
800012e4:	afa50024 	sw	a1,36(sp)
800012e8:	0c000279 	jal	800009e4 <_procid>
800012ec:	00000000 	nop
800012f0:	afa20010 	sw	v0,16(sp)
800012f4:	8fa20020 	lw	v0,32(sp)
800012f8:	28420005 	slti	v0,v0,5
800012fc:	14400004 	bnez	v0,80001310 <_icu_read+0x38>
80001300:	00000000 	nop
80001304:	2402ffff 	li	v0,-1
80001308:	080004d9 	j	80001364 <_icu_read+0x8c>
8000130c:	00000000 	nop
80001310:	8fa20010 	lw	v0,16(sp)
80001314:	28420008 	slti	v0,v0,8
80001318:	14400004 	bnez	v0,8000132c <_icu_read+0x54>
8000131c:	00000000 	nop
80001320:	2402ffff 	li	v0,-1
80001324:	080004d9 	j	80001364 <_icu_read+0x8c>
80001328:	00000000 	nop
8000132c:	3c028600 	lui	v0,0x8600
80001330:	24420000 	addiu	v0,v0,0
80001334:	afa20014 	sw	v0,20(sp)
80001338:	8fa20010 	lw	v0,16(sp)
8000133c:	000218c0 	sll	v1,v0,0x3
80001340:	8fa20020 	lw	v0,32(sp)
80001344:	00621021 	addu	v0,v1,v0
80001348:	00021080 	sll	v0,v0,0x2
8000134c:	8fa30014 	lw	v1,20(sp)
80001350:	00621021 	addu	v0,v1,v0
80001354:	8c430000 	lw	v1,0(v0)
80001358:	8fa20024 	lw	v0,36(sp)
8000135c:	ac430000 	sw	v1,0(v0)
80001360:	00001021 	move	v0,zero
80001364:	8fbf001c 	lw	ra,28(sp)
80001368:	27bd0020 	addiu	sp,sp,32
8000136c:	03e00008 	jr	ra
80001370:	00000000 	nop

80001374 <_gcd_write>:
80001374:	27bdfff8 	addiu	sp,sp,-8
80001378:	afa40008 	sw	a0,8(sp)
8000137c:	afa5000c 	sw	a1,12(sp)
80001380:	8fa20008 	lw	v0,8(sp)
80001384:	28420004 	slti	v0,v0,4
80001388:	14400004 	bnez	v0,8000139c <_gcd_write+0x28>
8000138c:	00000000 	nop
80001390:	2402ffff 	li	v0,-1
80001394:	080004f1 	j	800013c4 <_gcd_write+0x50>
80001398:	00000000 	nop
8000139c:	3c028d00 	lui	v0,0x8d00
800013a0:	24420000 	addiu	v0,v0,0
800013a4:	afa20000 	sw	v0,0(sp)
800013a8:	8fa20008 	lw	v0,8(sp)
800013ac:	00021080 	sll	v0,v0,0x2
800013b0:	8fa30000 	lw	v1,0(sp)
800013b4:	00621021 	addu	v0,v1,v0
800013b8:	8fa3000c 	lw	v1,12(sp)
800013bc:	ac430000 	sw	v1,0(v0)
800013c0:	00001021 	move	v0,zero
800013c4:	27bd0008 	addiu	sp,sp,8
800013c8:	03e00008 	jr	ra
800013cc:	00000000 	nop

800013d0 <_gcd_read>:
800013d0:	27bdfff8 	addiu	sp,sp,-8
800013d4:	afa40008 	sw	a0,8(sp)
800013d8:	afa5000c 	sw	a1,12(sp)
800013dc:	8fa20008 	lw	v0,8(sp)
800013e0:	28420004 	slti	v0,v0,4
800013e4:	14400004 	bnez	v0,800013f8 <_gcd_read+0x28>
800013e8:	00000000 	nop
800013ec:	2402ffff 	li	v0,-1
800013f0:	08000509 	j	80001424 <_gcd_read+0x54>
800013f4:	00000000 	nop
800013f8:	3c028d00 	lui	v0,0x8d00
800013fc:	24420000 	addiu	v0,v0,0
80001400:	afa20000 	sw	v0,0(sp)
80001404:	8fa20008 	lw	v0,8(sp)
80001408:	00021080 	sll	v0,v0,0x2
8000140c:	8fa30000 	lw	v1,0(sp)
80001410:	00621021 	addu	v0,v1,v0
80001414:	8c430000 	lw	v1,0(v0)
80001418:	8fa2000c 	lw	v0,12(sp)
8000141c:	ac430000 	sw	v1,0(v0)
80001420:	00001021 	move	v0,zero
80001424:	27bd0008 	addiu	sp,sp,8
80001428:	03e00008 	jr	ra
8000142c:	00000000 	nop

80001430 <_locks_write>:
80001430:	27bdfff8 	addiu	sp,sp,-8
80001434:	afa40008 	sw	a0,8(sp)
80001438:	3c020000 	lui	v0,0x0
8000143c:	24420000 	addiu	v0,v0,0
80001440:	afa20000 	sw	v0,0(sp)
80001444:	8fa30008 	lw	v1,8(sp)
80001448:	8fa20000 	lw	v0,0(sp)
8000144c:	0062102a 	slt	v0,v1,v0
80001450:	14400004 	bnez	v0,80001464 <_locks_write+0x34>
80001454:	00000000 	nop
80001458:	2402ffff 	li	v0,-1
8000145c:	08000522 	j	80001488 <_locks_write+0x58>
80001460:	00000000 	nop
80001464:	3c028c00 	lui	v0,0x8c00
80001468:	24420000 	addiu	v0,v0,0
8000146c:	afa20004 	sw	v0,4(sp)
80001470:	8fa20008 	lw	v0,8(sp)
80001474:	00021080 	sll	v0,v0,0x2
80001478:	8fa30004 	lw	v1,4(sp)
8000147c:	00621021 	addu	v0,v1,v0
80001480:	ac400000 	sw	zero,0(v0)
80001484:	00001021 	move	v0,zero
80001488:	27bd0008 	addiu	sp,sp,8
8000148c:	03e00008 	jr	ra
80001490:	00000000 	nop

80001494 <_locks_read>:
80001494:	27bdffd8 	addiu	sp,sp,-40
80001498:	afbf0024 	sw	ra,36(sp)
8000149c:	afa40028 	sw	a0,40(sp)
800014a0:	3c020000 	lui	v0,0x0
800014a4:	24420000 	addiu	v0,v0,0
800014a8:	afa20018 	sw	v0,24(sp)
800014ac:	8fa30028 	lw	v1,40(sp)
800014b0:	8fa20018 	lw	v0,24(sp)
800014b4:	0062102a 	slt	v0,v1,v0
800014b8:	14400003 	bnez	v0,800014c8 <_locks_read+0x34>
800014bc:	00000000 	nop
800014c0:	0800054e 	j	80001538 <_locks_read+0xa4>
800014c4:	2402ffff 	li	v0,-1
800014c8:	3c028c00 	lui	v0,0x8c00
800014cc:	24420000 	addiu	v0,v0,0
800014d0:	08000546 	j	80001518 <_locks_read+0x84>
800014d4:	afa2001c 	sw	v0,28(sp)
800014d8:	0c000280 	jal	80000a00 <_proctime>
800014dc:	00000000 	nop
800014e0:	00021100 	sll	v0,v0,0x4
800014e4:	304200ff 	andi	v0,v0,0xff
800014e8:	afa20014 	sw	v0,20(sp)
800014ec:	08000541 	j	80001504 <_locks_read+0x70>
800014f0:	afa00010 	sw	zero,16(sp)
800014f4:	00000000 	nop
800014f8:	8fa20010 	lw	v0,16(sp)
800014fc:	24420001 	addiu	v0,v0,1
80001500:	afa20010 	sw	v0,16(sp)
80001504:	8fa30010 	lw	v1,16(sp)
80001508:	8fa20014 	lw	v0,20(sp)
8000150c:	0062102a 	slt	v0,v1,v0
80001510:	1440fff8 	bnez	v0,800014f4 <_locks_read+0x60>
80001514:	00000000 	nop
80001518:	8fa20028 	lw	v0,40(sp)
8000151c:	00021080 	sll	v0,v0,0x2
80001520:	8fa3001c 	lw	v1,28(sp)
80001524:	00621021 	addu	v0,v1,v0
80001528:	8c420000 	lw	v0,0(v0)
8000152c:	1440ffea 	bnez	v0,800014d8 <_locks_read+0x44>
80001530:	00000000 	nop
80001534:	00001021 	move	v0,zero
80001538:	8fbf0024 	lw	ra,36(sp)
8000153c:	03e00008 	jr	ra
80001540:	27bd0028 	addiu	sp,sp,40

80001544 <_ioc_write>:
80001544:	27bdffd8 	addiu	sp,sp,-40
80001548:	afbf0024 	sw	ra,36(sp)
8000154c:	afa40028 	sw	a0,40(sp)
80001550:	afa5002c 	sw	a1,44(sp)
80001554:	afa60030 	sw	a2,48(sp)
80001558:	3c028900 	lui	v0,0x8900
8000155c:	24420000 	addiu	v0,v0,0
80001560:	afa2001c 	sw	v0,28(sp)
80001564:	8fa2001c 	lw	v0,28(sp)
80001568:	2442001c 	addiu	v0,v0,28
8000156c:	8c420000 	lw	v0,0(v0)
80001570:	afa20010 	sw	v0,16(sp)
80001574:	8fa30010 	lw	v1,16(sp)
80001578:	8fa20030 	lw	v0,48(sp)
8000157c:	70621802 	mul	v1,v1,v0
80001580:	8fa2002c 	lw	v0,44(sp)
80001584:	00621021 	addu	v0,v1,v0
80001588:	04410003 	bgez	v0,80001598 <_ioc_write+0x54>
8000158c:	00000000 	nop
80001590:	08000599 	j	80001664 <_ioc_write+0x120>
80001594:	2402ffff 	li	v0,-1
80001598:	8fa2002c 	lw	v0,44(sp)
8000159c:	04410015 	bgez	v0,800015f4 <_ioc_write+0xb0>
800015a0:	00000000 	nop
800015a4:	08000599 	j	80001664 <_ioc_write+0x120>
800015a8:	2402ffff 	li	v0,-1
800015ac:	0c000280 	jal	80000a00 <_proctime>
800015b0:	00000000 	nop
800015b4:	00021100 	sll	v0,v0,0x4
800015b8:	304200ff 	andi	v0,v0,0xff
800015bc:	afa20018 	sw	v0,24(sp)
800015c0:	08000576 	j	800015d8 <_ioc_write+0x94>
800015c4:	afa00014 	sw	zero,20(sp)
800015c8:	00000000 	nop
800015cc:	8fa20014 	lw	v0,20(sp)
800015d0:	24420001 	addiu	v0,v0,1
800015d4:	afa20014 	sw	v0,20(sp)
800015d8:	8fa30014 	lw	v1,20(sp)
800015dc:	8fa20018 	lw	v0,24(sp)
800015e0:	0062102a 	slt	v0,v1,v0
800015e4:	1440fff8 	bnez	v0,800015c8 <_ioc_write+0x84>
800015e8:	00000000 	nop
800015ec:	0800057e 	j	800015f8 <_ioc_write+0xb4>
800015f0:	00000000 	nop
800015f4:	00000000 	nop
800015f8:	3c029200 	lui	v0,0x9200
800015fc:	8c420008 	lw	v0,8(v0)
80001600:	1440ffea 	bnez	v0,800015ac <_ioc_write+0x68>
80001604:	00000000 	nop
80001608:	3c029200 	lui	v0,0x9200
8000160c:	24030001 	li	v1,1
80001610:	ac430008 	sw	v1,8(v0)
80001614:	8fa3002c 	lw	v1,44(sp)
80001618:	8fa2001c 	lw	v0,28(sp)
8000161c:	ac430000 	sw	v1,0(v0)
80001620:	8fa2001c 	lw	v0,28(sp)
80001624:	24420008 	addiu	v0,v0,8
80001628:	8fa30030 	lw	v1,48(sp)
8000162c:	ac430000 	sw	v1,0(v0)
80001630:	8fa2001c 	lw	v0,28(sp)
80001634:	24420004 	addiu	v0,v0,4
80001638:	8fa30028 	lw	v1,40(sp)
8000163c:	ac430000 	sw	v1,0(v0)
80001640:	8fa2001c 	lw	v0,28(sp)
80001644:	24420014 	addiu	v0,v0,20
80001648:	24030001 	li	v1,1
8000164c:	ac430000 	sw	v1,0(v0)
80001650:	8fa2001c 	lw	v0,28(sp)
80001654:	2442000c 	addiu	v0,v0,12
80001658:	24030002 	li	v1,2
8000165c:	ac430000 	sw	v1,0(v0)
80001660:	00001021 	move	v0,zero
80001664:	8fbf0024 	lw	ra,36(sp)
80001668:	03e00008 	jr	ra
8000166c:	27bd0028 	addiu	sp,sp,40

80001670 <_ioc_read>:
80001670:	27bdffd8 	addiu	sp,sp,-40
80001674:	afbf0024 	sw	ra,36(sp)
80001678:	afa40028 	sw	a0,40(sp)
8000167c:	afa5002c 	sw	a1,44(sp)
80001680:	afa60030 	sw	a2,48(sp)
80001684:	3c028900 	lui	v0,0x8900
80001688:	24420000 	addiu	v0,v0,0
8000168c:	afa2001c 	sw	v0,28(sp)
80001690:	8fa2001c 	lw	v0,28(sp)
80001694:	2442001c 	addiu	v0,v0,28
80001698:	8c420000 	lw	v0,0(v0)
8000169c:	afa20010 	sw	v0,16(sp)
800016a0:	8fa30010 	lw	v1,16(sp)
800016a4:	8fa20030 	lw	v0,48(sp)
800016a8:	70621802 	mul	v1,v1,v0
800016ac:	8fa2002c 	lw	v0,44(sp)
800016b0:	00621021 	addu	v0,v1,v0
800016b4:	04410003 	bgez	v0,800016c4 <_ioc_read+0x54>
800016b8:	00000000 	nop
800016bc:	080005ea 	j	800017a8 <_ioc_read+0x138>
800016c0:	2402ffff 	li	v0,-1
800016c4:	8fa2002c 	lw	v0,44(sp)
800016c8:	04410015 	bgez	v0,80001720 <_ioc_read+0xb0>
800016cc:	00000000 	nop
800016d0:	080005ea 	j	800017a8 <_ioc_read+0x138>
800016d4:	2402ffff 	li	v0,-1
800016d8:	0c000280 	jal	80000a00 <_proctime>
800016dc:	00000000 	nop
800016e0:	00021100 	sll	v0,v0,0x4
800016e4:	304200ff 	andi	v0,v0,0xff
800016e8:	afa20018 	sw	v0,24(sp)
800016ec:	080005c1 	j	80001704 <_ioc_read+0x94>
800016f0:	afa00014 	sw	zero,20(sp)
800016f4:	00000000 	nop
800016f8:	8fa20014 	lw	v0,20(sp)
800016fc:	24420001 	addiu	v0,v0,1
80001700:	afa20014 	sw	v0,20(sp)
80001704:	8fa30014 	lw	v1,20(sp)
80001708:	8fa20018 	lw	v0,24(sp)
8000170c:	0062102a 	slt	v0,v1,v0
80001710:	1440fff8 	bnez	v0,800016f4 <_ioc_read+0x84>
80001714:	00000000 	nop
80001718:	080005c9 	j	80001724 <_ioc_read+0xb4>
8000171c:	00000000 	nop
80001720:	00000000 	nop
80001724:	3c029200 	lui	v0,0x9200
80001728:	8c420008 	lw	v0,8(v0)
8000172c:	1440ffea 	bnez	v0,800016d8 <_ioc_read+0x68>
80001730:	00000000 	nop
80001734:	3c029200 	lui	v0,0x9200
80001738:	24030001 	li	v1,1
8000173c:	ac430008 	sw	v1,8(v0)
80001740:	8fa3002c 	lw	v1,44(sp)
80001744:	8fa2001c 	lw	v0,28(sp)
80001748:	ac430000 	sw	v1,0(v0)
8000174c:	8fa2001c 	lw	v0,28(sp)
80001750:	24420008 	addiu	v0,v0,8
80001754:	8fa30030 	lw	v1,48(sp)
80001758:	ac430000 	sw	v1,0(v0)
8000175c:	8fa2001c 	lw	v0,28(sp)
80001760:	24420004 	addiu	v0,v0,4
80001764:	8fa30028 	lw	v1,40(sp)
80001768:	ac430000 	sw	v1,0(v0)
8000176c:	8fa2001c 	lw	v0,28(sp)
80001770:	24420014 	addiu	v0,v0,20
80001774:	24030001 	li	v1,1
80001778:	ac430000 	sw	v1,0(v0)
8000177c:	8fa2001c 	lw	v0,28(sp)
80001780:	2442000c 	addiu	v0,v0,12
80001784:	24030001 	li	v1,1
80001788:	ac430000 	sw	v1,0(v0)
8000178c:	8fa30010 	lw	v1,16(sp)
80001790:	8fa20030 	lw	v0,48(sp)
80001794:	70621002 	mul	v0,v1,v0
80001798:	8fa4002c 	lw	a0,44(sp)
8000179c:	0c000298 	jal	80000a60 <_dcache_buf_invalidate>
800017a0:	00402821 	move	a1,v0
800017a4:	00001021 	move	v0,zero
800017a8:	8fbf0024 	lw	ra,36(sp)
800017ac:	03e00008 	jr	ra
800017b0:	27bd0028 	addiu	sp,sp,40

800017b4 <_ioc_completed>:
800017b4:	080005f0 	j	800017c0 <_ioc_completed+0xc>
800017b8:	00000000 	nop
800017bc:	00000000 	nop
800017c0:	3c029200 	lui	v0,0x9200
800017c4:	8c420008 	lw	v0,8(v0)
800017c8:	1440fffc 	bnez	v0,800017bc <_ioc_completed+0x8>
800017cc:	00000000 	nop
800017d0:	3c029200 	lui	v0,0x9200
800017d4:	8c43000c 	lw	v1,12(v0)
800017d8:	24020002 	li	v0,2
800017dc:	10620008 	beq	v1,v0,80001800 <_ioc_completed+0x4c>
800017e0:	00000000 	nop
800017e4:	3c029200 	lui	v0,0x9200
800017e8:	8c43000c 	lw	v1,12(v0)
800017ec:	24020003 	li	v0,3
800017f0:	10620003 	beq	v1,v0,80001800 <_ioc_completed+0x4c>
800017f4:	00000000 	nop
800017f8:	08000601 	j	80001804 <_ioc_completed+0x50>
800017fc:	2402ffff 	li	v0,-1
80001800:	00001021 	move	v0,zero
80001804:	03e00008 	jr	ra
80001808:	00000000 	nop

8000180c <_fb_sync_write>:
8000180c:	27bdfff0 	addiu	sp,sp,-16
80001810:	afa40010 	sw	a0,16(sp)
80001814:	afa50014 	sw	a1,20(sp)
80001818:	afa60018 	sw	a2,24(sp)
8000181c:	3c02ab00 	lui	v0,0xab00
80001820:	24430000 	addiu	v1,v0,0
80001824:	8fa20010 	lw	v0,16(sp)
80001828:	00621021 	addu	v0,v1,v0
8000182c:	afa20008 	sw	v0,8(sp)
80001830:	8fa20014 	lw	v0,20(sp)
80001834:	afa20004 	sw	v0,4(sp)
80001838:	8fa30014 	lw	v1,20(sp)
8000183c:	8fa20018 	lw	v0,24(sp)
80001840:	00621021 	addu	v0,v1,v0
80001844:	04410004 	bgez	v0,80001858 <_fb_sync_write+0x4c>
80001848:	00000000 	nop
8000184c:	2402ffff 	li	v0,-1
80001850:	08000630 	j	800018c0 <_fb_sync_write+0xb4>
80001854:	00000000 	nop
80001858:	8fa20014 	lw	v0,20(sp)
8000185c:	04410004 	bgez	v0,80001870 <_fb_sync_write+0x64>
80001860:	00000000 	nop
80001864:	2402ffff 	li	v0,-1
80001868:	08000630 	j	800018c0 <_fb_sync_write+0xb4>
8000186c:	00000000 	nop
80001870:	afa00000 	sw	zero,0(sp)
80001874:	0800062a 	j	800018a8 <_fb_sync_write+0x9c>
80001878:	00000000 	nop
8000187c:	8fa30008 	lw	v1,8(sp)
80001880:	8fa20000 	lw	v0,0(sp)
80001884:	00621021 	addu	v0,v1,v0
80001888:	8fa40004 	lw	a0,4(sp)
8000188c:	8fa30000 	lw	v1,0(sp)
80001890:	00831821 	addu	v1,a0,v1
80001894:	80630000 	lb	v1,0(v1)
80001898:	a0430000 	sb	v1,0(v0)
8000189c:	8fa20000 	lw	v0,0(sp)
800018a0:	24420001 	addiu	v0,v0,1
800018a4:	afa20000 	sw	v0,0(sp)
800018a8:	8fa30000 	lw	v1,0(sp)
800018ac:	8fa20018 	lw	v0,24(sp)
800018b0:	0062102b 	sltu	v0,v1,v0
800018b4:	1440fff1 	bnez	v0,8000187c <_fb_sync_write+0x70>
800018b8:	00000000 	nop
800018bc:	00001021 	move	v0,zero
800018c0:	27bd0010 	addiu	sp,sp,16
800018c4:	03e00008 	jr	ra
800018c8:	00000000 	nop

800018cc <_fb_sync_read>:
800018cc:	27bdfff0 	addiu	sp,sp,-16
800018d0:	afa40010 	sw	a0,16(sp)
800018d4:	afa50014 	sw	a1,20(sp)
800018d8:	afa60018 	sw	a2,24(sp)
800018dc:	3c02ab00 	lui	v0,0xab00
800018e0:	24430000 	addiu	v1,v0,0
800018e4:	8fa20010 	lw	v0,16(sp)
800018e8:	00621021 	addu	v0,v1,v0
800018ec:	afa20008 	sw	v0,8(sp)
800018f0:	8fa20014 	lw	v0,20(sp)
800018f4:	afa20004 	sw	v0,4(sp)
800018f8:	8fa30014 	lw	v1,20(sp)
800018fc:	8fa20018 	lw	v0,24(sp)
80001900:	00621021 	addu	v0,v1,v0
80001904:	04410004 	bgez	v0,80001918 <_fb_sync_read+0x4c>
80001908:	00000000 	nop
8000190c:	2402ffff 	li	v0,-1
80001910:	08000662 	j	80001988 <_fb_sync_read+0xbc>
80001914:	00000000 	nop
80001918:	8fa20014 	lw	v0,20(sp)
8000191c:	04410004 	bgez	v0,80001930 <_fb_sync_read+0x64>
80001920:	00000000 	nop
80001924:	2402ffff 	li	v0,-1
80001928:	08000662 	j	80001988 <_fb_sync_read+0xbc>
8000192c:	00000000 	nop
80001930:	afa00000 	sw	zero,0(sp)
80001934:	0800065c 	j	80001970 <_fb_sync_read+0xa4>
80001938:	00000000 	nop
8000193c:	8fa30004 	lw	v1,4(sp)
80001940:	8fa20000 	lw	v0,0(sp)
80001944:	00621021 	addu	v0,v1,v0
80001948:	8fa40008 	lw	a0,8(sp)
8000194c:	8fa30000 	lw	v1,0(sp)
80001950:	00831821 	addu	v1,a0,v1
80001954:	90630000 	lbu	v1,0(v1)
80001958:	00031e00 	sll	v1,v1,0x18
8000195c:	00031e03 	sra	v1,v1,0x18
80001960:	a0430000 	sb	v1,0(v0)
80001964:	8fa20000 	lw	v0,0(sp)
80001968:	24420001 	addiu	v0,v0,1
8000196c:	afa20000 	sw	v0,0(sp)
80001970:	8fa30000 	lw	v1,0(sp)
80001974:	8fa20018 	lw	v0,24(sp)
80001978:	0062102b 	sltu	v0,v1,v0
8000197c:	1440ffef 	bnez	v0,8000193c <_fb_sync_read+0x70>
80001980:	00000000 	nop
80001984:	00001021 	move	v0,zero
80001988:	27bd0010 	addiu	sp,sp,16
8000198c:	03e00008 	jr	ra
80001990:	00000000 	nop

80001994 <_fb_write>:
80001994:	27bdffd8 	addiu	sp,sp,-40
80001998:	afbf0024 	sw	ra,36(sp)
8000199c:	afa40028 	sw	a0,40(sp)
800019a0:	afa5002c 	sw	a1,44(sp)
800019a4:	afa60030 	sw	a2,48(sp)
800019a8:	3c02ab00 	lui	v0,0xab00
800019ac:	24430000 	addiu	v1,v0,0
800019b0:	8fa20028 	lw	v0,40(sp)
800019b4:	00621021 	addu	v0,v1,v0
800019b8:	afa2001c 	sw	v0,28(sp)
800019bc:	3c029a00 	lui	v0,0x9a00
800019c0:	24420000 	addiu	v0,v0,0
800019c4:	afa20018 	sw	v0,24(sp)
800019c8:	8fa3002c 	lw	v1,44(sp)
800019cc:	8fa20030 	lw	v0,48(sp)
800019d0:	00621021 	addu	v0,v1,v0
800019d4:	04410003 	bgez	v0,800019e4 <_fb_write+0x50>
800019d8:	00000000 	nop
800019dc:	080006a7 	j	80001a9c <_fb_write+0x108>
800019e0:	2402ffff 	li	v0,-1
800019e4:	8fa2002c 	lw	v0,44(sp)
800019e8:	04410015 	bgez	v0,80001a40 <_fb_write+0xac>
800019ec:	00000000 	nop
800019f0:	080006a7 	j	80001a9c <_fb_write+0x108>
800019f4:	2402ffff 	li	v0,-1
800019f8:	0c000280 	jal	80000a00 <_proctime>
800019fc:	00000000 	nop
80001a00:	00021100 	sll	v0,v0,0x4
80001a04:	304200ff 	andi	v0,v0,0xff
80001a08:	afa20014 	sw	v0,20(sp)
80001a0c:	08000689 	j	80001a24 <_fb_write+0x90>
80001a10:	afa00010 	sw	zero,16(sp)
80001a14:	00000000 	nop
80001a18:	8fa20010 	lw	v0,16(sp)
80001a1c:	24420001 	addiu	v0,v0,1
80001a20:	afa20010 	sw	v0,16(sp)
80001a24:	8fa30010 	lw	v1,16(sp)
80001a28:	8fa20014 	lw	v0,20(sp)
80001a2c:	0062102a 	slt	v0,v1,v0
80001a30:	1440fff8 	bnez	v0,80001a14 <_fb_write+0x80>
80001a34:	00000000 	nop
80001a38:	08000691 	j	80001a44 <_fb_write+0xb0>
80001a3c:	00000000 	nop
80001a40:	00000000 	nop
80001a44:	3c029200 	lui	v0,0x9200
80001a48:	8c420000 	lw	v0,0(v0)
80001a4c:	1440ffea 	bnez	v0,800019f8 <_fb_write+0x64>
80001a50:	00000000 	nop
80001a54:	3c029200 	lui	v0,0x9200
80001a58:	24030001 	li	v1,1
80001a5c:	ac430000 	sw	v1,0(v0)
80001a60:	8fa20018 	lw	v0,24(sp)
80001a64:	24420010 	addiu	v0,v0,16
80001a68:	ac400000 	sw	zero,0(v0)
80001a6c:	8fa3002c 	lw	v1,44(sp)
80001a70:	8fa20018 	lw	v0,24(sp)
80001a74:	ac430000 	sw	v1,0(v0)
80001a78:	8fa20018 	lw	v0,24(sp)
80001a7c:	24420004 	addiu	v0,v0,4
80001a80:	8fa3001c 	lw	v1,28(sp)
80001a84:	ac430000 	sw	v1,0(v0)
80001a88:	8fa20018 	lw	v0,24(sp)
80001a8c:	24420008 	addiu	v0,v0,8
80001a90:	8fa30030 	lw	v1,48(sp)
80001a94:	ac430000 	sw	v1,0(v0)
80001a98:	00001021 	move	v0,zero
80001a9c:	8fbf0024 	lw	ra,36(sp)
80001aa0:	03e00008 	jr	ra
80001aa4:	27bd0028 	addiu	sp,sp,40

80001aa8 <_fb_read>:
80001aa8:	27bdffd8 	addiu	sp,sp,-40
80001aac:	afbf0024 	sw	ra,36(sp)
80001ab0:	afa40028 	sw	a0,40(sp)
80001ab4:	afa5002c 	sw	a1,44(sp)
80001ab8:	afa60030 	sw	a2,48(sp)
80001abc:	3c02ab00 	lui	v0,0xab00
80001ac0:	24430000 	addiu	v1,v0,0
80001ac4:	8fa20028 	lw	v0,40(sp)
80001ac8:	00621021 	addu	v0,v1,v0
80001acc:	afa2001c 	sw	v0,28(sp)
80001ad0:	3c029a00 	lui	v0,0x9a00
80001ad4:	24420000 	addiu	v0,v0,0
80001ad8:	afa20018 	sw	v0,24(sp)
80001adc:	8fa3002c 	lw	v1,44(sp)
80001ae0:	8fa20030 	lw	v0,48(sp)
80001ae4:	00621021 	addu	v0,v1,v0
80001ae8:	04410003 	bgez	v0,80001af8 <_fb_read+0x50>
80001aec:	00000000 	nop
80001af0:	080006ef 	j	80001bbc <_fb_read+0x114>
80001af4:	2402ffff 	li	v0,-1
80001af8:	8fa2002c 	lw	v0,44(sp)
80001afc:	04410015 	bgez	v0,80001b54 <_fb_read+0xac>
80001b00:	00000000 	nop
80001b04:	080006ef 	j	80001bbc <_fb_read+0x114>
80001b08:	2402ffff 	li	v0,-1
80001b0c:	0c000280 	jal	80000a00 <_proctime>
80001b10:	00000000 	nop
80001b14:	00021100 	sll	v0,v0,0x4
80001b18:	304200ff 	andi	v0,v0,0xff
80001b1c:	afa20014 	sw	v0,20(sp)
80001b20:	080006ce 	j	80001b38 <_fb_read+0x90>
80001b24:	afa00010 	sw	zero,16(sp)
80001b28:	00000000 	nop
80001b2c:	8fa20010 	lw	v0,16(sp)
80001b30:	24420001 	addiu	v0,v0,1
80001b34:	afa20010 	sw	v0,16(sp)
80001b38:	8fa30010 	lw	v1,16(sp)
80001b3c:	8fa20014 	lw	v0,20(sp)
80001b40:	0062102a 	slt	v0,v1,v0
80001b44:	1440fff8 	bnez	v0,80001b28 <_fb_read+0x80>
80001b48:	00000000 	nop
80001b4c:	080006d6 	j	80001b58 <_fb_read+0xb0>
80001b50:	00000000 	nop
80001b54:	00000000 	nop
80001b58:	3c029200 	lui	v0,0x9200
80001b5c:	8c420000 	lw	v0,0(v0)
80001b60:	1440ffea 	bnez	v0,80001b0c <_fb_read+0x64>
80001b64:	00000000 	nop
80001b68:	3c029200 	lui	v0,0x9200
80001b6c:	24030001 	li	v1,1
80001b70:	ac430000 	sw	v1,0(v0)
80001b74:	8fa20018 	lw	v0,24(sp)
80001b78:	24420010 	addiu	v0,v0,16
80001b7c:	ac400000 	sw	zero,0(v0)
80001b80:	8fa3001c 	lw	v1,28(sp)
80001b84:	8fa20018 	lw	v0,24(sp)
80001b88:	ac430000 	sw	v1,0(v0)
80001b8c:	8fa20018 	lw	v0,24(sp)
80001b90:	24420004 	addiu	v0,v0,4
80001b94:	8fa3002c 	lw	v1,44(sp)
80001b98:	ac430000 	sw	v1,0(v0)
80001b9c:	8fa20018 	lw	v0,24(sp)
80001ba0:	24420008 	addiu	v0,v0,8
80001ba4:	8fa30030 	lw	v1,48(sp)
80001ba8:	ac430000 	sw	v1,0(v0)
80001bac:	8fa4002c 	lw	a0,44(sp)
80001bb0:	0c000298 	jal	80000a60 <_dcache_buf_invalidate>
80001bb4:	8fa50030 	lw	a1,48(sp)
80001bb8:	00001021 	move	v0,zero
80001bbc:	8fbf0024 	lw	ra,36(sp)
80001bc0:	03e00008 	jr	ra
80001bc4:	27bd0028 	addiu	sp,sp,40

80001bc8 <_fb_completed>:
80001bc8:	080006f5 	j	80001bd4 <_fb_completed+0xc>
80001bcc:	00000000 	nop
80001bd0:	00000000 	nop
80001bd4:	3c029200 	lui	v0,0x9200
80001bd8:	8c420000 	lw	v0,0(v0)
80001bdc:	1440fffc 	bnez	v0,80001bd0 <_fb_completed+0x8>
80001be0:	00000000 	nop
80001be4:	3c029200 	lui	v0,0x9200
80001be8:	8c420004 	lw	v0,4(v0)
80001bec:	14400003 	bnez	v0,80001bfc <_fb_completed+0x34>
80001bf0:	00000000 	nop
80001bf4:	08000700 	j	80001c00 <_fb_completed+0x38>
80001bf8:	00001021 	move	v0,zero
80001bfc:	2402ffff 	li	v0,-1
80001c00:	03e00008 	jr	ra
80001c04:	00000000 	nop

80001c08 <_isr_dma>:
80001c08:	3c049a00 	lui	a0,0x9a00
80001c0c:	24840000 	addiu	a0,a0,0
80001c10:	8c850008 	lw	a1,8(a0)
80001c14:	3c069200 	lui	a2,0x9200
80001c18:	24c60004 	addiu	a2,a2,4
80001c1c:	acc50000 	sw	a1,0(a2)
80001c20:	3c069200 	lui	a2,0x9200
80001c24:	24c60000 	addiu	a2,a2,0
80001c28:	acc00000 	sw	zero,0(a2)
80001c2c:	03e00008 	jr	ra
80001c30:	ac80000c 	sw	zero,12(a0)

80001c34 <_isr_ioc>:
80001c34:	3c048900 	lui	a0,0x8900
80001c38:	24840000 	addiu	a0,a0,0
80001c3c:	8c850010 	lw	a1,16(a0)
80001c40:	3c069200 	lui	a2,0x9200
80001c44:	24c6000c 	addiu	a2,a2,12
80001c48:	acc50000 	sw	a1,0(a2)
80001c4c:	3c069200 	lui	a2,0x9200
80001c50:	24c60008 	addiu	a2,a2,8
80001c54:	03e00008 	jr	ra
80001c58:	acc00000 	sw	zero,0(a2)

80001c5c <_isr_timer>:
80001c5c:	27bdffec 	addiu	sp,sp,-20
80001c60:	afbf0010 	sw	ra,16(sp)
80001c64:	40047801 	mfc0	a0,$15,1
80001c68:	30840007 	andi	a0,a0,0x7
80001c6c:	00042900 	sll	a1,a0,0x4
80001c70:	3c068800 	lui	a2,0x8800
80001c74:	24c60000 	addiu	a2,a2,0
80001c78:	00c53020 	add	a2,a2,a1
80001c7c:	acc0000c 	sw	zero,12(a2)
80001c80:	3c048000 	lui	a0,0x8000
80001c84:	24841cd0 	addiu	a0,a0,7376
80001c88:	0c000374 	jal	80000dd0 <_tty_write>
80001c8c:	24050028 	li	a1,40
80001c90:	40044800 	mfc0	a0,c0_count
80001c94:	3c058000 	lui	a1,0x8000
80001c98:	24a51cfa 	addiu	a1,a1,7418
80001c9c:	0c0002b4 	jal	80000ad0 <_itoa_dec>
80001ca0:	00000000 	nop
80001ca4:	3c048000 	lui	a0,0x8000
80001ca8:	24841cfa 	addiu	a0,a0,7418
80001cac:	0c000374 	jal	80000dd0 <_tty_write>
80001cb0:	2405000a 	li	a1,10
80001cb4:	3c048000 	lui	a0,0x8000
80001cb8:	24841cf8 	addiu	a0,a0,7416
80001cbc:	0c000374 	jal	80000dd0 <_tty_write>
80001cc0:	24050002 	li	a1,2
80001cc4:	8fbf0010 	lw	ra,16(sp)
80001cc8:	03e00008 	jr	ra
80001ccc:	27bd0014 	addiu	sp,sp,20

80001cd0 <message_timer_begin>:
80001cd0:	2121210a 	addi	at,t1,8458
80001cd4:	746e6920 	jalx	81b9a480 <_isr_switch+0x1b986f4>
80001cd8:	75727265 	jalx	85c9c994 <_isr_switch+0x5c9ac08>
80001cdc:	74207470 	jalx	8081d1c0 <_isr_switch+0x81b434>
80001ce0:	72656d69 	0x72656d69
80001ce4:	63657220 	0x63657220
80001ce8:	65766965 	0x65766965
80001cec:	74612064 	jalx	81848190 <_isr_switch+0x1846404>
80001cf0:	63796320 	0x63796320
80001cf4:	203a656c 	addi	k0,at,25964

80001cf8 <message_timer_end>:
80001cf8:	30300a0a 	andi	s0,at,0xa0a

80001cfa <isr_timer_buffer>:
80001cfa:	30303030 	andi	s0,at,0x3030
80001cfe:	30303030 	andi	s0,at,0x3030
80001d02:	07483030 	tgei	k0,12336

80001d04 <_isr_tty_get_task0>:
80001d04:	08000748 	j	80001d20 <tty_get_start>
80001d08:	24040000 	li	a0,0

80001d0c <_isr_tty_get_task1>:
80001d0c:	08000748 	j	80001d20 <tty_get_start>
80001d10:	24040001 	li	a0,1

80001d14 <_isr_tty_get_task2>:
80001d14:	08000748 	j	80001d20 <tty_get_start>
80001d18:	24040002 	li	a0,2

80001d1c <_isr_tty_get_task3>:
80001d1c:	24040003 	li	a0,3

80001d20 <tty_get_start>:
80001d20:	40057801 	mfc0	a1,$15,1
80001d24:	30a50007 	andi	a1,a1,0x7
80001d28:	3c061000 	lui	a2,0x1000
80001d2c:	00a60018 	mult	a1,a2
80001d30:	00003812 	mflo	a3
80001d34:	00043100 	sll	a2,a0,0x4
80001d38:	00e63021 	addu	a2,a3,a2
80001d3c:	3c070000 	lui	a3,0x0
80001d40:	24e70001 	addiu	a3,a3,1
80001d44:	00a70018 	mult	a1,a3
80001d48:	00003812 	mflo	a3
80001d4c:	00873821 	addu	a3,a0,a3
80001d50:	3c048700 	lui	a0,0x8700
80001d54:	24840000 	addiu	a0,a0,0
80001d58:	00863021 	addu	a2,a0,a2
80001d5c:	80c50008 	lb	a1,8(a2)
80001d60:	3c049200 	lui	a0,0x9200
80001d64:	24840030 	addiu	a0,a0,48
80001d68:	00073080 	sll	a2,a3,0x2
80001d6c:	00863021 	addu	a2,a0,a2
80001d70:	24040001 	li	a0,1
80001d74:	acc40000 	sw	a0,0(a2)
80001d78:	3c049200 	lui	a0,0x9200
80001d7c:	24840010 	addiu	a0,a0,16
80001d80:	00873021 	addu	a2,a0,a3
80001d84:	03e00008 	jr	ra
80001d88:	a0c50000 	sb	a1,0(a2)

80001d8c <_isr_switch>:
80001d8c:	27bdfffc 	addiu	sp,sp,-4
80001d90:	afbf0000 	sw	ra,0(sp)
80001d94:	40047801 	mfc0	a0,$15,1
80001d98:	30840007 	andi	a0,a0,0x7
80001d9c:	00042900 	sll	a1,a0,0x4
80001da0:	3c068800 	lui	a2,0x8800
80001da4:	24c60000 	addiu	a2,a2,0
80001da8:	00c53020 	add	a2,a2,a1
80001dac:	0c0001b9 	jal	800006e4 <_ctx_switch>
80001db0:	acc0000c 	sw	zero,12(a2)
80001db4:	8fbf0000 	lw	ra,0(sp)
80001db8:	03e00008 	jr	ra
80001dbc:	27bd0004 	addiu	sp,sp,4

Disassembly of section seg_kdata:

91000000 <_task_context_array>:
	...

91002000 <_current_task_array>:
	...

91002020 <_task_number_array>:
91002020:	00000001 	movf	zero,zero,$fcc0
91002024:	00000001 	movf	zero,zero,$fcc0
91002028:	00000001 	movf	zero,zero,$fcc0
9100202c:	00000001 	movf	zero,zero,$fcc0
91002030:	00000001 	movf	zero,zero,$fcc0
91002034:	00000001 	movf	zero,zero,$fcc0
91002038:	00000001 	movf	zero,zero,$fcc0
9100203c:	00000001 	movf	zero,zero,$fcc0

Disassembly of section seg_kunc:

92000000 <_dma_busy>:
92000000:	00000000 	nop

92000004 <_dma_status>:
92000004:	00000000 	nop

92000008 <_ioc_busy>:
92000008:	00000000 	nop

9200000c <_ioc_status>:
9200000c:	00000000 	nop

92000010 <_tty_get_buf>:
	...

92000030 <_tty_get_full>:
	...

920000b0 <_tty_put_buf>:
	...

920000d0 <_tty_put_full>:
	...

Disassembly of section seg_code:

20000000 <sys_call>:
20000000:	27bdfff8 	addiu	sp,sp,-8
20000004:	afbf0004 	sw	ra,4(sp)
20000008:	afa40008 	sw	a0,8(sp)
2000000c:	afa5000c 	sw	a1,12(sp)
20000010:	afa60010 	sw	a2,16(sp)
20000014:	afa70014 	sw	a3,20(sp)
20000018:	8fa20008 	lw	v0,8(sp)
2000001c:	8fa4000c 	lw	a0,12(sp)
20000020:	8fa50010 	lw	a1,16(sp)
20000024:	8fa60014 	lw	a2,20(sp)
20000028:	8fa70018 	lw	a3,24(sp)
2000002c:	0000000c 	syscall
20000030:	8fbf0004 	lw	ra,4(sp)
20000034:	03e00008 	jr	ra
20000038:	27bd0008 	addiu	sp,sp,8

2000003c <procid>:
2000003c:	27bdffe0 	addiu	sp,sp,-32
20000040:	afbf001c 	sw	ra,28(sp)
20000044:	afa00010 	sw	zero,16(sp)
20000048:	00002021 	move	a0,zero
2000004c:	00002821 	move	a1,zero
20000050:	00003021 	move	a2,zero
20000054:	00003821 	move	a3,zero
20000058:	0c000000 	jal	20000000 <sys_call>
2000005c:	00000000 	nop
20000060:	8fbf001c 	lw	ra,28(sp)
20000064:	27bd0020 	addiu	sp,sp,32
20000068:	03e00008 	jr	ra
2000006c:	00000000 	nop

20000070 <proctime>:
20000070:	27bdffe0 	addiu	sp,sp,-32
20000074:	afbf001c 	sw	ra,28(sp)
20000078:	afa00010 	sw	zero,16(sp)
2000007c:	24040001 	li	a0,1
20000080:	00002821 	move	a1,zero
20000084:	00003021 	move	a2,zero
20000088:	00003821 	move	a3,zero
2000008c:	0c000000 	jal	20000000 <sys_call>
20000090:	00000000 	nop
20000094:	8fbf001c 	lw	ra,28(sp)
20000098:	27bd0020 	addiu	sp,sp,32
2000009c:	03e00008 	jr	ra
200000a0:	00000000 	nop

200000a4 <exit>:
200000a4:	27bdffd8 	addiu	sp,sp,-40
200000a8:	afbf0024 	sw	ra,36(sp)
200000ac:	0c00000f 	jal	2000003c <procid>
200000b0:	00000000 	nop
200000b4:	afa20018 	sw	v0,24(sp)
200000b8:	afa00010 	sw	zero,16(sp)
200000bc:	2404000e 	li	a0,14
200000c0:	8fa50018 	lw	a1,24(sp)
200000c4:	00003021 	move	a2,zero
200000c8:	00003821 	move	a3,zero
200000cc:	0c000000 	jal	20000000 <sys_call>
200000d0:	00000000 	nop
200000d4:	8fbf0024 	lw	ra,36(sp)
200000d8:	27bd0028 	addiu	sp,sp,40
200000dc:	03e00008 	jr	ra
200000e0:	00000000 	nop

200000e4 <rand>:
200000e4:	27bdffd8 	addiu	sp,sp,-40
200000e8:	afbf0024 	sw	ra,36(sp)
200000ec:	afa00010 	sw	zero,16(sp)
200000f0:	24040001 	li	a0,1
200000f4:	00002821 	move	a1,zero
200000f8:	00003021 	move	a2,zero
200000fc:	00003821 	move	a3,zero
20000100:	0c000000 	jal	20000000 <sys_call>
20000104:	00000000 	nop
20000108:	afa20018 	sw	v0,24(sp)
2000010c:	8fa20018 	lw	v0,24(sp)
20000110:	3042000f 	andi	v0,v0,0xf
20000114:	28420008 	slti	v0,v0,8
20000118:	14400007 	bnez	v0,20000138 <rand+0x54>
2000011c:	00000000 	nop
20000120:	8fa30018 	lw	v1,24(sp)
20000124:	8fa20018 	lw	v0,24(sp)
20000128:	70621002 	mul	v0,v1,v0
2000012c:	3042ffff 	andi	v0,v0,0xffff
20000130:	08000054 	j	20000150 <rand+0x6c>
20000134:	00000000 	nop
20000138:	8fa30018 	lw	v1,24(sp)
2000013c:	8fa20018 	lw	v0,24(sp)
20000140:	70621802 	mul	v1,v1,v0
20000144:	8fa20018 	lw	v0,24(sp)
20000148:	70621002 	mul	v0,v1,v0
2000014c:	3042ffff 	andi	v0,v0,0xffff
20000150:	8fbf0024 	lw	ra,36(sp)
20000154:	27bd0028 	addiu	sp,sp,40
20000158:	03e00008 	jr	ra
2000015c:	00000000 	nop

20000160 <tty_putc>:
20000160:	27bdffe0 	addiu	sp,sp,-32
20000164:	afbf001c 	sw	ra,28(sp)
20000168:	00801021 	move	v0,a0
2000016c:	a3a20020 	sb	v0,32(sp)
20000170:	27a20020 	addiu	v0,sp,32
20000174:	afa00010 	sw	zero,16(sp)
20000178:	24040002 	li	a0,2
2000017c:	00402821 	move	a1,v0
20000180:	24060001 	li	a2,1
20000184:	00003821 	move	a3,zero
20000188:	0c000000 	jal	20000000 <sys_call>
2000018c:	00000000 	nop
20000190:	8fbf001c 	lw	ra,28(sp)
20000194:	27bd0020 	addiu	sp,sp,32
20000198:	03e00008 	jr	ra
2000019c:	00000000 	nop

200001a0 <tty_puts>:
200001a0:	27bdffd8 	addiu	sp,sp,-40
200001a4:	afbf0024 	sw	ra,36(sp)
200001a8:	afa40028 	sw	a0,40(sp)
200001ac:	afa00018 	sw	zero,24(sp)
200001b0:	08000071 	j	200001c4 <tty_puts+0x24>
200001b4:	00000000 	nop
200001b8:	8fa20018 	lw	v0,24(sp)
200001bc:	24420001 	addiu	v0,v0,1
200001c0:	afa20018 	sw	v0,24(sp)
200001c4:	8fa20018 	lw	v0,24(sp)
200001c8:	8fa30028 	lw	v1,40(sp)
200001cc:	00621021 	addu	v0,v1,v0
200001d0:	80420000 	lb	v0,0(v0)
200001d4:	1440fff8 	bnez	v0,200001b8 <tty_puts+0x18>
200001d8:	00000000 	nop
200001dc:	8fa20028 	lw	v0,40(sp)
200001e0:	afa00010 	sw	zero,16(sp)
200001e4:	24040002 	li	a0,2
200001e8:	00402821 	move	a1,v0
200001ec:	8fa60018 	lw	a2,24(sp)
200001f0:	00003821 	move	a3,zero
200001f4:	0c000000 	jal	20000000 <sys_call>
200001f8:	00000000 	nop
200001fc:	8fbf0024 	lw	ra,36(sp)
20000200:	27bd0028 	addiu	sp,sp,40
20000204:	03e00008 	jr	ra
20000208:	00000000 	nop

2000020c <tty_putw>:
2000020c:	27bdffd0 	addiu	sp,sp,-48
20000210:	afbf002c 	sw	ra,44(sp)
20000214:	afa40030 	sw	a0,48(sp)
20000218:	afa00018 	sw	zero,24(sp)
2000021c:	080000ad 	j	200002b4 <tty_putw+0xa8>
20000220:	00000000 	nop
20000224:	24030009 	li	v1,9
20000228:	8fa20018 	lw	v0,24(sp)
2000022c:	00622023 	subu	a0,v1,v0
20000230:	8fa30030 	lw	v1,48(sp)
20000234:	3c026666 	lui	v0,0x6666
20000238:	34426667 	ori	v0,v0,0x6667
2000023c:	00620018 	mult	v1,v0
20000240:	00003012 	mflo	a2
20000244:	00003810 	mfhi	a3
20000248:	00072883 	sra	a1,a3,0x2
2000024c:	000317c3 	sra	v0,v1,0x1f
20000250:	00a21023 	subu	v0,a1,v0
20000254:	00021040 	sll	v0,v0,0x1
20000258:	00022880 	sll	a1,v0,0x2
2000025c:	00451021 	addu	v0,v0,a1
20000260:	00621023 	subu	v0,v1,v0
20000264:	304200ff 	andi	v0,v0,0xff
20000268:	24420030 	addiu	v0,v0,48
2000026c:	304200ff 	andi	v0,v0,0xff
20000270:	00021e00 	sll	v1,v0,0x18
20000274:	00031e03 	sra	v1,v1,0x18
20000278:	27a20018 	addiu	v0,sp,24
2000027c:	00441021 	addu	v0,v0,a0
20000280:	a0430004 	sb	v1,4(v0)
20000284:	8fa20030 	lw	v0,48(sp)
20000288:	3c036666 	lui	v1,0x6666
2000028c:	34636667 	ori	v1,v1,0x6667
20000290:	00430018 	mult	v0,v1
20000294:	00001810 	mfhi	v1
20000298:	00031883 	sra	v1,v1,0x2
2000029c:	000217c3 	sra	v0,v0,0x1f
200002a0:	00621023 	subu	v0,v1,v0
200002a4:	afa20030 	sw	v0,48(sp)
200002a8:	8fa20018 	lw	v0,24(sp)
200002ac:	24420001 	addiu	v0,v0,1
200002b0:	afa20018 	sw	v0,24(sp)
200002b4:	8fa20018 	lw	v0,24(sp)
200002b8:	2842000a 	slti	v0,v0,10
200002bc:	1440ffd9 	bnez	v0,20000224 <tty_putw+0x18>
200002c0:	00000000 	nop
200002c4:	27a2001c 	addiu	v0,sp,28
200002c8:	afa00010 	sw	zero,16(sp)
200002cc:	24040002 	li	a0,2
200002d0:	00402821 	move	a1,v0
200002d4:	2406000a 	li	a2,10
200002d8:	00003821 	move	a3,zero
200002dc:	0c000000 	jal	20000000 <sys_call>
200002e0:	00000000 	nop
200002e4:	8fbf002c 	lw	ra,44(sp)
200002e8:	27bd0030 	addiu	sp,sp,48
200002ec:	03e00008 	jr	ra
200002f0:	00000000 	nop

200002f4 <tty_getc>:
200002f4:	27bdffd8 	addiu	sp,sp,-40
200002f8:	afbf0024 	sw	ra,36(sp)
200002fc:	afa40028 	sw	a0,40(sp)
20000300:	afa00018 	sw	zero,24(sp)
20000304:	080000d6 	j	20000358 <tty_getc+0x64>
20000308:	00000000 	nop
2000030c:	8fa20028 	lw	v0,40(sp)
20000310:	afa00010 	sw	zero,16(sp)
20000314:	24040003 	li	a0,3
20000318:	00402821 	move	a1,v0
2000031c:	24060001 	li	a2,1
20000320:	00003821 	move	a3,zero
20000324:	0c000000 	jal	20000000 <sys_call>
20000328:	00000000 	nop
2000032c:	afa20018 	sw	v0,24(sp)
20000330:	8fa20018 	lw	v0,24(sp)
20000334:	04400005 	bltz	v0,2000034c <tty_getc+0x58>
20000338:	00000000 	nop
2000033c:	8fa20018 	lw	v0,24(sp)
20000340:	28420002 	slti	v0,v0,2
20000344:	14400004 	bnez	v0,20000358 <tty_getc+0x64>
20000348:	00000000 	nop
2000034c:	2402ffff 	li	v0,-1
20000350:	080000da 	j	20000368 <tty_getc+0x74>
20000354:	00000000 	nop
20000358:	8fa20018 	lw	v0,24(sp)
2000035c:	1040ffeb 	beqz	v0,2000030c <tty_getc+0x18>
20000360:	00000000 	nop
20000364:	00001021 	move	v0,zero
20000368:	8fbf0024 	lw	ra,36(sp)
2000036c:	27bd0028 	addiu	sp,sp,40
20000370:	03e00008 	jr	ra
20000374:	00000000 	nop

20000378 <tty_getc_irq>:
20000378:	27bdffd8 	addiu	sp,sp,-40
2000037c:	afbf0024 	sw	ra,36(sp)
20000380:	afa40028 	sw	a0,40(sp)
20000384:	afa00018 	sw	zero,24(sp)
20000388:	080000f7 	j	200003dc <tty_getc_irq+0x64>
2000038c:	00000000 	nop
20000390:	8fa20028 	lw	v0,40(sp)
20000394:	afa00010 	sw	zero,16(sp)
20000398:	2404000a 	li	a0,10
2000039c:	00402821 	move	a1,v0
200003a0:	24060001 	li	a2,1
200003a4:	00003821 	move	a3,zero
200003a8:	0c000000 	jal	20000000 <sys_call>
200003ac:	00000000 	nop
200003b0:	afa20018 	sw	v0,24(sp)
200003b4:	8fa20018 	lw	v0,24(sp)
200003b8:	04400005 	bltz	v0,200003d0 <tty_getc_irq+0x58>
200003bc:	00000000 	nop
200003c0:	8fa20018 	lw	v0,24(sp)
200003c4:	28420002 	slti	v0,v0,2
200003c8:	14400004 	bnez	v0,200003dc <tty_getc_irq+0x64>
200003cc:	00000000 	nop
200003d0:	2402ffff 	li	v0,-1
200003d4:	080000fb 	j	200003ec <tty_getc_irq+0x74>
200003d8:	00000000 	nop
200003dc:	8fa20018 	lw	v0,24(sp)
200003e0:	1040ffeb 	beqz	v0,20000390 <tty_getc_irq+0x18>
200003e4:	00000000 	nop
200003e8:	00001021 	move	v0,zero
200003ec:	8fbf0024 	lw	ra,36(sp)
200003f0:	27bd0028 	addiu	sp,sp,40
200003f4:	03e00008 	jr	ra
200003f8:	00000000 	nop

200003fc <tty_gets_irq>:
200003fc:	27bdffd0 	addiu	sp,sp,-48
20000400:	afbf002c 	sw	ra,44(sp)
20000404:	afa40030 	sw	a0,48(sp)
20000408:	afa50034 	sw	a1,52(sp)
2000040c:	afa00018 	sw	zero,24(sp)
20000410:	08000137 	j	200004dc <tty_gets_irq+0xe0>
20000414:	00000000 	nop
20000418:	27a20020 	addiu	v0,sp,32
2000041c:	afa00010 	sw	zero,16(sp)
20000420:	2404000a 	li	a0,10
20000424:	00402821 	move	a1,v0
20000428:	24060001 	li	a2,1
2000042c:	00003821 	move	a3,zero
20000430:	0c000000 	jal	20000000 <sys_call>
20000434:	00000000 	nop
20000438:	afa2001c 	sw	v0,28(sp)
2000043c:	8fa2001c 	lw	v0,28(sp)
20000440:	04400005 	bltz	v0,20000458 <tty_gets_irq+0x5c>
20000444:	00000000 	nop
20000448:	8fa2001c 	lw	v0,28(sp)
2000044c:	28420002 	slti	v0,v0,2
20000450:	14400004 	bnez	v0,20000464 <tty_gets_irq+0x68>
20000454:	00000000 	nop
20000458:	2402ffff 	li	v0,-1
2000045c:	08000146 	j	20000518 <tty_gets_irq+0x11c>
20000460:	00000000 	nop
20000464:	8fa3001c 	lw	v1,28(sp)
20000468:	24020001 	li	v0,1
2000046c:	1462001b 	bne	v1,v0,200004dc <tty_gets_irq+0xe0>
20000470:	00000000 	nop
20000474:	93a30020 	lbu	v1,32(sp)
20000478:	2402000a 	li	v0,10
2000047c:	10620020 	beq	v1,v0,20000500 <tty_gets_irq+0x104>
20000480:	00000000 	nop
20000484:	93a30020 	lbu	v1,32(sp)
20000488:	2402007f 	li	v0,127
2000048c:	14620009 	bne	v1,v0,200004b4 <tty_gets_irq+0xb8>
20000490:	00000000 	nop
20000494:	8fa20018 	lw	v0,24(sp)
20000498:	10400006 	beqz	v0,200004b4 <tty_gets_irq+0xb8>
2000049c:	00000000 	nop
200004a0:	8fa20018 	lw	v0,24(sp)
200004a4:	2442ffff 	addiu	v0,v0,-1
200004a8:	afa20018 	sw	v0,24(sp)
200004ac:	08000137 	j	200004dc <tty_gets_irq+0xe0>
200004b0:	00000000 	nop
200004b4:	8fa30030 	lw	v1,48(sp)
200004b8:	8fa20018 	lw	v0,24(sp)
200004bc:	00621021 	addu	v0,v1,v0
200004c0:	93a30020 	lbu	v1,32(sp)
200004c4:	00031e00 	sll	v1,v1,0x18
200004c8:	00031e03 	sra	v1,v1,0x18
200004cc:	a0430000 	sb	v1,0(v0)
200004d0:	8fa20018 	lw	v0,24(sp)
200004d4:	24420001 	addiu	v0,v0,1
200004d8:	afa20018 	sw	v0,24(sp)
200004dc:	8fa20034 	lw	v0,52(sp)
200004e0:	2442ffff 	addiu	v0,v0,-1
200004e4:	00401821 	move	v1,v0
200004e8:	8fa20018 	lw	v0,24(sp)
200004ec:	0043102b 	sltu	v0,v0,v1
200004f0:	1440ffc9 	bnez	v0,20000418 <tty_gets_irq+0x1c>
200004f4:	00000000 	nop
200004f8:	08000141 	j	20000504 <tty_gets_irq+0x108>
200004fc:	00000000 	nop
20000500:	00000000 	nop
20000504:	8fa30030 	lw	v1,48(sp)
20000508:	8fa20018 	lw	v0,24(sp)
2000050c:	00621021 	addu	v0,v1,v0
20000510:	a0400000 	sb	zero,0(v0)
20000514:	00001021 	move	v0,zero
20000518:	8fbf002c 	lw	ra,44(sp)
2000051c:	27bd0030 	addiu	sp,sp,48
20000520:	03e00008 	jr	ra
20000524:	00000000 	nop

20000528 <tty_getw_irq>:
20000528:	27bdffa0 	addiu	sp,sp,-96
2000052c:	afbf005c 	sw	ra,92(sp)
20000530:	afa40060 	sw	a0,96(sp)
20000534:	afa00030 	sw	zero,48(sp)
20000538:	afa0002c 	sw	zero,44(sp)
2000053c:	afa00028 	sw	zero,40(sp)
20000540:	afa00024 	sw	zero,36(sp)
20000544:	afa00020 	sw	zero,32(sp)
20000548:	080001c2 	j	20000708 <tty_getw_irq+0x1e0>
2000054c:	00000000 	nop
20000550:	27a20054 	addiu	v0,sp,84
20000554:	afa00010 	sw	zero,16(sp)
20000558:	2404000a 	li	a0,10
2000055c:	00402821 	move	a1,v0
20000560:	24060001 	li	a2,1
20000564:	00003821 	move	a3,zero
20000568:	0c000000 	jal	20000000 <sys_call>
2000056c:	00000000 	nop
20000570:	afa20018 	sw	v0,24(sp)
20000574:	8fa20018 	lw	v0,24(sp)
20000578:	04400005 	bltz	v0,20000590 <tty_getw_irq+0x68>
2000057c:	00000000 	nop
20000580:	8fa20018 	lw	v0,24(sp)
20000584:	28420002 	slti	v0,v0,2
20000588:	14400004 	bnez	v0,2000059c <tty_getw_irq+0x74>
2000058c:	00000000 	nop
20000590:	2402ffff 	li	v0,-1
20000594:	08000206 	j	20000818 <tty_getw_irq+0x2f0>
20000598:	00000000 	nop
2000059c:	8fa30018 	lw	v1,24(sp)
200005a0:	24020001 	li	v0,1
200005a4:	14620058 	bne	v1,v0,20000708 <tty_getw_irq+0x1e0>
200005a8:	00000000 	nop
200005ac:	93a20054 	lbu	v0,84(sp)
200005b0:	2c420030 	sltiu	v0,v0,48
200005b4:	14400015 	bnez	v0,2000060c <tty_getw_irq+0xe4>
200005b8:	00000000 	nop
200005bc:	93a20054 	lbu	v0,84(sp)
200005c0:	2c42003a 	sltiu	v0,v0,58
200005c4:	10400011 	beqz	v0,2000060c <tty_getw_irq+0xe4>
200005c8:	00000000 	nop
200005cc:	8fa20020 	lw	v0,32(sp)
200005d0:	93a30054 	lbu	v1,84(sp)
200005d4:	27a40018 	addiu	a0,sp,24
200005d8:	00821021 	addu	v0,a0,v0
200005dc:	a043001c 	sb	v1,28(v0)
200005e0:	8fa20020 	lw	v0,32(sp)
200005e4:	24420001 	addiu	v0,v0,1
200005e8:	afa20020 	sw	v0,32(sp)
200005ec:	93a20054 	lbu	v0,84(sp)
200005f0:	00021600 	sll	v0,v0,0x18
200005f4:	00021603 	sra	v0,v0,0x18
200005f8:	00402021 	move	a0,v0
200005fc:	0c000058 	jal	20000160 <tty_putc>
20000600:	00000000 	nop
20000604:	080001a2 	j	20000688 <tty_getw_irq+0x160>
20000608:	00000000 	nop
2000060c:	93a30054 	lbu	v1,84(sp)
20000610:	2402000a 	li	v0,10
20000614:	10620005 	beq	v1,v0,2000062c <tty_getw_irq+0x104>
20000618:	00000000 	nop
2000061c:	93a30054 	lbu	v1,84(sp)
20000620:	2402000d 	li	v0,13
20000624:	14620005 	bne	v1,v0,2000063c <tty_getw_irq+0x114>
20000628:	00000000 	nop
2000062c:	24020001 	li	v0,1
20000630:	afa20028 	sw	v0,40(sp)
20000634:	080001a2 	j	20000688 <tty_getw_irq+0x160>
20000638:	00000000 	nop
2000063c:	93a30054 	lbu	v1,84(sp)
20000640:	2402007f 	li	v0,127
20000644:	14620010 	bne	v1,v0,20000688 <tty_getw_irq+0x160>
20000648:	00000000 	nop
2000064c:	8fa20020 	lw	v0,32(sp)
20000650:	1040000d 	beqz	v0,20000688 <tty_getw_irq+0x160>
20000654:	00000000 	nop
20000658:	8fa20020 	lw	v0,32(sp)
2000065c:	2442ffff 	addiu	v0,v0,-1
20000660:	afa20020 	sw	v0,32(sp)
20000664:	24040008 	li	a0,8
20000668:	0c000058 	jal	20000160 <tty_putc>
2000066c:	00000000 	nop
20000670:	24040020 	li	a0,32
20000674:	0c000058 	jal	20000160 <tty_putc>
20000678:	00000000 	nop
2000067c:	24040008 	li	a0,8
20000680:	0c000058 	jal	20000160 <tty_putc>
20000684:	00000000 	nop
20000688:	8fa30020 	lw	v1,32(sp)
2000068c:	24020020 	li	v0,32
20000690:	1462001d 	bne	v1,v0,20000708 <tty_getw_irq+0x1e0>
20000694:	00000000 	nop
20000698:	afa0001c 	sw	zero,28(sp)
2000069c:	080001b5 	j	200006d4 <tty_getw_irq+0x1ac>
200006a0:	00000000 	nop
200006a4:	24040008 	li	a0,8
200006a8:	0c000058 	jal	20000160 <tty_putc>
200006ac:	00000000 	nop
200006b0:	24040020 	li	a0,32
200006b4:	0c000058 	jal	20000160 <tty_putc>
200006b8:	00000000 	nop
200006bc:	24040008 	li	a0,8
200006c0:	0c000058 	jal	20000160 <tty_putc>
200006c4:	00000000 	nop
200006c8:	8fa2001c 	lw	v0,28(sp)
200006cc:	24420001 	addiu	v0,v0,1
200006d0:	afa2001c 	sw	v0,28(sp)
200006d4:	8fa3001c 	lw	v1,28(sp)
200006d8:	8fa20020 	lw	v0,32(sp)
200006dc:	0062102b 	sltu	v0,v1,v0
200006e0:	1440fff0 	bnez	v0,200006a4 <tty_getw_irq+0x17c>
200006e4:	00000000 	nop
200006e8:	24040030 	li	a0,48
200006ec:	0c000058 	jal	20000160 <tty_putc>
200006f0:	00000000 	nop
200006f4:	8fa20060 	lw	v0,96(sp)
200006f8:	ac400000 	sw	zero,0(v0)
200006fc:	00001021 	move	v0,zero
20000700:	08000206 	j	20000818 <tty_getw_irq+0x2f0>
20000704:	00000000 	nop
20000708:	8fa20028 	lw	v0,40(sp)
2000070c:	1040ff90 	beqz	v0,20000550 <tty_getw_irq+0x28>
20000710:	00000000 	nop
20000714:	afa0001c 	sw	zero,28(sp)
20000718:	080001df 	j	2000077c <tty_getw_irq+0x254>
2000071c:	00000000 	nop
20000720:	8fa2002c 	lw	v0,44(sp)
20000724:	00021040 	sll	v0,v0,0x1
20000728:	00021880 	sll	v1,v0,0x2
2000072c:	00431821 	addu	v1,v0,v1
20000730:	8fa2001c 	lw	v0,28(sp)
20000734:	27a40018 	addiu	a0,sp,24
20000738:	00821021 	addu	v0,a0,v0
2000073c:	9042001c 	lbu	v0,28(v0)
20000740:	00621021 	addu	v0,v1,v0
20000744:	2442ffd0 	addiu	v0,v0,-48
20000748:	afa2002c 	sw	v0,44(sp)
2000074c:	8fa3002c 	lw	v1,44(sp)
20000750:	8fa20030 	lw	v0,48(sp)
20000754:	0062102b 	sltu	v0,v1,v0
20000758:	10400003 	beqz	v0,20000768 <tty_getw_irq+0x240>
2000075c:	00000000 	nop
20000760:	24020001 	li	v0,1
20000764:	afa20024 	sw	v0,36(sp)
20000768:	8fa2002c 	lw	v0,44(sp)
2000076c:	afa20030 	sw	v0,48(sp)
20000770:	8fa2001c 	lw	v0,28(sp)
20000774:	24420001 	addiu	v0,v0,1
20000778:	afa2001c 	sw	v0,28(sp)
2000077c:	8fa3001c 	lw	v1,28(sp)
20000780:	8fa20020 	lw	v0,32(sp)
20000784:	0062102b 	sltu	v0,v1,v0
20000788:	1440ffe5 	bnez	v0,20000720 <tty_getw_irq+0x1f8>
2000078c:	00000000 	nop
20000790:	8fa20024 	lw	v0,36(sp)
20000794:	14400006 	bnez	v0,200007b0 <tty_getw_irq+0x288>
20000798:	00000000 	nop
2000079c:	8fa3002c 	lw	v1,44(sp)
200007a0:	8fa20060 	lw	v0,96(sp)
200007a4:	ac430000 	sw	v1,0(v0)
200007a8:	08000205 	j	20000814 <tty_getw_irq+0x2ec>
200007ac:	00000000 	nop
200007b0:	afa0001c 	sw	zero,28(sp)
200007b4:	080001fb 	j	200007ec <tty_getw_irq+0x2c4>
200007b8:	00000000 	nop
200007bc:	24040008 	li	a0,8
200007c0:	0c000058 	jal	20000160 <tty_putc>
200007c4:	00000000 	nop
200007c8:	24040020 	li	a0,32
200007cc:	0c000058 	jal	20000160 <tty_putc>
200007d0:	00000000 	nop
200007d4:	24040008 	li	a0,8
200007d8:	0c000058 	jal	20000160 <tty_putc>
200007dc:	00000000 	nop
200007e0:	8fa2001c 	lw	v0,28(sp)
200007e4:	24420001 	addiu	v0,v0,1
200007e8:	afa2001c 	sw	v0,28(sp)
200007ec:	8fa3001c 	lw	v1,28(sp)
200007f0:	8fa20020 	lw	v0,32(sp)
200007f4:	0062102b 	sltu	v0,v1,v0
200007f8:	1440fff0 	bnez	v0,200007bc <tty_getw_irq+0x294>
200007fc:	00000000 	nop
20000800:	24040030 	li	a0,48
20000804:	0c000058 	jal	20000160 <tty_putc>
20000808:	00000000 	nop
2000080c:	8fa20060 	lw	v0,96(sp)
20000810:	ac400000 	sw	zero,0(v0)
20000814:	00001021 	move	v0,zero
20000818:	8fbf005c 	lw	ra,92(sp)
2000081c:	27bd0060 	addiu	sp,sp,96
20000820:	03e00008 	jr	ra
20000824:	00000000 	nop

20000828 <tty_printf>:
20000828:	27bdffb0 	addiu	sp,sp,-80
2000082c:	afbf004c 	sw	ra,76(sp)
20000830:	afa50054 	sw	a1,84(sp)
20000834:	afa60058 	sw	a2,88(sp)
20000838:	afa7005c 	sw	a3,92(sp)
2000083c:	afa40050 	sw	a0,80(sp)
20000840:	27a20054 	addiu	v0,sp,84
20000844:	afa20030 	sw	v0,48(sp)
20000848:	08000253 	j	2000094c <tty_printf+0x124>
2000084c:	00000000 	nop
20000850:	08000253 	j	2000094c <tty_printf+0x124>
20000854:	00000000 	nop
20000858:	afa0002c 	sw	zero,44(sp)
2000085c:	0800021c 	j	20000870 <tty_printf+0x48>
20000860:	00000000 	nop
20000864:	8fa2002c 	lw	v0,44(sp)
20000868:	24420001 	addiu	v0,v0,1
2000086c:	afa2002c 	sw	v0,44(sp)
20000870:	8fa30050 	lw	v1,80(sp)
20000874:	8fa2002c 	lw	v0,44(sp)
20000878:	00621021 	addu	v0,v1,v0
2000087c:	80420000 	lb	v0,0(v0)
20000880:	10400008 	beqz	v0,200008a4 <tty_printf+0x7c>
20000884:	00000000 	nop
20000888:	8fa30050 	lw	v1,80(sp)
2000088c:	8fa2002c 	lw	v0,44(sp)
20000890:	00621021 	addu	v0,v1,v0
20000894:	80430000 	lb	v1,0(v0)
20000898:	24020025 	li	v0,37
2000089c:	1462fff1 	bne	v1,v0,20000864 <tty_printf+0x3c>
200008a0:	00000000 	nop
200008a4:	8fa2002c 	lw	v0,44(sp)
200008a8:	1040000e 	beqz	v0,200008e4 <tty_printf+0xbc>
200008ac:	00000000 	nop
200008b0:	8fa30050 	lw	v1,80(sp)
200008b4:	8fa2002c 	lw	v0,44(sp)
200008b8:	afa00010 	sw	zero,16(sp)
200008bc:	24040002 	li	a0,2
200008c0:	00602821 	move	a1,v1
200008c4:	00403021 	move	a2,v0
200008c8:	00003821 	move	a3,zero
200008cc:	0c000000 	jal	20000000 <sys_call>
200008d0:	00000000 	nop
200008d4:	8fa30050 	lw	v1,80(sp)
200008d8:	8fa2002c 	lw	v0,44(sp)
200008dc:	00621021 	addu	v0,v1,v0
200008e0:	afa20050 	sw	v0,80(sp)
200008e4:	8fa20050 	lw	v0,80(sp)
200008e8:	80430000 	lb	v1,0(v0)
200008ec:	24020025 	li	v0,37
200008f0:	14620016 	bne	v1,v0,2000094c <tty_printf+0x124>
200008f4:	00000000 	nop
200008f8:	8fa20050 	lw	v0,80(sp)
200008fc:	24420001 	addiu	v0,v0,1
20000900:	afa20050 	sw	v0,80(sp)
20000904:	00000000 	nop
20000908:	8fa20030 	lw	v0,48(sp)
2000090c:	24430004 	addiu	v1,v0,4
20000910:	afa30030 	sw	v1,48(sp)
20000914:	8c420000 	lw	v0,0(v0)
20000918:	afa20028 	sw	v0,40(sp)
2000091c:	afa00020 	sw	zero,32(sp)
20000920:	8fa20050 	lw	v0,80(sp)
20000924:	80420000 	lb	v0,0(v0)
20000928:	8fa30050 	lw	v1,80(sp)
2000092c:	24630001 	addiu	v1,v1,1
20000930:	afa30050 	sw	v1,80(sp)
20000934:	2442ff9d 	addiu	v0,v0,-99
20000938:	2c430016 	sltiu	v1,v0,22
2000093c:	106000aa 	beqz	v1,20000be8 <tty_printf+0x3c0>
20000940:	00000000 	nop
20000944:	0800025c 	j	20000970 <tty_printf+0x148>
20000948:	00000000 	nop
2000094c:	8fa20050 	lw	v0,80(sp)
20000950:	80420000 	lb	v0,0(v0)
20000954:	1440ffc0 	bnez	v0,20000858 <tty_printf+0x30>
20000958:	00000000 	nop
2000095c:	00001021 	move	v0,zero
20000960:	8fbf004c 	lw	ra,76(sp)
20000964:	27bd0050 	addiu	sp,sp,80
20000968:	03e00008 	jr	ra
2000096c:	00000000 	nop
20000970:	00021880 	sll	v1,v0,0x2
20000974:	3c023100 	lui	v0,0x3100
20000978:	2442004c 	addiu	v0,v0,76
2000097c:	00621021 	addu	v0,v1,v0
20000980:	8c420000 	lw	v0,0(v0)
20000984:	00400008 	jr	v0
20000988:	00000000 	nop
2000098c:	24020001 	li	v0,1
20000990:	afa20020 	sw	v0,32(sp)
20000994:	8fa20028 	lw	v0,40(sp)
20000998:	00021600 	sll	v0,v0,0x18
2000099c:	00021603 	sra	v0,v0,0x18
200009a0:	a3a20034 	sb	v0,52(sp)
200009a4:	27a20034 	addiu	v0,sp,52
200009a8:	afa20024 	sw	v0,36(sp)
200009ac:	080002fc 	j	20000bf0 <tty_printf+0x3c8>
200009b0:	00000000 	nop
200009b4:	8fa20028 	lw	v0,40(sp)
200009b8:	0441000d 	bgez	v0,200009f0 <tty_printf+0x1c8>
200009bc:	00000000 	nop
200009c0:	8fa20028 	lw	v0,40(sp)
200009c4:	00021023 	negu	v0,v0
200009c8:	afa20028 	sw	v0,40(sp)
200009cc:	3c023100 	lui	v0,0x3100
200009d0:	24420044 	addiu	v0,v0,68
200009d4:	afa00010 	sw	zero,16(sp)
200009d8:	24040002 	li	a0,2
200009dc:	00402821 	move	a1,v0
200009e0:	24060001 	li	a2,1
200009e4:	00003821 	move	a3,zero
200009e8:	0c000000 	jal	20000000 <sys_call>
200009ec:	00000000 	nop
200009f0:	afa0001c 	sw	zero,28(sp)
200009f4:	080002a4 	j	20000a90 <tty_printf+0x268>
200009f8:	00000000 	nop
200009fc:	24030009 	li	v1,9
20000a00:	8fa2001c 	lw	v0,28(sp)
20000a04:	00622023 	subu	a0,v1,v0
20000a08:	8fa30028 	lw	v1,40(sp)
20000a0c:	3c026666 	lui	v0,0x6666
20000a10:	34426667 	ori	v0,v0,0x6667
20000a14:	00620018 	mult	v1,v0
20000a18:	00001010 	mfhi	v0
20000a1c:	00022883 	sra	a1,v0,0x2
20000a20:	000317c3 	sra	v0,v1,0x1f
20000a24:	00a21023 	subu	v0,a1,v0
20000a28:	00021040 	sll	v0,v0,0x1
20000a2c:	00022880 	sll	a1,v0,0x2
20000a30:	00451021 	addu	v0,v0,a1
20000a34:	00621023 	subu	v0,v1,v0
20000a38:	3c033100 	lui	v1,0x3100
20000a3c:	246300a4 	addiu	v1,v1,164
20000a40:	00431021 	addu	v0,v0,v1
20000a44:	80430000 	lb	v1,0(v0)
20000a48:	27a20018 	addiu	v0,sp,24
20000a4c:	00441021 	addu	v0,v0,a0
20000a50:	a043001c 	sb	v1,28(v0)
20000a54:	8fa20028 	lw	v0,40(sp)
20000a58:	3c036666 	lui	v1,0x6666
20000a5c:	34636667 	ori	v1,v1,0x6667
20000a60:	00430018 	mult	v0,v1
20000a64:	00001810 	mfhi	v1
20000a68:	00031883 	sra	v1,v1,0x2
20000a6c:	000217c3 	sra	v0,v0,0x1f
20000a70:	00621023 	subu	v0,v1,v0
20000a74:	afa20028 	sw	v0,40(sp)
20000a78:	8fa20028 	lw	v0,40(sp)
20000a7c:	1040000a 	beqz	v0,20000aa8 <tty_printf+0x280>
20000a80:	00000000 	nop
20000a84:	8fa2001c 	lw	v0,28(sp)
20000a88:	24420001 	addiu	v0,v0,1
20000a8c:	afa2001c 	sw	v0,28(sp)
20000a90:	8fa2001c 	lw	v0,28(sp)
20000a94:	2c42000a 	sltiu	v0,v0,10
20000a98:	1440ffd8 	bnez	v0,200009fc <tty_printf+0x1d4>
20000a9c:	00000000 	nop
20000aa0:	080002ab 	j	20000aac <tty_printf+0x284>
20000aa4:	00000000 	nop
20000aa8:	00000000 	nop
20000aac:	8fa2001c 	lw	v0,28(sp)
20000ab0:	24420001 	addiu	v0,v0,1
20000ab4:	afa20020 	sw	v0,32(sp)
20000ab8:	24030009 	li	v1,9
20000abc:	8fa2001c 	lw	v0,28(sp)
20000ac0:	00621023 	subu	v0,v1,v0
20000ac4:	27a30034 	addiu	v1,sp,52
20000ac8:	00621021 	addu	v0,v1,v0
20000acc:	afa20024 	sw	v0,36(sp)
20000ad0:	080002fc 	j	20000bf0 <tty_printf+0x3c8>
20000ad4:	00000000 	nop
20000ad8:	3c023100 	lui	v0,0x3100
20000adc:	24420048 	addiu	v0,v0,72
20000ae0:	afa00010 	sw	zero,16(sp)
20000ae4:	24040002 	li	a0,2
20000ae8:	00402821 	move	a1,v0
20000aec:	24060002 	li	a2,2
20000af0:	00003821 	move	a3,zero
20000af4:	0c000000 	jal	20000000 <sys_call>
20000af8:	00000000 	nop
20000afc:	afa0001c 	sw	zero,28(sp)
20000b00:	080002d7 	j	20000b5c <tty_printf+0x334>
20000b04:	00000000 	nop
20000b08:	24030007 	li	v1,7
20000b0c:	8fa2001c 	lw	v0,28(sp)
20000b10:	00621023 	subu	v0,v1,v0
20000b14:	8fa30028 	lw	v1,40(sp)
20000b18:	3064000f 	andi	a0,v1,0xf
20000b1c:	3c033100 	lui	v1,0x3100
20000b20:	246300a4 	addiu	v1,v1,164
20000b24:	00831821 	addu	v1,a0,v1
20000b28:	80630000 	lb	v1,0(v1)
20000b2c:	27a40018 	addiu	a0,sp,24
20000b30:	00821021 	addu	v0,a0,v0
20000b34:	a043001c 	sb	v1,28(v0)
20000b38:	8fa20028 	lw	v0,40(sp)
20000b3c:	00021102 	srl	v0,v0,0x4
20000b40:	afa20028 	sw	v0,40(sp)
20000b44:	8fa20028 	lw	v0,40(sp)
20000b48:	1040000a 	beqz	v0,20000b74 <tty_printf+0x34c>
20000b4c:	00000000 	nop
20000b50:	8fa2001c 	lw	v0,28(sp)
20000b54:	24420001 	addiu	v0,v0,1
20000b58:	afa2001c 	sw	v0,28(sp)
20000b5c:	8fa2001c 	lw	v0,28(sp)
20000b60:	2c420008 	sltiu	v0,v0,8
20000b64:	1440ffe8 	bnez	v0,20000b08 <tty_printf+0x2e0>
20000b68:	00000000 	nop
20000b6c:	080002de 	j	20000b78 <tty_printf+0x350>
20000b70:	00000000 	nop
20000b74:	00000000 	nop
20000b78:	8fa2001c 	lw	v0,28(sp)
20000b7c:	24420001 	addiu	v0,v0,1
20000b80:	afa20020 	sw	v0,32(sp)
20000b84:	24030007 	li	v1,7
20000b88:	8fa2001c 	lw	v0,28(sp)
20000b8c:	00621023 	subu	v0,v1,v0
20000b90:	27a30034 	addiu	v1,sp,52
20000b94:	00621021 	addu	v0,v1,v0
20000b98:	afa20024 	sw	v0,36(sp)
20000b9c:	080002fc 	j	20000bf0 <tty_printf+0x3c8>
20000ba0:	00000000 	nop
20000ba4:	8fa20028 	lw	v0,40(sp)
20000ba8:	afa20018 	sw	v0,24(sp)
20000bac:	080002f0 	j	20000bc0 <tty_printf+0x398>
20000bb0:	00000000 	nop
20000bb4:	8fa20020 	lw	v0,32(sp)
20000bb8:	24420001 	addiu	v0,v0,1
20000bbc:	afa20020 	sw	v0,32(sp)
20000bc0:	8fa30018 	lw	v1,24(sp)
20000bc4:	8fa20020 	lw	v0,32(sp)
20000bc8:	00621021 	addu	v0,v1,v0
20000bcc:	80420000 	lb	v0,0(v0)
20000bd0:	1440fff8 	bnez	v0,20000bb4 <tty_printf+0x38c>
20000bd4:	00000000 	nop
20000bd8:	8fa20028 	lw	v0,40(sp)
20000bdc:	afa20024 	sw	v0,36(sp)
20000be0:	080002fc 	j	20000bf0 <tty_printf+0x3c8>
20000be4:	00000000 	nop
20000be8:	08000214 	j	20000850 <tty_printf+0x28>
20000bec:	00000000 	nop
20000bf0:	8fa30024 	lw	v1,36(sp)
20000bf4:	8fa20020 	lw	v0,32(sp)
20000bf8:	afa00010 	sw	zero,16(sp)
20000bfc:	24040002 	li	a0,2
20000c00:	00602821 	move	a1,v1
20000c04:	00403021 	move	a2,v0
20000c08:	00003821 	move	a3,zero
20000c0c:	0c000000 	jal	20000000 <sys_call>
20000c10:	00000000 	nop
20000c14:	08000214 	j	20000850 <tty_printf+0x28>
20000c18:	00000000 	nop

20000c1c <timer_set_mode>:
20000c1c:	27bdffe0 	addiu	sp,sp,-32
20000c20:	afbf001c 	sw	ra,28(sp)
20000c24:	afa40020 	sw	a0,32(sp)
20000c28:	afa50024 	sw	a1,36(sp)
20000c2c:	afa00010 	sw	zero,16(sp)
20000c30:	24040004 	li	a0,4
20000c34:	8fa50020 	lw	a1,32(sp)
20000c38:	24060001 	li	a2,1
20000c3c:	8fa70024 	lw	a3,36(sp)
20000c40:	0c000000 	jal	20000000 <sys_call>
20000c44:	00000000 	nop
20000c48:	8fbf001c 	lw	ra,28(sp)
20000c4c:	27bd0020 	addiu	sp,sp,32
20000c50:	03e00008 	jr	ra
20000c54:	00000000 	nop

20000c58 <timer_set_period>:
20000c58:	27bdffe0 	addiu	sp,sp,-32
20000c5c:	afbf001c 	sw	ra,28(sp)
20000c60:	afa40020 	sw	a0,32(sp)
20000c64:	afa50024 	sw	a1,36(sp)
20000c68:	afa00010 	sw	zero,16(sp)
20000c6c:	24040004 	li	a0,4
20000c70:	8fa50020 	lw	a1,32(sp)
20000c74:	24060002 	li	a2,2
20000c78:	8fa70024 	lw	a3,36(sp)
20000c7c:	0c000000 	jal	20000000 <sys_call>
20000c80:	00000000 	nop
20000c84:	8fbf001c 	lw	ra,28(sp)
20000c88:	27bd0020 	addiu	sp,sp,32
20000c8c:	03e00008 	jr	ra
20000c90:	00000000 	nop

20000c94 <timer_reset_irq>:
20000c94:	27bdffe0 	addiu	sp,sp,-32
20000c98:	afbf001c 	sw	ra,28(sp)
20000c9c:	afa40020 	sw	a0,32(sp)
20000ca0:	afa00010 	sw	zero,16(sp)
20000ca4:	24040004 	li	a0,4
20000ca8:	8fa50020 	lw	a1,32(sp)
20000cac:	24060003 	li	a2,3
20000cb0:	00003821 	move	a3,zero
20000cb4:	0c000000 	jal	20000000 <sys_call>
20000cb8:	00000000 	nop
20000cbc:	8fbf001c 	lw	ra,28(sp)
20000cc0:	27bd0020 	addiu	sp,sp,32
20000cc4:	03e00008 	jr	ra
20000cc8:	00000000 	nop

20000ccc <timer_get_time>:
20000ccc:	27bdffe0 	addiu	sp,sp,-32
20000cd0:	afbf001c 	sw	ra,28(sp)
20000cd4:	afa40020 	sw	a0,32(sp)
20000cd8:	afa50024 	sw	a1,36(sp)
20000cdc:	8fa20024 	lw	v0,36(sp)
20000ce0:	afa00010 	sw	zero,16(sp)
20000ce4:	24040005 	li	a0,5
20000ce8:	8fa50020 	lw	a1,32(sp)
20000cec:	00003021 	move	a2,zero
20000cf0:	00403821 	move	a3,v0
20000cf4:	0c000000 	jal	20000000 <sys_call>
20000cf8:	00000000 	nop
20000cfc:	8fbf001c 	lw	ra,28(sp)
20000d00:	27bd0020 	addiu	sp,sp,32
20000d04:	03e00008 	jr	ra
20000d08:	00000000 	nop

20000d0c <gcd_set_opa>:
20000d0c:	27bdffe0 	addiu	sp,sp,-32
20000d10:	afbf001c 	sw	ra,28(sp)
20000d14:	afa40020 	sw	a0,32(sp)
20000d18:	afa00010 	sw	zero,16(sp)
20000d1c:	24040006 	li	a0,6
20000d20:	00002821 	move	a1,zero
20000d24:	8fa60020 	lw	a2,32(sp)
20000d28:	00003821 	move	a3,zero
20000d2c:	0c000000 	jal	20000000 <sys_call>
20000d30:	00000000 	nop
20000d34:	8fbf001c 	lw	ra,28(sp)
20000d38:	27bd0020 	addiu	sp,sp,32
20000d3c:	03e00008 	jr	ra
20000d40:	00000000 	nop

20000d44 <gcd_set_opb>:
20000d44:	27bdffe0 	addiu	sp,sp,-32
20000d48:	afbf001c 	sw	ra,28(sp)
20000d4c:	afa40020 	sw	a0,32(sp)
20000d50:	afa00010 	sw	zero,16(sp)
20000d54:	24040006 	li	a0,6
20000d58:	24050001 	li	a1,1
20000d5c:	8fa60020 	lw	a2,32(sp)
20000d60:	00003821 	move	a3,zero
20000d64:	0c000000 	jal	20000000 <sys_call>
20000d68:	00000000 	nop
20000d6c:	8fbf001c 	lw	ra,28(sp)
20000d70:	27bd0020 	addiu	sp,sp,32
20000d74:	03e00008 	jr	ra
20000d78:	00000000 	nop

20000d7c <gcd_start>:
20000d7c:	27bdffe0 	addiu	sp,sp,-32
20000d80:	afbf001c 	sw	ra,28(sp)
20000d84:	afa40020 	sw	a0,32(sp)
20000d88:	afa00010 	sw	zero,16(sp)
20000d8c:	24040006 	li	a0,6
20000d90:	24050002 	li	a1,2
20000d94:	00003021 	move	a2,zero
20000d98:	00003821 	move	a3,zero
20000d9c:	0c000000 	jal	20000000 <sys_call>
20000da0:	00000000 	nop
20000da4:	8fbf001c 	lw	ra,28(sp)
20000da8:	27bd0020 	addiu	sp,sp,32
20000dac:	03e00008 	jr	ra
20000db0:	00000000 	nop

20000db4 <gcd_get_status>:
20000db4:	27bdffe0 	addiu	sp,sp,-32
20000db8:	afbf001c 	sw	ra,28(sp)
20000dbc:	afa40020 	sw	a0,32(sp)
20000dc0:	8fa20020 	lw	v0,32(sp)
20000dc4:	afa00010 	sw	zero,16(sp)
20000dc8:	24040007 	li	a0,7
20000dcc:	24050003 	li	a1,3
20000dd0:	00403021 	move	a2,v0
20000dd4:	00003821 	move	a3,zero
20000dd8:	0c000000 	jal	20000000 <sys_call>
20000ddc:	00000000 	nop
20000de0:	8fbf001c 	lw	ra,28(sp)
20000de4:	27bd0020 	addiu	sp,sp,32
20000de8:	03e00008 	jr	ra
20000dec:	00000000 	nop

20000df0 <gcd_get_result>:
20000df0:	27bdffe0 	addiu	sp,sp,-32
20000df4:	afbf001c 	sw	ra,28(sp)
20000df8:	afa40020 	sw	a0,32(sp)
20000dfc:	8fa20020 	lw	v0,32(sp)
20000e00:	afa00010 	sw	zero,16(sp)
20000e04:	24040007 	li	a0,7
20000e08:	00002821 	move	a1,zero
20000e0c:	00403021 	move	a2,v0
20000e10:	00003821 	move	a3,zero
20000e14:	0c000000 	jal	20000000 <sys_call>
20000e18:	00000000 	nop
20000e1c:	8fbf001c 	lw	ra,28(sp)
20000e20:	27bd0020 	addiu	sp,sp,32
20000e24:	03e00008 	jr	ra
20000e28:	00000000 	nop

20000e2c <icu_set_mask>:
20000e2c:	27bdffe0 	addiu	sp,sp,-32
20000e30:	afbf001c 	sw	ra,28(sp)
20000e34:	afa40020 	sw	a0,32(sp)
20000e38:	afa00010 	sw	zero,16(sp)
20000e3c:	24040008 	li	a0,8
20000e40:	24050002 	li	a1,2
20000e44:	8fa60020 	lw	a2,32(sp)
20000e48:	00003821 	move	a3,zero
20000e4c:	0c000000 	jal	20000000 <sys_call>
20000e50:	00000000 	nop
20000e54:	8fbf001c 	lw	ra,28(sp)
20000e58:	27bd0020 	addiu	sp,sp,32
20000e5c:	03e00008 	jr	ra
20000e60:	00000000 	nop

20000e64 <icu_clear_mask>:
20000e64:	27bdffe0 	addiu	sp,sp,-32
20000e68:	afbf001c 	sw	ra,28(sp)
20000e6c:	afa40020 	sw	a0,32(sp)
20000e70:	afa00010 	sw	zero,16(sp)
20000e74:	24040008 	li	a0,8
20000e78:	24050003 	li	a1,3
20000e7c:	8fa60020 	lw	a2,32(sp)
20000e80:	00003821 	move	a3,zero
20000e84:	0c000000 	jal	20000000 <sys_call>
20000e88:	00000000 	nop
20000e8c:	8fbf001c 	lw	ra,28(sp)
20000e90:	27bd0020 	addiu	sp,sp,32
20000e94:	03e00008 	jr	ra
20000e98:	00000000 	nop

20000e9c <icu_get_mask>:
20000e9c:	27bdffe0 	addiu	sp,sp,-32
20000ea0:	afbf001c 	sw	ra,28(sp)
20000ea4:	afa40020 	sw	a0,32(sp)
20000ea8:	8fa20020 	lw	v0,32(sp)
20000eac:	afa00010 	sw	zero,16(sp)
20000eb0:	24040009 	li	a0,9
20000eb4:	24050001 	li	a1,1
20000eb8:	00403021 	move	a2,v0
20000ebc:	00003821 	move	a3,zero
20000ec0:	0c000000 	jal	20000000 <sys_call>
20000ec4:	00000000 	nop
20000ec8:	8fbf001c 	lw	ra,28(sp)
20000ecc:	27bd0020 	addiu	sp,sp,32
20000ed0:	03e00008 	jr	ra
20000ed4:	00000000 	nop

20000ed8 <icu_get_irqs>:
20000ed8:	27bdffe0 	addiu	sp,sp,-32
20000edc:	afbf001c 	sw	ra,28(sp)
20000ee0:	afa40020 	sw	a0,32(sp)
20000ee4:	8fa20020 	lw	v0,32(sp)
20000ee8:	afa00010 	sw	zero,16(sp)
20000eec:	24040009 	li	a0,9
20000ef0:	00002821 	move	a1,zero
20000ef4:	00403021 	move	a2,v0
20000ef8:	00003821 	move	a3,zero
20000efc:	0c000000 	jal	20000000 <sys_call>
20000f00:	00000000 	nop
20000f04:	8fbf001c 	lw	ra,28(sp)
20000f08:	27bd0020 	addiu	sp,sp,32
20000f0c:	03e00008 	jr	ra
20000f10:	00000000 	nop

20000f14 <icu_get_index>:
20000f14:	27bdffe0 	addiu	sp,sp,-32
20000f18:	afbf001c 	sw	ra,28(sp)
20000f1c:	afa40020 	sw	a0,32(sp)
20000f20:	8fa20020 	lw	v0,32(sp)
20000f24:	afa00010 	sw	zero,16(sp)
20000f28:	24040009 	li	a0,9
20000f2c:	24050004 	li	a1,4
20000f30:	00403021 	move	a2,v0
20000f34:	00003821 	move	a3,zero
20000f38:	0c000000 	jal	20000000 <sys_call>
20000f3c:	00000000 	nop
20000f40:	8fbf001c 	lw	ra,28(sp)
20000f44:	27bd0020 	addiu	sp,sp,32
20000f48:	03e00008 	jr	ra
20000f4c:	00000000 	nop

20000f50 <lock_acquire>:
20000f50:	27bdffe0 	addiu	sp,sp,-32
20000f54:	afbf001c 	sw	ra,28(sp)
20000f58:	afa40020 	sw	a0,32(sp)
20000f5c:	afa00010 	sw	zero,16(sp)
20000f60:	2404000d 	li	a0,13
20000f64:	8fa50020 	lw	a1,32(sp)
20000f68:	00003021 	move	a2,zero
20000f6c:	00003821 	move	a3,zero
20000f70:	0c000000 	jal	20000000 <sys_call>
20000f74:	00000000 	nop
20000f78:	8fbf001c 	lw	ra,28(sp)
20000f7c:	27bd0020 	addiu	sp,sp,32
20000f80:	03e00008 	jr	ra
20000f84:	00000000 	nop

20000f88 <lock_release>:
20000f88:	27bdffe0 	addiu	sp,sp,-32
20000f8c:	afbf001c 	sw	ra,28(sp)
20000f90:	afa40020 	sw	a0,32(sp)
20000f94:	afa00010 	sw	zero,16(sp)
20000f98:	2404000c 	li	a0,12
20000f9c:	8fa50020 	lw	a1,32(sp)
20000fa0:	00003021 	move	a2,zero
20000fa4:	00003821 	move	a3,zero
20000fa8:	0c000000 	jal	20000000 <sys_call>
20000fac:	00000000 	nop
20000fb0:	8fbf001c 	lw	ra,28(sp)
20000fb4:	27bd0020 	addiu	sp,sp,32
20000fb8:	03e00008 	jr	ra
20000fbc:	00000000 	nop

20000fc0 <ioc_write>:
20000fc0:	27bdffe0 	addiu	sp,sp,-32
20000fc4:	afbf001c 	sw	ra,28(sp)
20000fc8:	afa40020 	sw	a0,32(sp)
20000fcc:	afa50024 	sw	a1,36(sp)
20000fd0:	afa60028 	sw	a2,40(sp)
20000fd4:	8fa50020 	lw	a1,32(sp)
20000fd8:	8fa30024 	lw	v1,36(sp)
20000fdc:	8fa20028 	lw	v0,40(sp)
20000fe0:	afa00010 	sw	zero,16(sp)
20000fe4:	24040015 	li	a0,21
20000fe8:	00603021 	move	a2,v1
20000fec:	00403821 	move	a3,v0
20000ff0:	0c000000 	jal	20000000 <sys_call>
20000ff4:	00000000 	nop
20000ff8:	8fbf001c 	lw	ra,28(sp)
20000ffc:	27bd0020 	addiu	sp,sp,32
20001000:	03e00008 	jr	ra
20001004:	00000000 	nop

20001008 <ioc_read>:
20001008:	27bdffe0 	addiu	sp,sp,-32
2000100c:	afbf001c 	sw	ra,28(sp)
20001010:	afa40020 	sw	a0,32(sp)
20001014:	afa50024 	sw	a1,36(sp)
20001018:	afa60028 	sw	a2,40(sp)
2000101c:	8fa50020 	lw	a1,32(sp)
20001020:	8fa30024 	lw	v1,36(sp)
20001024:	8fa20028 	lw	v0,40(sp)
20001028:	afa00010 	sw	zero,16(sp)
2000102c:	24040016 	li	a0,22
20001030:	00603021 	move	a2,v1
20001034:	00403821 	move	a3,v0
20001038:	0c000000 	jal	20000000 <sys_call>
2000103c:	00000000 	nop
20001040:	8fbf001c 	lw	ra,28(sp)
20001044:	27bd0020 	addiu	sp,sp,32
20001048:	03e00008 	jr	ra
2000104c:	00000000 	nop

20001050 <ioc_completed>:
20001050:	27bdffe0 	addiu	sp,sp,-32
20001054:	afbf001c 	sw	ra,28(sp)
20001058:	afa00010 	sw	zero,16(sp)
2000105c:	24040017 	li	a0,23
20001060:	00002821 	move	a1,zero
20001064:	00003021 	move	a2,zero
20001068:	00003821 	move	a3,zero
2000106c:	0c000000 	jal	20000000 <sys_call>
20001070:	00000000 	nop
20001074:	8fbf001c 	lw	ra,28(sp)
20001078:	27bd0020 	addiu	sp,sp,32
2000107c:	03e00008 	jr	ra
20001080:	00000000 	nop

20001084 <fb_sync_write>:
20001084:	27bdffe0 	addiu	sp,sp,-32
20001088:	afbf001c 	sw	ra,28(sp)
2000108c:	afa40020 	sw	a0,32(sp)
20001090:	afa50024 	sw	a1,36(sp)
20001094:	afa60028 	sw	a2,40(sp)
20001098:	8fa50020 	lw	a1,32(sp)
2000109c:	8fa30024 	lw	v1,36(sp)
200010a0:	8fa20028 	lw	v0,40(sp)
200010a4:	afa00010 	sw	zero,16(sp)
200010a8:	24040010 	li	a0,16
200010ac:	00603021 	move	a2,v1
200010b0:	00403821 	move	a3,v0
200010b4:	0c000000 	jal	20000000 <sys_call>
200010b8:	00000000 	nop
200010bc:	8fbf001c 	lw	ra,28(sp)
200010c0:	27bd0020 	addiu	sp,sp,32
200010c4:	03e00008 	jr	ra
200010c8:	00000000 	nop

200010cc <fb_sync_read>:
200010cc:	27bdffe0 	addiu	sp,sp,-32
200010d0:	afbf001c 	sw	ra,28(sp)
200010d4:	afa40020 	sw	a0,32(sp)
200010d8:	afa50024 	sw	a1,36(sp)
200010dc:	afa60028 	sw	a2,40(sp)
200010e0:	8fa50020 	lw	a1,32(sp)
200010e4:	8fa30024 	lw	v1,36(sp)
200010e8:	8fa20028 	lw	v0,40(sp)
200010ec:	afa00010 	sw	zero,16(sp)
200010f0:	24040011 	li	a0,17
200010f4:	00603021 	move	a2,v1
200010f8:	00403821 	move	a3,v0
200010fc:	0c000000 	jal	20000000 <sys_call>
20001100:	00000000 	nop
20001104:	8fbf001c 	lw	ra,28(sp)
20001108:	27bd0020 	addiu	sp,sp,32
2000110c:	03e00008 	jr	ra
20001110:	00000000 	nop

20001114 <fb_write>:
20001114:	27bdffe0 	addiu	sp,sp,-32
20001118:	afbf001c 	sw	ra,28(sp)
2000111c:	afa40020 	sw	a0,32(sp)
20001120:	afa50024 	sw	a1,36(sp)
20001124:	afa60028 	sw	a2,40(sp)
20001128:	8fa50020 	lw	a1,32(sp)
2000112c:	8fa30024 	lw	v1,36(sp)
20001130:	8fa20028 	lw	v0,40(sp)
20001134:	afa00010 	sw	zero,16(sp)
20001138:	24040012 	li	a0,18
2000113c:	00603021 	move	a2,v1
20001140:	00403821 	move	a3,v0
20001144:	0c000000 	jal	20000000 <sys_call>
20001148:	00000000 	nop
2000114c:	8fbf001c 	lw	ra,28(sp)
20001150:	27bd0020 	addiu	sp,sp,32
20001154:	03e00008 	jr	ra
20001158:	00000000 	nop

2000115c <fb_read>:
2000115c:	27bdffe0 	addiu	sp,sp,-32
20001160:	afbf001c 	sw	ra,28(sp)
20001164:	afa40020 	sw	a0,32(sp)
20001168:	afa50024 	sw	a1,36(sp)
2000116c:	afa60028 	sw	a2,40(sp)
20001170:	8fa50020 	lw	a1,32(sp)
20001174:	8fa30024 	lw	v1,36(sp)
20001178:	8fa20028 	lw	v0,40(sp)
2000117c:	afa00010 	sw	zero,16(sp)
20001180:	24040013 	li	a0,19
20001184:	00603021 	move	a2,v1
20001188:	00403821 	move	a3,v0
2000118c:	0c000000 	jal	20000000 <sys_call>
20001190:	00000000 	nop
20001194:	8fbf001c 	lw	ra,28(sp)
20001198:	27bd0020 	addiu	sp,sp,32
2000119c:	03e00008 	jr	ra
200011a0:	00000000 	nop

200011a4 <fb_completed>:
200011a4:	27bdffe0 	addiu	sp,sp,-32
200011a8:	afbf001c 	sw	ra,28(sp)
200011ac:	afa00010 	sw	zero,16(sp)
200011b0:	24040014 	li	a0,20
200011b4:	00002821 	move	a1,zero
200011b8:	00003021 	move	a2,zero
200011bc:	00003821 	move	a3,zero
200011c0:	0c000000 	jal	20000000 <sys_call>
200011c4:	00000000 	nop
200011c8:	8fbf001c 	lw	ra,28(sp)
200011cc:	27bd0020 	addiu	sp,sp,32
200011d0:	03e00008 	jr	ra
200011d4:	00000000 	nop

200011d8 <main>:
200011d8:	27bdffe0 	addiu	sp,sp,-32
200011dc:	afbf001c 	sw	ra,28(sp)
200011e0:	3c023100 	lui	v0,0x3100
200011e4:	244400b8 	addiu	a0,v0,184
200011e8:	0c000068 	jal	200001a0 <tty_puts>
200011ec:	00000000 	nop
200011f0:	27a20010 	addiu	v0,sp,16
200011f4:	00402021 	move	a0,v0
200011f8:	0c0000de 	jal	20000378 <tty_getc_irq>
200011fc:	00000000 	nop
20001200:	08000478 	j	200011e0 <main+0x8>
20001204:	00000000 	nop

Disassembly of section seg_reset:

bfc00000 <reset>:
bfc00000:	3c1b0400 	lui	k1,0x400
bfc00004:	277b0000 	addiu	k1,k1,0
bfc00008:	401a7801 	mfc0	k0,$15,1
bfc0000c:	334a0007 	andi	t2,k0,0x7
bfc00010:	001a5f00 	sll	t3,k0,0x1c
bfc00014:	036bd821 	addu	k1,k1,t3
bfc00018:	3c1a0001 	lui	k0,0x1
bfc0001c:	037ae821 	addu	sp,k1,k0
bfc00020:	3c1a8000 	lui	k0,0x8000
bfc00024:	275a03e8 	addiu	k0,k0,1000
bfc00028:	3c1b8000 	lui	k1,0x8000
bfc0002c:	277b1c5c 	addiu	k1,k1,7260
bfc00030:	af5b0000 	sw	k1,0(k0)
bfc00034:	3c1b8000 	lui	k1,0x8000
bfc00038:	277b1d04 	addiu	k1,k1,7428
bfc0003c:	af5b0004 	sw	k1,4(k0)
bfc00040:	3c1b8000 	lui	k1,0x8000
bfc00044:	277b1c34 	addiu	k1,k1,7220
bfc00048:	af5b0008 	sw	k1,8(k0)
bfc0004c:	3c1b8000 	lui	k1,0x8000
bfc00050:	277b1c08 	addiu	k1,k1,7176
bfc00054:	af5b000c 	sw	k1,12(k0)
bfc00058:	3c1b8600 	lui	k1,0x8600
bfc0005c:	277b0000 	addiu	k1,k1,0
bfc00060:	036bd821 	addu	k1,k1,t3
bfc00064:	241a000f 	li	k0,15
bfc00068:	af7a0008 	sw	k0,8(k1)
bfc0006c:	3c1abfc0 	lui	k0,0xbfc0
bfc00070:	275a0090 	addiu	k0,k0,144
bfc00074:	000ad880 	sll	k1,t2,0x2
bfc00078:	035bd021 	addu	k0,k0,k1
bfc0007c:	8f5b0000 	lw	k1,0(k0)
bfc00080:	409b7000 	mtc0	k1,c0_epc
bfc00084:	341aff13 	li	k0,0xff13
bfc00088:	409a6000 	mtc0	k0,c0_status
bfc0008c:	42000018 	eret

bfc00090 <tab_main>:
bfc00090:	200011d8 	addi	zero,zero,4568
bfc00094:	200011d8 	addi	zero,zero,4568
bfc00098:	200011d8 	addi	zero,zero,4568
bfc0009c:	200011d8 	addi	zero,zero,4568
bfc000a0:	200000a4 	addi	zero,zero,164
bfc000a4:	200000a4 	addi	zero,zero,164
bfc000a8:	200000a4 	addi	zero,zero,164
bfc000ac:	200000a4 	addi	zero,zero,164

Disassembly of section seg_data:

31000000 <HexaTab.1151-0xa4>:
31000000:	33323130 	andi	s2,t9,0x3130
31000004:	37363534 	ori	s6,t9,0x3534
31000008:	00003938 	0x3938
3100000c:	33323130 	andi	s2,t9,0x3130
31000010:	37363534 	ori	s6,t9,0x3534
31000014:	42413938 	c0	0x413938
31000018:	00004443 	sra	t0,zero,0x11
3100001c:	21210a0a 	addi	at,t1,2570
31000020:	45202021 	0x45202021
31000024:	20746978 	addi	s4,v1,27000
31000028:	6f725020 	0x6f725020
3100002c:	73736563 	0x73736563
31000030:	2020726f 	addi	zero,at,29295
31000034:	20202020 	addi	zero,at,8224
31000038:	20202020 	addi	zero,at,8224
3100003c:	0a212121 	j	38848484 <HexaTab.1151+0x78483e0>
31000040:	00000000 	nop
31000044:	0000002d 	0x2d
31000048:	00007830 	tge	zero,zero,0x1e0
3100004c:	2000098c 	addi	zero,zero,2444
31000050:	200009b4 	addi	zero,zero,2484
31000054:	20000be8 	addi	zero,zero,3048
31000058:	20000be8 	addi	zero,zero,3048
3100005c:	20000be8 	addi	zero,zero,3048
31000060:	20000be8 	addi	zero,zero,3048
31000064:	20000be8 	addi	zero,zero,3048
31000068:	20000be8 	addi	zero,zero,3048
3100006c:	20000be8 	addi	zero,zero,3048
31000070:	20000be8 	addi	zero,zero,3048
31000074:	20000be8 	addi	zero,zero,3048
31000078:	20000be8 	addi	zero,zero,3048
3100007c:	20000be8 	addi	zero,zero,3048
31000080:	20000be8 	addi	zero,zero,3048
31000084:	20000be8 	addi	zero,zero,3048
31000088:	20000be8 	addi	zero,zero,3048
3100008c:	20000ba4 	addi	zero,zero,2980
31000090:	20000be8 	addi	zero,zero,3048
31000094:	200009f0 	addi	zero,zero,2544
31000098:	20000be8 	addi	zero,zero,3048
3100009c:	20000be8 	addi	zero,zero,3048
310000a0:	20000ad8 	addi	zero,zero,2776

310000a4 <HexaTab.1151>:
310000a4:	33323130 	andi	s2,t9,0x3130
310000a8:	37363534 	ori	s6,t9,0x3534
310000ac:	42413938 	c0	0x413938
310000b0:	46454443 	c1	0x454443
310000b4:	00000000 	nop
310000b8:	6c6c6568 	0x6c6c6568
310000bc:	6f77206f 	0x6f77206f
310000c0:	0a646c72 	j	3991b1c8 <HexaTab.1151+0x891b124>
310000c4:	00000000 	nop

Disassembly of section .reginfo:

00000000 <.reginfo>:
   0:	3c000c00 	lui	zero,0xc00
	...

Disassembly of section .pdr:

00000000 <.pdr>:
   0:	bfc00000 	cache	0x0,0(s8)
	...
  20:	80000180 	lb	zero,384(zero)
	...
  40:	800008e8 	lb	zero,2280(zero)
	...
  54:	00000010 	mfhi	zero
  58:	0000001d 	0x1d
  5c:	0000001f 	0x1f
  60:	800009e4 	lb	zero,2532(zero)
	...
  74:	00000008 	jr	zero
  78:	0000001d 	0x1d
  7c:	0000001f 	0x1f
  80:	80000a00 	lb	zero,2560(zero)
	...
  94:	00000008 	jr	zero
  98:	0000001d 	0x1d
  9c:	0000001f 	0x1f
  a0:	80000a18 	lb	zero,2584(zero)
	...
  b4:	00000008 	jr	zero
  b8:	0000001d 	0x1d
  bc:	0000001f 	0x1f
  c0:	80000a3c 	lb	zero,2620(zero)
	...
  d4:	00000008 	jr	zero
  d8:	0000001d 	0x1d
  dc:	0000001f 	0x1f
  e0:	80000a60 	lb	zero,2656(zero)
	...
  f4:	00000008 	jr	zero
  f8:	0000001d 	0x1d
  fc:	0000001f 	0x1f
 100:	80000ad0 	lb	zero,2768(zero)
	...
 114:	00000010 	mfhi	zero
 118:	0000001d 	0x1d
 11c:	0000001f 	0x1f
 120:	80000bdc 	lb	zero,3036(zero)
	...
 134:	00000018 	mult	zero,zero
 138:	0000001d 	0x1d
 13c:	0000001f 	0x1f
 140:	80000cb4 	lb	zero,3252(zero)
	...
 154:	00000008 	jr	zero
 158:	0000001d 	0x1d
 15c:	0000001f 	0x1f
 160:	80000d40 	lb	zero,3392(zero)
	...
 174:	00000008 	jr	zero
 178:	0000001d 	0x1d
 17c:	0000001f 	0x1f
 180:	80000dd0 	lb	zero,3536(zero)
 184:	80000000 	lb	zero,0(zero)
 188:	fffffffc 	sdc3	$31,-4(ra)
	...
 194:	00000038 	0x38
 198:	0000001d 	0x1d
 19c:	0000001f 	0x1f
 1a0:	80000f18 	lb	zero,3864(zero)
 1a4:	80000000 	lb	zero,0(zero)
 1a8:	fffffffc 	sdc3	$31,-4(ra)
	...
 1b4:	00000030 	tge	zero,zero
 1b8:	0000001d 	0x1d
 1bc:	0000001f 	0x1f
 1c0:	80001058 	lb	zero,4184(zero)
 1c4:	80000000 	lb	zero,0(zero)
 1c8:	fffffffc 	sdc3	$31,-4(ra)
	...
 1d4:	00000030 	tge	zero,zero
 1d8:	0000001d 	0x1d
 1dc:	0000001f 	0x1f
 1e0:	80001180 	lb	zero,4480(zero)
 1e4:	80000000 	lb	zero,0(zero)
 1e8:	fffffffc 	sdc3	$31,-4(ra)
	...
 1f4:	00000048 	0x48
 1f8:	0000001d 	0x1d
 1fc:	0000001f 	0x1f
 200:	80001240 	lb	zero,4672(zero)
 204:	80000000 	lb	zero,0(zero)
 208:	fffffffc 	sdc3	$31,-4(ra)
	...
 214:	00000020 	add	zero,zero,zero
 218:	0000001d 	0x1d
 21c:	0000001f 	0x1f
 220:	800012d8 	lb	zero,4824(zero)
 224:	80000000 	lb	zero,0(zero)
 228:	fffffffc 	sdc3	$31,-4(ra)
	...
 234:	00000020 	add	zero,zero,zero
 238:	0000001d 	0x1d
 23c:	0000001f 	0x1f
 240:	80001374 	lb	zero,4980(zero)
	...
 254:	00000008 	jr	zero
 258:	0000001d 	0x1d
 25c:	0000001f 	0x1f
 260:	800013d0 	lb	zero,5072(zero)
	...
 274:	00000008 	jr	zero
 278:	0000001d 	0x1d
 27c:	0000001f 	0x1f
 280:	80001430 	lb	zero,5168(zero)
	...
 294:	00000008 	jr	zero
 298:	0000001d 	0x1d
 29c:	0000001f 	0x1f
 2a0:	80001494 	lb	zero,5268(zero)
 2a4:	80000000 	lb	zero,0(zero)
 2a8:	fffffffc 	sdc3	$31,-4(ra)
	...
 2b4:	00000028 	0x28
 2b8:	0000001d 	0x1d
 2bc:	0000001f 	0x1f
 2c0:	80001544 	lb	zero,5444(zero)
 2c4:	80000000 	lb	zero,0(zero)
 2c8:	fffffffc 	sdc3	$31,-4(ra)
	...
 2d4:	00000028 	0x28
 2d8:	0000001d 	0x1d
 2dc:	0000001f 	0x1f
 2e0:	80001670 	lb	zero,5744(zero)
 2e4:	80000000 	lb	zero,0(zero)
 2e8:	fffffffc 	sdc3	$31,-4(ra)
	...
 2f4:	00000028 	0x28
 2f8:	0000001d 	0x1d
 2fc:	0000001f 	0x1f
 300:	800017b4 	lb	zero,6068(zero)
	...
 318:	0000001d 	0x1d
 31c:	0000001f 	0x1f
 320:	8000180c 	lb	zero,6156(zero)
	...
 334:	00000010 	mfhi	zero
 338:	0000001d 	0x1d
 33c:	0000001f 	0x1f
 340:	800018cc 	lb	zero,6348(zero)
	...
 354:	00000010 	mfhi	zero
 358:	0000001d 	0x1d
 35c:	0000001f 	0x1f
 360:	80001994 	lb	zero,6548(zero)
 364:	80000000 	lb	zero,0(zero)
 368:	fffffffc 	sdc3	$31,-4(ra)
	...
 374:	00000028 	0x28
 378:	0000001d 	0x1d
 37c:	0000001f 	0x1f
 380:	80001aa8 	lb	zero,6824(zero)
 384:	80000000 	lb	zero,0(zero)
 388:	fffffffc 	sdc3	$31,-4(ra)
	...
 394:	00000028 	0x28
 398:	0000001d 	0x1d
 39c:	0000001f 	0x1f
 3a0:	80001bc8 	lb	zero,7112(zero)
	...
 3b8:	0000001d 	0x1d
 3bc:	0000001f 	0x1f
 3c0:	20000000 	addi	zero,zero,0
 3c4:	80000000 	lb	zero,0(zero)
 3c8:	fffffffc 	sdc3	$31,-4(ra)
	...
 3d4:	00000008 	jr	zero
 3d8:	0000001d 	0x1d
 3dc:	0000001f 	0x1f
 3e0:	2000003c 	addi	zero,zero,60
 3e4:	80000000 	lb	zero,0(zero)
 3e8:	fffffffc 	sdc3	$31,-4(ra)
	...
 3f4:	00000020 	add	zero,zero,zero
 3f8:	0000001d 	0x1d
 3fc:	0000001f 	0x1f
 400:	20000070 	addi	zero,zero,112
 404:	80000000 	lb	zero,0(zero)
 408:	fffffffc 	sdc3	$31,-4(ra)
	...
 414:	00000020 	add	zero,zero,zero
 418:	0000001d 	0x1d
 41c:	0000001f 	0x1f
 420:	200000a4 	addi	zero,zero,164
 424:	80000000 	lb	zero,0(zero)
 428:	fffffffc 	sdc3	$31,-4(ra)
	...
 434:	00000028 	0x28
 438:	0000001d 	0x1d
 43c:	0000001f 	0x1f
 440:	200000e4 	addi	zero,zero,228
 444:	80000000 	lb	zero,0(zero)
 448:	fffffffc 	sdc3	$31,-4(ra)
	...
 454:	00000028 	0x28
 458:	0000001d 	0x1d
 45c:	0000001f 	0x1f
 460:	20000160 	addi	zero,zero,352
 464:	80000000 	lb	zero,0(zero)
 468:	fffffffc 	sdc3	$31,-4(ra)
	...
 474:	00000020 	add	zero,zero,zero
 478:	0000001d 	0x1d
 47c:	0000001f 	0x1f
 480:	200001a0 	addi	zero,zero,416
 484:	80000000 	lb	zero,0(zero)
 488:	fffffffc 	sdc3	$31,-4(ra)
	...
 494:	00000028 	0x28
 498:	0000001d 	0x1d
 49c:	0000001f 	0x1f
 4a0:	2000020c 	addi	zero,zero,524
 4a4:	80000000 	lb	zero,0(zero)
 4a8:	fffffffc 	sdc3	$31,-4(ra)
	...
 4b4:	00000030 	tge	zero,zero
 4b8:	0000001d 	0x1d
 4bc:	0000001f 	0x1f
 4c0:	200002f4 	addi	zero,zero,756
 4c4:	80000000 	lb	zero,0(zero)
 4c8:	fffffffc 	sdc3	$31,-4(ra)
	...
 4d4:	00000028 	0x28
 4d8:	0000001d 	0x1d
 4dc:	0000001f 	0x1f
 4e0:	20000378 	addi	zero,zero,888
 4e4:	80000000 	lb	zero,0(zero)
 4e8:	fffffffc 	sdc3	$31,-4(ra)
	...
 4f4:	00000028 	0x28
 4f8:	0000001d 	0x1d
 4fc:	0000001f 	0x1f
 500:	200003fc 	addi	zero,zero,1020
 504:	80000000 	lb	zero,0(zero)
 508:	fffffffc 	sdc3	$31,-4(ra)
	...
 514:	00000030 	tge	zero,zero
 518:	0000001d 	0x1d
 51c:	0000001f 	0x1f
 520:	20000528 	addi	zero,zero,1320
 524:	80000000 	lb	zero,0(zero)
 528:	fffffffc 	sdc3	$31,-4(ra)
	...
 534:	00000060 	0x60
 538:	0000001d 	0x1d
 53c:	0000001f 	0x1f
 540:	20000828 	addi	zero,zero,2088
 544:	80000000 	lb	zero,0(zero)
 548:	fffffffc 	sdc3	$31,-4(ra)
	...
 554:	00000050 	0x50
 558:	0000001d 	0x1d
 55c:	0000001f 	0x1f
 560:	20000c1c 	addi	zero,zero,3100
 564:	80000000 	lb	zero,0(zero)
 568:	fffffffc 	sdc3	$31,-4(ra)
	...
 574:	00000020 	add	zero,zero,zero
 578:	0000001d 	0x1d
 57c:	0000001f 	0x1f
 580:	20000c58 	addi	zero,zero,3160
 584:	80000000 	lb	zero,0(zero)
 588:	fffffffc 	sdc3	$31,-4(ra)
	...
 594:	00000020 	add	zero,zero,zero
 598:	0000001d 	0x1d
 59c:	0000001f 	0x1f
 5a0:	20000c94 	addi	zero,zero,3220
 5a4:	80000000 	lb	zero,0(zero)
 5a8:	fffffffc 	sdc3	$31,-4(ra)
	...
 5b4:	00000020 	add	zero,zero,zero
 5b8:	0000001d 	0x1d
 5bc:	0000001f 	0x1f
 5c0:	20000ccc 	addi	zero,zero,3276
 5c4:	80000000 	lb	zero,0(zero)
 5c8:	fffffffc 	sdc3	$31,-4(ra)
	...
 5d4:	00000020 	add	zero,zero,zero
 5d8:	0000001d 	0x1d
 5dc:	0000001f 	0x1f
 5e0:	20000d0c 	addi	zero,zero,3340
 5e4:	80000000 	lb	zero,0(zero)
 5e8:	fffffffc 	sdc3	$31,-4(ra)
	...
 5f4:	00000020 	add	zero,zero,zero
 5f8:	0000001d 	0x1d
 5fc:	0000001f 	0x1f
 600:	20000d44 	addi	zero,zero,3396
 604:	80000000 	lb	zero,0(zero)
 608:	fffffffc 	sdc3	$31,-4(ra)
	...
 614:	00000020 	add	zero,zero,zero
 618:	0000001d 	0x1d
 61c:	0000001f 	0x1f
 620:	20000d7c 	addi	zero,zero,3452
 624:	80000000 	lb	zero,0(zero)
 628:	fffffffc 	sdc3	$31,-4(ra)
	...
 634:	00000020 	add	zero,zero,zero
 638:	0000001d 	0x1d
 63c:	0000001f 	0x1f
 640:	20000db4 	addi	zero,zero,3508
 644:	80000000 	lb	zero,0(zero)
 648:	fffffffc 	sdc3	$31,-4(ra)
	...
 654:	00000020 	add	zero,zero,zero
 658:	0000001d 	0x1d
 65c:	0000001f 	0x1f
 660:	20000df0 	addi	zero,zero,3568
 664:	80000000 	lb	zero,0(zero)
 668:	fffffffc 	sdc3	$31,-4(ra)
	...
 674:	00000020 	add	zero,zero,zero
 678:	0000001d 	0x1d
 67c:	0000001f 	0x1f
 680:	20000e2c 	addi	zero,zero,3628
 684:	80000000 	lb	zero,0(zero)
 688:	fffffffc 	sdc3	$31,-4(ra)
	...
 694:	00000020 	add	zero,zero,zero
 698:	0000001d 	0x1d
 69c:	0000001f 	0x1f
 6a0:	20000e64 	addi	zero,zero,3684
 6a4:	80000000 	lb	zero,0(zero)
 6a8:	fffffffc 	sdc3	$31,-4(ra)
	...
 6b4:	00000020 	add	zero,zero,zero
 6b8:	0000001d 	0x1d
 6bc:	0000001f 	0x1f
 6c0:	20000e9c 	addi	zero,zero,3740
 6c4:	80000000 	lb	zero,0(zero)
 6c8:	fffffffc 	sdc3	$31,-4(ra)
	...
 6d4:	00000020 	add	zero,zero,zero
 6d8:	0000001d 	0x1d
 6dc:	0000001f 	0x1f
 6e0:	20000ed8 	addi	zero,zero,3800
 6e4:	80000000 	lb	zero,0(zero)
 6e8:	fffffffc 	sdc3	$31,-4(ra)
	...
 6f4:	00000020 	add	zero,zero,zero
 6f8:	0000001d 	0x1d
 6fc:	0000001f 	0x1f
 700:	20000f14 	addi	zero,zero,3860
 704:	80000000 	lb	zero,0(zero)
 708:	fffffffc 	sdc3	$31,-4(ra)
	...
 714:	00000020 	add	zero,zero,zero
 718:	0000001d 	0x1d
 71c:	0000001f 	0x1f
 720:	20000f50 	addi	zero,zero,3920
 724:	80000000 	lb	zero,0(zero)
 728:	fffffffc 	sdc3	$31,-4(ra)
	...
 734:	00000020 	add	zero,zero,zero
 738:	0000001d 	0x1d
 73c:	0000001f 	0x1f
 740:	20000f88 	addi	zero,zero,3976
 744:	80000000 	lb	zero,0(zero)
 748:	fffffffc 	sdc3	$31,-4(ra)
	...
 754:	00000020 	add	zero,zero,zero
 758:	0000001d 	0x1d
 75c:	0000001f 	0x1f
 760:	20000fc0 	addi	zero,zero,4032
 764:	80000000 	lb	zero,0(zero)
 768:	fffffffc 	sdc3	$31,-4(ra)
	...
 774:	00000020 	add	zero,zero,zero
 778:	0000001d 	0x1d
 77c:	0000001f 	0x1f
 780:	20001008 	addi	zero,zero,4104
 784:	80000000 	lb	zero,0(zero)
 788:	fffffffc 	sdc3	$31,-4(ra)
	...
 794:	00000020 	add	zero,zero,zero
 798:	0000001d 	0x1d
 79c:	0000001f 	0x1f
 7a0:	20001050 	addi	zero,zero,4176
 7a4:	80000000 	lb	zero,0(zero)
 7a8:	fffffffc 	sdc3	$31,-4(ra)
	...
 7b4:	00000020 	add	zero,zero,zero
 7b8:	0000001d 	0x1d
 7bc:	0000001f 	0x1f
 7c0:	20001084 	addi	zero,zero,4228
 7c4:	80000000 	lb	zero,0(zero)
 7c8:	fffffffc 	sdc3	$31,-4(ra)
	...
 7d4:	00000020 	add	zero,zero,zero
 7d8:	0000001d 	0x1d
 7dc:	0000001f 	0x1f
 7e0:	200010cc 	addi	zero,zero,4300
 7e4:	80000000 	lb	zero,0(zero)
 7e8:	fffffffc 	sdc3	$31,-4(ra)
	...
 7f4:	00000020 	add	zero,zero,zero
 7f8:	0000001d 	0x1d
 7fc:	0000001f 	0x1f
 800:	20001114 	addi	zero,zero,4372
 804:	80000000 	lb	zero,0(zero)
 808:	fffffffc 	sdc3	$31,-4(ra)
	...
 814:	00000020 	add	zero,zero,zero
 818:	0000001d 	0x1d
 81c:	0000001f 	0x1f
 820:	2000115c 	addi	zero,zero,4444
 824:	80000000 	lb	zero,0(zero)
 828:	fffffffc 	sdc3	$31,-4(ra)
	...
 834:	00000020 	add	zero,zero,zero
 838:	0000001d 	0x1d
 83c:	0000001f 	0x1f
 840:	200011a4 	addi	zero,zero,4516
 844:	80000000 	lb	zero,0(zero)
 848:	fffffffc 	sdc3	$31,-4(ra)
	...
 854:	00000020 	add	zero,zero,zero
 858:	0000001d 	0x1d
 85c:	0000001f 	0x1f
 860:	200011d8 	addi	zero,zero,4568
 864:	80000000 	lb	zero,0(zero)
 868:	fffffffc 	sdc3	$31,-4(ra)
	...
 874:	00000020 	add	zero,zero,zero
 878:	0000001d 	0x1d
 87c:	0000001f 	0x1f

Disassembly of section .comment:

00000000 <.comment>:
   0:	3a434347 	xori	v1,s2,0x4347
   4:	4e472820 	c3	0x472820
   8:	34202955 	ori	zero,at,0x2955
   c:	322e342e 	andi	t6,s1,0x342e
	...

Disassembly of section .gnu.attributes:

00000000 <.gnu.attributes>:
   0:	00000f41 	0xf41
   4:	756e6700 	jalx	5b99c00 <seg_stack_base+0x1b99c00>
   8:	00070100 	sll	zero,a3,0x4
   c:	01040000 	0x1040000

Disassembly of section .debug_abbrev:

00000000 <.debug_abbrev>:
   0:	25011101 	addiu	at,t0,4353
   4:	030b130e 	0x30b130e
   8:	5201110e 	beql	s0,at,4444 <NB_PROCS+0x4440>
   c:	10065501 	beq	zero,a2,15414 <NB_PROCS+0x15410>
  10:	02000006 	srlv	zero,zero,s0
  14:	0e030104 	jal	80c0410 <seg_stack_base+0x40c0410>
  18:	0b3a0b0b 	j	ce82c2c <seg_stack_base+0x8e82c2c>
  1c:	13010b3b 	beq	t8,at,2d0c <NB_PROCS+0x2d08>
  20:	28030000 	slti	v1,zero,0
  24:	1c0e0300 	0x1c0e0300
  28:	0400000d 	bltz	zero,60 <NB_PROCS+0x5c>
  2c:	0e030016 	jal	80c0058 <seg_stack_base+0x40c0058>
  30:	0b3b0b3a 	j	cec2ce8 <seg_stack_base+0x8ec2ce8>
  34:	00001349 	0x1349
  38:	0b002405 	j	c009014 <seg_stack_base+0x8009014>
  3c:	030b3e0b 	0x30b3e0b
  40:	0600000e 	bltz	s0,7c <NB_PROCS+0x78>
  44:	0e03012e 	jal	80c04b8 <seg_stack_base+0x40c04b8>
  48:	0b3b0b3a 	j	cec2ce8 <seg_stack_base+0x8ec2ce8>
  4c:	13490c27 	beq	k0,t1,30ec <NB_PROCS+0x30e8>
  50:	01120111 	0x1120111
  54:	13010640 	beq	t8,at,1958 <NB_PROCS+0x1954>
  58:	05070000 	0x5070000
  5c:	3a0e0300 	xori	t6,s0,0x300
  60:	490b3b0b 	bc2tl	$cc2,ec90 <NB_PROCS+0xec8c>
  64:	000a0213 	0xa0213
  68:	00340800 	0x340800
  6c:	0b3a0803 	j	ce8200c <seg_stack_base+0x8e8200c>
  70:	13490b3b 	beq	k0,t1,2d60 <NB_PROCS+0x2d5c>
  74:	00000a02 	srl	at,zero,0x8
  78:	03003409 	jalr.hb	a2,t8
  7c:	3b0b3a0e 	xori	t3,t8,0x3a0e
  80:	0213490b 	0x213490b
  84:	0a00000a 	j	8000028 <seg_stack_base+0x4000028>
  88:	0b0b000f 	j	c2c003c <seg_stack_base+0x82c003c>
  8c:	0f0b0000 	jal	c2c0000 <seg_stack_base+0x82c0000>
  90:	490b0b00 	bc2tl	$cc2,2c94 <NB_PROCS+0x2c90>
  94:	0c000013 	jal	4c <NB_PROCS+0x48>
  98:	00000026 	xor	zero,zero,zero
  9c:	4900260d 	bc2f	98d4 <NB_PROCS+0x98d0>
  a0:	0e000013 	jal	800004c <seg_stack_base+0x400004c>
  a4:	0c3f012e 	jal	fc04b8 <NB_PROCS+0xfc04b4>
  a8:	0b3a0e03 	j	ce8380c <seg_stack_base+0x8e8380c>
  ac:	13490b3b 	beq	k0,t1,2d9c <NB_PROCS+0x2d98>
  b0:	01120111 	0x1120111
  b4:	13010640 	beq	t8,at,19b8 <NB_PROCS+0x19b4>
  b8:	240f0000 	li	t7,0
  bc:	3e0b0b00 	0x3e0b0b00
  c0:	0008030b 	0x8030b
  c4:	012e1000 	0x12e1000
  c8:	0e030c3f 	jal	80c30fc <seg_stack_base+0x40c30fc>
  cc:	0b3b0b3a 	j	cec2ce8 <seg_stack_base+0x8ec2ce8>
  d0:	01120111 	0x1120111
  d4:	13010640 	beq	t8,at,19d8 <NB_PROCS+0x19d4>
  d8:	2e110000 	sltiu	s1,s0,0
  dc:	030c3f01 	0x30c3f01
  e0:	3b0b3a0e 	xori	t3,t8,0x3a0e
  e4:	110c270b 	beq	t0,t4,9d14 <NB_PROCS+0x9d10>
  e8:	40011201 	0x40011201
  ec:	00130106 	0x130106
  f0:	00051200 	sll	v0,a1,0x8
  f4:	0b3a0803 	j	ce8200c <seg_stack_base+0x8e8200c>
  f8:	13490b3b 	beq	k0,t1,2de8 <NB_PROCS+0x2de4>
  fc:	00000a02 	srl	at,zero,0x8
 100:	49010113 	bc2t	550 <NB_PROCS+0x54c>
 104:	00130113 	0x130113
 108:	00211400 	0x211400
 10c:	0b2f1349 	j	cbc4d24 <seg_stack_base+0x8bc4d24>
 110:	24150000 	li	s5,0
 114:	3e0b0b00 	0x3e0b0b00
 118:	1600000b 	bnez	s0,148 <NB_PROCS+0x144>
 11c:	0c3f012e 	jal	fc04b8 <NB_PROCS+0xfc04b4>
 120:	0b3a0e03 	j	ce8380c <seg_stack_base+0x8e8380c>
 124:	0c270b3b 	jal	9c2cec <NB_PROCS+0x9c2ce8>
 128:	01111349 	0x1111349
 12c:	06400112 	bltz	s2,578 <NB_PROCS+0x574>
 130:	00001301 	0x1301
 134:	49003517 	bc2f	d594 <NB_PROCS+0xd590>
 138:	18000013 	blez	zero,188 <NB_PROCS+0x184>
 13c:	0e030034 	jal	80c00d0 <seg_stack_base+0x40c00d0>
 140:	053b0b3a 	0x53b0b3a
 144:	0a021349 	j	8084d24 <seg_stack_base+0x4084d24>
 148:	2e190000 	sltiu	t9,s0,0
 14c:	030c3f01 	0x30c3f01
 150:	3b0b3a0e 	xori	t3,t8,0x3a0e
 154:	490c2705 	bc2f	$cc3,9d6c <NB_PROCS+0x9d68>
 158:	12011113 	beq	s0,at,45a8 <NB_PROCS+0x45a4>
 15c:	01064001 	0x1064001
 160:	1a000013 	blez	s0,1b0 <NB_PROCS+0x1ac>
 164:	0e030005 	jal	80c0014 <seg_stack_base+0x40c0014>
 168:	053b0b3a 	0x53b0b3a
 16c:	0a021349 	j	8084d24 <seg_stack_base+0x4084d24>
 170:	2e1b0000 	sltiu	k1,s0,0
 174:	030c3f01 	0x30c3f01
 178:	3b0b3a0e 	xori	t3,t8,0x3a0e
 17c:	11134905 	beq	t0,s3,12594 <NB_PROCS+0x12590>
 180:	40011201 	0x40011201
 184:	00130106 	0x130106
 188:	00341c00 	0x341c00
 18c:	0b3a0803 	j	ce8200c <seg_stack_base+0x8e8200c>
 190:	1349053b 	beq	k0,t1,1680 <NB_PROCS+0x167c>
 194:	00000a02 	srl	at,zero,0x8
 198:	0300051d 	0x300051d
 19c:	3b0b3a08 	xori	t3,t8,0x3a08
 1a0:	02134905 	0x2134905
 1a4:	1e00000a 	bgtz	s0,1d0 <NB_PROCS+0x1cc>
 1a8:	0c3f002e 	jal	fc00b8 <NB_PROCS+0xfc00b4>
 1ac:	0b3a0e03 	j	ce8380c <seg_stack_base+0x8e8380c>
 1b0:	1349053b 	beq	k0,t1,16a0 <NB_PROCS+0x169c>
 1b4:	01120111 	0x1120111
 1b8:	00000a40 	sll	at,zero,0x9
 1bc:	0300131f 	0x300131f
 1c0:	000c3c0e 	0xc3c0e
 1c4:	00212000 	0x212000
 1c8:	34210000 	ori	at,at,0x0
 1cc:	3a0e0300 	xori	t6,s0,0x300
 1d0:	490b3b0b 	bc2tl	$cc2,ee00 <NB_PROCS+0xedfc>
 1d4:	3c0c3f13 	lui	t4,0x3f13
 1d8:	2200000c 	addi	zero,s0,12
 1dc:	0e030034 	jal	80c00d0 <seg_stack_base+0x40c00d0>
 1e0:	0b3b0b3a 	j	cec2ce8 <seg_stack_base+0x8ec2ce8>
 1e4:	0c3f1349 	jal	fc4d24 <NB_PROCS+0xfc4d20>
 1e8:	00000a02 	srl	at,zero,0x8
 1ec:	01110100 	0x1110100
 1f0:	0b130e25 	j	c4c3894 <seg_stack_base+0x84c3894>
 1f4:	01110e03 	0x1110e03
 1f8:	06100112 	bltzal	s0,644 <NB_PROCS+0x640>
 1fc:	16020000 	bne	s0,v0,200 <NB_PROCS+0x1fc>
 200:	3a0e0300 	xori	t6,s0,0x300
 204:	490b3b0b 	bc2tl	$cc2,ee34 <NB_PROCS+0xee30>
 208:	03000013 	mtlo	t8
 20c:	0b0b000f 	j	c2c003c <seg_stack_base+0x82c003c>
 210:	00000e03 	sra	at,zero,0x18
 214:	0b002404 	j	c009010 <seg_stack_base+0x8009010>
 218:	030b3e0b 	0x30b3e0b
 21c:	0500000e 	bltz	t0,258 <NB_PROCS+0x254>
 220:	0e030104 	jal	80c0410 <seg_stack_base+0x40c0410>
 224:	0b3a0b0b 	j	ce82c2c <seg_stack_base+0x8e82c2c>
 228:	13010b3b 	beq	t8,at,2f18 <NB_PROCS+0x2f14>
 22c:	28060000 	slti	a2,zero,0
 230:	1c0e0300 	0x1c0e0300
 234:	0700000d 	bltz	t8,26c <NB_PROCS+0x268>
 238:	0c3f012e 	jal	fc04b8 <NB_PROCS+0xfc04b4>
 23c:	0b3a0e03 	j	ce8380c <seg_stack_base+0x8e8380c>
 240:	0c270b3b 	jal	9c2cec <NB_PROCS+0x9c2ce8>
 244:	01111349 	0x1111349
 248:	06400112 	bltz	s2,694 <NB_PROCS+0x690>
 24c:	00001301 	0x1301
 250:	03000508 	0x3000508
 254:	3b0b3a0e 	xori	t3,t8,0x3a0e
 258:	0213490b 	0x213490b
 25c:	0900000a 	j	4000028 <seg_stack_base+0x28>
 260:	0e030034 	jal	80c00d0 <seg_stack_base+0x40c00d0>
 264:	0b3b0b3a 	j	cec2ce8 <seg_stack_base+0x8ec2ce8>
 268:	0a021349 	j	8084d24 <seg_stack_base+0x4084d24>
 26c:	240a0000 	li	t2,0
 270:	3e0b0b00 	0x3e0b0b00
 274:	0008030b 	0x8030b
 278:	002e0b00 	0x2e0b00
 27c:	0e030c3f 	jal	80c30fc <seg_stack_base+0x40c30fc>
 280:	0b3b0b3a 	j	cec2ce8 <seg_stack_base+0x8ec2ce8>
 284:	01111349 	0x1111349
 288:	06400112 	bltz	s2,6d4 <NB_PROCS+0x6d0>
 28c:	2e0c0000 	sltiu	t4,s0,0
 290:	030c3f01 	0x30c3f01
 294:	3b0b3a0e 	xori	t3,t8,0x3a0e
 298:	1113490b 	beq	t0,s3,126c8 <NB_PROCS+0x126c4>
 29c:	40011201 	0x40011201
 2a0:	00130106 	0x130106
 2a4:	00340d00 	0x340d00
 2a8:	0b3a0803 	j	ce8200c <seg_stack_base+0x8e8200c>
 2ac:	13490b3b 	beq	k0,t1,2f9c <NB_PROCS+0x2f98>
 2b0:	00000a02 	srl	at,zero,0x8
 2b4:	0b000f0e 	j	c003c38 <seg_stack_base+0x8003c38>
 2b8:	0013490b 	0x13490b
 2bc:	00050f00 	sll	at,a1,0x1c
 2c0:	0b3a0803 	j	ce8200c <seg_stack_base+0x8e8200c>
 2c4:	13490b3b 	beq	k0,t1,2fb4 <NB_PROCS+0x2fb0>
 2c8:	00000a02 	srl	at,zero,0x8
 2cc:	49010110 	bc2t	710 <NB_PROCS+0x70c>
 2d0:	00130113 	0x130113
 2d4:	00211100 	0x211100
 2d8:	0b2f1349 	j	cbc4d24 <seg_stack_base+0x8bc4d24>
 2dc:	24120000 	li	s2,0
 2e0:	3e0b0b00 	0x3e0b0b00
 2e4:	1300000b 	beqz	t8,314 <NB_PROCS+0x310>
 2e8:	0c3f012e 	jal	fc04b8 <NB_PROCS+0xfc04b4>
 2ec:	0b3a0e03 	j	ce8380c <seg_stack_base+0x8e8380c>
 2f0:	0c27053b 	jal	9c14ec <NB_PROCS+0x9c14e8>
 2f4:	01111349 	0x1111349
 2f8:	06400112 	bltz	s2,744 <NB_PROCS+0x740>
 2fc:	00001301 	0x1301
 300:	03000514 	0x3000514
 304:	3b0b3a0e 	xori	t3,t8,0x3a0e
 308:	02134905 	0x2134905
 30c:	1500000a 	bnez	t0,338 <NB_PROCS+0x334>
 310:	08030034 	j	c00d0 <NB_PROCS+0xc00cc>
 314:	053b0b3a 	0x53b0b3a
 318:	0a021349 	j	8084d24 <seg_stack_base+0x4084d24>
 31c:	34160000 	li	s6,0x0
 320:	3a0e0300 	xori	t6,s0,0x300
 324:	49053b0b 	bc2t	$cc1,ef54 <NB_PROCS+0xef50>
 328:	000a0213 	0xa0213
 32c:	00181700 	sll	v0,t8,0x1c
 330:	0a180000 	j	8600000 <seg_stack_base+0x4600000>
 334:	3a0e0300 	xori	t6,s0,0x300
 338:	11053b0b 	beq	t0,a1,ef68 <NB_PROCS+0xef64>
 33c:	19000001 	blez	t0,344 <NB_PROCS+0x340>
 340:	0111010b 	0x111010b
 344:	13010112 	beq	t8,at,790 <NB_PROCS+0x78c>
 348:	0b1a0000 	j	c680000 <seg_stack_base+0x8680000>
 34c:	00065501 	0x65501
 350:	010b1b00 	0x10b1b00
 354:	01120111 	0x1120111
 358:	261c0000 	addiu	gp,s0,0
 35c:	00134900 	sll	t1,s3,0x4
 360:	00051d00 	sll	v1,a1,0x14
 364:	0b3a0803 	j	ce8200c <seg_stack_base+0x8e8200c>
 368:	1349053b 	beq	k0,t1,1858 <NB_PROCS+0x1854>
 36c:	00000a02 	srl	at,zero,0x8
 370:	0b000f1e 	j	c003c78 <seg_stack_base+0x8003c78>
 374:	1f00000b 	bgtz	t8,3a4 <NB_PROCS+0x3a0>
 378:	0c3f002e 	jal	fc00b8 <NB_PROCS+0xfc00b4>
 37c:	0b3a0e03 	j	ce8380c <seg_stack_base+0x8e8380c>
 380:	1349053b 	beq	k0,t1,1870 <NB_PROCS+0x186c>
 384:	01120111 	0x1120111
 388:	00000640 	sll	zero,zero,0x19
 38c:	01110100 	0x1110100
 390:	0b130e25 	j	c4c3894 <seg_stack_base+0x84c3894>
 394:	0e1b0e03 	jal	86c380c <seg_stack_base+0x46c380c>
 398:	01120111 	0x1120111
 39c:	00000610 	0x610
 3a0:	0b002402 	j	c009008 <seg_stack_base+0x8009008>
 3a4:	030b3e0b 	0x30b3e0b
 3a8:	0300000e 	0x300000e
 3ac:	0c3f012e 	jal	fc04b8 <NB_PROCS+0xfc04b4>
 3b0:	0b3a0e03 	j	ce8380c <seg_stack_base+0x8e8380c>
 3b4:	13490b3b 	beq	k0,t1,30a4 <NB_PROCS+0x30a0>
 3b8:	01120111 	0x1120111
 3bc:	13010640 	beq	t8,at,1cc0 <NB_PROCS+0x1cbc>
 3c0:	34040000 	li	a0,0x0
 3c4:	3a080300 	xori	t0,s0,0x300
 3c8:	490b3b0b 	bc2tl	$cc2,eff8 <NB_PROCS+0xeff4>
 3cc:	000a0213 	0xa0213
 3d0:	00240500 	0x240500
 3d4:	0b3e0b0b 	j	cf82c2c <seg_stack_base+0x8f82c2c>
 3d8:	00000803 	sra	at,zero,0x0
 3dc:	49003506 	bc2f	d7f8 <NB_PROCS+0xd7f4>
 3e0:	00000013 	mtlo	zero

Disassembly of section .debug_info:

00000000 <.debug_info>:
       0:	00000d22 	0xd22
       4:	00000002 	srl	zero,zero,0x0
       8:	01040000 	0x1040000
       c:	00000579 	0x579
      10:	00016201 	0x16201
	...
      24:	02db0200 	0x2db0200
      28:	02040000 	0x2040000
      2c:	00005004 	sllv	t2,zero,zero
      30:	05040300 	0x5040300
      34:	03000000 	0x3000000
      38:	00000224 	0x224
      3c:	012a0301 	0x12a0301
      40:	03020000 	0x3020000
      44:	0000058f 	sync	0x16
      48:	04410303 	bgez	v0,c58 <NB_PROCS+0xc54>
      4c:	00040000 	sll	zero,a0,0x0
      50:	00031b02 	srl	v1,v1,0xc
      54:	04030400 	bgezl	zero,1058 <NB_PROCS+0x1054>
      58:	0000007b 	0x7b
      5c:	00050c03 	sra	at,a1,0x10
      60:	f0030000 	0xf0030000
      64:	01000005 	0x1000005
      68:	00036103 	sra	t4,v1,0x4
      6c:	99030200 	lwr	v1,512(t0)
      70:	03000005 	0x3000005
      74:	0003cb03 	sra	t9,v1,0xc
      78:	02000400 	0x2000400
      7c:	000005a8 	0x5a8
      80:	b81e0404 	swr	s8,1028(zero)
      84:	03000000 	0x3000000
      88:	000002aa 	0x2aa
      8c:	037e0300 	0x37e0300
      90:	03010000 	0x3010000
      94:	0000028d 	break	0x0,0xa
      98:	036e0302 	0x36e0302
      9c:	03030000 	0x3030000
      a0:	000004e1 	0x4e1
      a4:	03d60304 	0x3d60304
      a8:	03050000 	0x3050000
      ac:	0000054a 	0x54a
      b0:	049a0306 	0x49a0306
      b4:	00070000 	sll	zero,a3,0x0
      b8:	00026302 	srl	t4,v0,0xc
      bc:	29040400 	slti	a0,t0,1024
      c0:	000000d7 	0xd7
      c4:	00000803 	sra	at,zero,0x0
      c8:	18030000 	0x18030000
      cc:	01000005 	0x1000005
      d0:	00008a03 	sra	s1,zero,0x8
      d4:	02000200 	0x2000200
      d8:	000000ea 	0xea
      dc:	0e2f0404 	jal	8bc1010 <seg_stack_base+0x4bc1010>
      e0:	03000001 	movf	zero,t8,$fcc0
      e4:	000000bf 	0xbf
      e8:	01e70300 	0x1e70300
      ec:	03010000 	0x3010000
      f0:	00000057 	0x57
      f4:	05cc0302 	teqi	t6,770
      f8:	03030000 	0x3030000
      fc:	0000045b 	0x45b
     100:	01a50304 	0x1a50304
     104:	03050000 	0x3050000
     108:	00000308 	0x308
     10c:	7d040006 	0x7d040006
     110:	05000000 	bltz	t0,114 <NB_PROCS+0x110>
     114:	0001191e 	0x1191e
     118:	07040500 	0x7040500
     11c:	00000354 	0x354
     120:	0000d106 	0xd106
     124:	015a0100 	0x15a0100
     128:	0000019f 	0x19f
     12c:	800008e8 	lb	zero,2280(zero)
     130:	800009e4 	lb	zero,2532(zero)
     134:	00000000 	nop
     138:	0000019f 	0x19f
     13c:	00052a07 	0x52a07
     140:	9f5a0100 	0x9f5a0100
     144:	02000001 	movf	zero,s0,$fcc0
     148:	c9070091 	lwc2	$7,145(t0)
     14c:	01000004 	sllv	zero,zero,t0
     150:	0001a15a 	0x1a15a
     154:	04910200 	bgezal	a0,958 <NB_PROCS+0x954>
     158:	00021207 	0x21207
     15c:	195a0100 	0x195a0100
     160:	02000001 	movf	zero,s0,$fcc0
     164:	64080891 	0x64080891
     168:	01007473 	tltu	t0,zero,0x1d1
     16c:	0001a85c 	0x1a85c
     170:	7c910200 	0x7c910200
     174:	63727308 	0x63727308
     178:	ae5d0100 	sw	sp,256(s2)
     17c:	02000001 	movf	zero,s0,$fcc0
     180:	f5097891 	sdc1	$f9,30865(t0)
     184:	01000004 	sllv	zero,zero,t0
     188:	0001b964 	0x1b964
     18c:	74910200 	jalx	2440800 <NB_PROCS+0x24407fc>
     190:	00027e09 	0x27e09
     194:	b9650100 	swr	a1,256(t3)
     198:	02000001 	movf	zero,s0,$fcc0
     19c:	0a007091 	j	801c244 <seg_stack_base+0x401c244>
     1a0:	a7040b04 	sh	a0,2820(t8)
     1a4:	0c000001 	jal	4 <NB_PROCS>
     1a8:	0119040b 	0x119040b
     1ac:	040b0000 	tltiu	zero,0
     1b0:	000001b4 	teq	zero,zero,0x6
     1b4:	0001190d 	break	0x1,0x64
     1b8:	bf040b00 	cache	0x4,2816(t8)
     1bc:	05000001 	bltz	t0,1c4 <NB_PROCS+0x1c0>
     1c0:	02fa0801 	0x2fa0801
     1c4:	010e0000 	0x10e0000
     1c8:	00000000 	nop
     1cc:	01f17101 	0x1f17101
     1d0:	09e40000 	j	7900000 <seg_stack_base+0x3900000>
     1d4:	0a008000 	j	8020000 <seg_stack_base+0x4020000>
     1d8:	001f8000 	sll	s0,ra,0x0
     1dc:	01f10000 	0x1f10000
     1e0:	72080000 	madd	s0,t0
     1e4:	01007465 	0x1007465
     1e8:	0001f173 	tltu	zero,at,0x3c5
     1ec:	78910200 	0x78910200
     1f0:	05040f00 	0x5040f00
     1f4:	00746e69 	0x746e69
     1f8:	04b2010e 	bltzall	a1,634 <NB_PROCS+0x630>
     1fc:	7b010000 	0x7b010000
     200:	000001f1 	tgeu	zero,zero,0x7
     204:	80000a00 	lb	zero,2560(zero)
     208:	80000a18 	lb	zero,2584(zero)
     20c:	0000003e 	0x3e
     210:	00000223 	0x223
     214:	74657208 	jalx	195c820 <NB_PROCS+0x195c81c>
     218:	f17d0100 	0xf17d0100
     21c:	02000001 	movf	zero,s0,$fcc0
     220:	10007891 	b	1e468 <NB_PROCS+0x1e464>
     224:	0005c301 	0x5c301
     228:	18850100 	0x18850100
     22c:	3c80000a 	0x3c80000a
     230:	5d80000a 	bgtzl	t4,25c <NB_PROCS+0x258>
     234:	4a000000 	c2	0x0
     238:	08000002 	j	8 <NB_PROCS+0x4>
     23c:	00706d74 	teq	v1,s0,0x1b5
     240:	01f18701 	0x1f18701
     244:	91020000 	lbu	v0,0(t0)
     248:	01100078 	0x1100078
     24c:	00000330 	tge	zero,zero,0xc
     250:	0a3c9001 	j	8f24004 <seg_stack_base+0x4f24004>
     254:	0a608000 	j	9820000 <seg_stack_base+0x5820000>
     258:	007c8000 	0x7c8000
     25c:	02710000 	0x2710000
     260:	74080000 	jalx	200000 <NB_PROCS+0x1ffffc>
     264:	0100706d 	0x100706d
     268:	0001f192 	0x1f192
     26c:	78910200 	0x78910200
     270:	4c011100 	0x4c011100
     274:	01000002 	0x1000002
     278:	0a60019c 	j	9800670 <seg_stack_base+0x5800670>
     27c:	0ad08000 	j	b420000 <seg_stack_base+0x7420000>
     280:	009b8000 	0x9b8000
     284:	02c10000 	0x2c10000
     288:	05070000 	0x5070000
     28c:	01000008 	jr	t0
     290:	0001a19c 	0x1a19c
     294:	00910200 	0x910200
     298:	00021207 	0x21207
     29c:	0e9c0100 	jal	a700400 <seg_stack_base+0x6700400>
     2a0:	02000001 	movf	zero,s0,$fcc0
     2a4:	69080491 	0x69080491
     2a8:	0e9e0100 	jal	a780400 <seg_stack_base+0x6780400>
     2ac:	02000001 	movf	zero,s0,$fcc0
     2b0:	06097c91 	tgeiu	s0,31889
     2b4:	01000002 	0x1000002
     2b8:	00010e9f 	0x10e9f
     2bc:	78910200 	0x78910200
     2c0:	08011100 	j	44400 <NB_PROCS+0x443fc>
     2c4:	01000001 	movf	zero,t0,$fcc0
     2c8:	0ad001b1 	j	b4006c4 <seg_stack_base+0x74006c4>
     2cc:	0bdc8000 	j	f720000 <seg_stack_base+0xb720000>
     2d0:	00ba8000 	0xba8000
     2d4:	03110000 	0x3110000
     2d8:	76120000 	jalx	8480000 <seg_stack_base+0x4480000>
     2dc:	01006c61 	0x1006c61
     2e0:	000119b1 	tgeu	zero,at,0x66
     2e4:	00910200 	0x910200
     2e8:	66756212 	0x66756212
     2ec:	11b10100 	beq	t5,s1,6f0 <NB_PROCS+0x6ec>
     2f0:	02000003 	0x2000003
     2f4:	5c090491 	0x5c090491
     2f8:	01000005 	0x1000005
     2fc:	000331b3 	tltu	zero,v1,0xc6
     300:	74910200 	jalx	2440800 <NB_PROCS+0x24407fc>
     304:	01006908 	0x1006908
     308:	000119b4 	teq	zero,at,0x66
     30c:	70910200 	0x70910200
     310:	17040b00 	bne	t8,a0,2f14 <NB_PROCS+0x2f10>
     314:	05000003 	bltz	t0,324 <NB_PROCS+0x320>
     318:	03030601 	0x3030601
     31c:	17130000 	bne	t8,s3,320 <NB_PROCS+0x31c>
     320:	2e000003 	sltiu	zero,s0,3
     324:	14000003 	bnez	zero,334 <NB_PROCS+0x330>
     328:	0000032e 	0x32e
     32c:	0415000a 	0x415000a
     330:	031e0d07 	0x31e0d07
     334:	01110000 	0x1110000
     338:	000004fa 	0x4fa
     33c:	dc01c001 	ldc3	$1,-16383(zero)
     340:	b480000b 	0xb480000b
     344:	d980000c 	ldc2	$0,12(t4)
     348:	86000000 	lh	zero,0(s0)
     34c:	12000003 	beqz	s0,35c <NB_PROCS+0x358>
     350:	006c6176 	tne	v1,t4,0x185
     354:	01f1c001 	movt	t8,t7,$fcc4
     358:	91020000 	lbu	v0,0(t0)
     35c:	75621200 	jalx	5884800 <seg_stack_base+0x1884800>
     360:	c0010066 	ll	at,102(zero)
     364:	00000311 	0x311
     368:	09049102 	j	4124408 <seg_stack_base+0x124408>
     36c:	00000563 	0x563
     370:	0396c201 	0x396c201
     374:	91020000 	lbu	v0,0(t0)
     378:	0069086c 	0x69086c
     37c:	0119c301 	0x119c301
     380:	91020000 	lbu	v0,0(t0)
     384:	17130068 	bne	t8,s3,528 <NB_PROCS+0x524>
     388:	96000003 	lhu	zero,3(s0)
     38c:	14000003 	bnez	zero,39c <NB_PROCS+0x398>
     390:	0000032e 	0x32e
     394:	860d000e 	lh	t5,14(s0)
     398:	16000003 	bnez	s0,3a8 <NB_PROCS+0x3a4>
     39c:	0001f901 	0x1f901
     3a0:	01ce0100 	0x1ce0100
     3a4:	000001f1 	tgeu	zero,zero,0x7
     3a8:	80000cb4 	lb	zero,3252(zero)
     3ac:	80000d40 	lb	zero,3392(zero)
     3b0:	000000f8 	0xf8
     3b4:	000003ff 	0x3ff
     3b8:	0003b607 	0x3b607
     3bc:	f1ce0100 	0xf1ce0100
     3c0:	02000001 	movf	zero,s0,$fcc0
     3c4:	9d070091 	0x9d070091
     3c8:	01000000 	0x1000000
     3cc:	0001f1ce 	0x1f1ce
     3d0:	04910200 	bgezal	a0,bd4 <NB_PROCS+0xbd0>
     3d4:	00010207 	0x10207
     3d8:	f1ce0100 	0xf1ce0100
     3dc:	02000001 	movf	zero,s0,$fcc0
     3e0:	23090891 	addi	t1,t8,2193
     3e4:	01000000 	0x1000000
     3e8:	0003ffd0 	0x3ffd0
     3ec:	7c910200 	0x7c910200
     3f0:	78616d08 	0x78616d08
     3f4:	f1d10100 	0xf1d10100
     3f8:	02000001 	movf	zero,s0,$fcc0
     3fc:	0b007891 	j	c01e244 <seg_stack_base+0x801e244>
     400:	00040504 	0x40504
     404:	01f11700 	0x1f11700
     408:	01160000 	0x1160000
     40c:	0000048e 	0x48e
     410:	f101de01 	0xf101de01
     414:	40000001 	mfc0	zero,$0,1
     418:	d080000d 	0xd080000d
     41c:	1780000d 	bnez	gp,454 <NB_PROCS+0x450>
     420:	6e000001 	0x6e000001
     424:	07000004 	bltz	t8,438 <NB_PROCS+0x434>
     428:	000003b6 	tne	zero,zero,0xe
     42c:	01f1de01 	0x1f1de01
     430:	91020000 	lbu	v0,0(t0)
     434:	009d0700 	0x9d0700
     438:	de010000 	ldc3	$1,0(s0)
     43c:	000001f1 	tgeu	zero,zero,0x7
     440:	07049102 	0x7049102
     444:	00000805 	0x805
     448:	046ede01 	tnei	v1,-8703
     44c:	91020000 	lbu	v0,0(t0)
     450:	00230908 	0x230908
     454:	e0010000 	sc	at,0(zero)
     458:	000003ff 	0x3ff
     45c:	087c9102 	j	1f24408 <NB_PROCS+0x1f24404>
     460:	0078616d 	0x78616d
     464:	01f1e101 	0x1f1e101
     468:	91020000 	lbu	v0,0(t0)
     46c:	040b0078 	tltiu	zero,120
     470:	000001f1 	tgeu	zero,zero,0x7
     474:	01570116 	0x1570116
     478:	f9010000 	sdc2	$1,0(t0)
     47c:	0001f101 	0x1f101
     480:	000dd000 	sll	k0,t5,0x0
     484:	000f1880 	sll	v1,t7,0x2
     488:	00013680 	sll	a2,at,0x1a
     48c:	00051000 	sll	v0,a1,0x0
     490:	08050700 	j	141c00 <NB_PROCS+0x141bfc>
     494:	f9010000 	sdc2	$1,0(t0)
     498:	00000311 	0x311
     49c:	07009102 	bltz	t8,fffe48a8 <tab_main+0x403e4818>
     4a0:	000002d4 	0x2d4
     4a4:	01f1f901 	0x1f1f901
     4a8:	91020000 	lbu	v0,0(t0)
     4ac:	04270904 	0x4270904
     4b0:	fb010000 	sdc2	$1,0(t8)
     4b4:	000001f1 	tgeu	zero,zero,0x7
     4b8:	09709102 	j	5c24408 <seg_stack_base+0x1c24408>
     4bc:	0000019a 	0x19a
     4c0:	01f1fc01 	0x1f1fc01
     4c4:	91020000 	lbu	v0,0(t0)
     4c8:	022c096c 	0x22c096c
     4cc:	fd010000 	sdc3	$1,0(t0)
     4d0:	000001f1 	tgeu	zero,zero,0x7
     4d4:	09689102 	j	5a24408 <seg_stack_base+0x1a24408>
     4d8:	000003ee 	0x3ee
     4dc:	01f1fe01 	0x1f1fe01
     4e0:	91020000 	lbu	v0,0(t0)
     4e4:	00690864 	0x690864
     4e8:	01f1ff01 	0x1f1ff01
     4ec:	91020000 	lbu	v0,0(t0)
     4f0:	03c21860 	0x3c21860
     4f4:	00010000 	sll	zero,at,0x0
     4f8:	0001f101 	0x1f101
     4fc:	5c910200 	0x5c910200
     500:	00003c18 	0x3c18
     504:	01010100 	0x1010100
     508:	00000311 	0x311
     50c:	00589102 	0x589102
     510:	05fb0119 	0x5fb0119
     514:	21010000 	addi	at,t0,0
     518:	01f10101 	0x1f10101
     51c:	0f180000 	jal	c600000 <seg_stack_base+0x8600000>
     520:	10588000 	beq	v0,t8,fffe0524 <tab_main+0x403e0494>
     524:	01558000 	0x1558000
     528:	05980000 	0x5980000
     52c:	051a0000 	0x51a0000
     530:	01000008 	jr	t0
     534:	03110121 	0x3110121
     538:	91020000 	lbu	v0,0(t0)
     53c:	02d41a00 	0x2d41a00
     540:	21010000 	addi	at,t0,0
     544:	0001f101 	0x1f101
     548:	04910200 	bgezal	a0,d4c <NB_PROCS+0xd48>
     54c:	00042718 	0x42718
     550:	01230100 	0x1230100
     554:	000001f1 	tgeu	zero,zero,0x7
     558:	18709102 	0x18709102
     55c:	0000019a 	0x19a
     560:	f1012401 	0xf1012401
     564:	02000001 	movf	zero,s0,$fcc0
     568:	2c186c91 	sltiu	t8,zero,27793
     56c:	01000002 	0x1000002
     570:	01f10125 	0x1f10125
     574:	91020000 	lbu	v0,0(t0)
     578:	03ee1868 	0x3ee1868
     57c:	26010000 	addiu	at,s0,0
     580:	0001f101 	0x1f101
     584:	64910200 	0x64910200
     588:	00028318 	0x28318
     58c:	01270100 	0x1270100
     590:	000001f1 	tgeu	zero,zero,0x7
     594:	00609102 	0x609102
     598:	03ac0119 	0x3ac0119
     59c:	41010000 	bc0t	5a0 <NB_PROCS+0x59c>
     5a0:	01f10101 	0x1f10101
     5a4:	10580000 	beq	v0,t8,5a8 <NB_PROCS+0x5a4>
     5a8:	11808000 	beqz	t4,fffe05ac <tab_main+0x403e051c>
     5ac:	01748000 	0x1748000
     5b0:	06200000 	bltz	s1,5b4 <NB_PROCS+0x5b0>
     5b4:	051a0000 	0x51a0000
     5b8:	01000008 	jr	t0
     5bc:	03110141 	0x3110141
     5c0:	91020000 	lbu	v0,0(t0)
     5c4:	02d41a00 	0x2d41a00
     5c8:	41010000 	bc0t	5cc <NB_PROCS+0x5c8>
     5cc:	0001f101 	0x1f101
     5d0:	04910200 	bgezal	a0,dd4 <NB_PROCS+0xdd0>
     5d4:	00042718 	0x42718
     5d8:	01430100 	0x1430100
     5dc:	000001f1 	tgeu	zero,zero,0x7
     5e0:	18709102 	0x18709102
     5e4:	0000019a 	0x19a
     5e8:	f1014401 	0xf1014401
     5ec:	02000001 	movf	zero,s0,$fcc0
     5f0:	2c186c91 	sltiu	t8,zero,27793
     5f4:	01000002 	0x1000002
     5f8:	01f10145 	0x1f10145
     5fc:	91020000 	lbu	v0,0(t0)
     600:	03ee1868 	0x3ee1868
     604:	46010000 	add.s	$f0,$f0,$f1
     608:	0001f101 	0x1f101
     60c:	64910200 	0x64910200
     610:	00003c18 	0x3c18
     614:	01470100 	0x1470100
     618:	00000311 	0x311
     61c:	00609102 	0x609102
     620:	00ac011b 	0xac011b
     624:	5f010000 	0x5f010000
     628:	0001f101 	0x1f101
     62c:	00118000 	sll	s0,s1,0x0
     630:	00124080 	sll	t0,s2,0x2
     634:	00019380 	sll	s2,at,0xe
     638:	00065c00 	sll	t3,a2,0x10
     63c:	75621c00 	jalx	5887000 <seg_stack_base+0x1887000>
     640:	61010066 	0x61010066
     644:	00065c01 	0x65c01
     648:	4c910200 	0x4c910200
     64c:	6469701c 	0x6469701c
     650:	01620100 	0x1620100
     654:	000001f1 	tgeu	zero,zero,0x7
     658:	00489102 	0x489102
     65c:	00031713 	0x31713
     660:	00066c00 	sll	t5,a2,0x10
     664:	032e1400 	0x32e1400
     668:	00240000 	0x240000
     66c:	02360119 	0x2360119
     670:	73010000 	madd	t8,at
     674:	01f10101 	0x1f10101
     678:	12400000 	beqz	s2,67c <NB_PROCS+0x678>
     67c:	12d88000 	beq	s6,t8,fffe0680 <tab_main+0x403e05f0>
     680:	01b38000 	0x1b38000
     684:	06c70000 	0x6c70000
     688:	9d1a0000 	0x9d1a0000
     68c:	01000000 	0x1000000
     690:	01f10173 	tltu	t7,s1,0x5
     694:	91020000 	lbu	v0,0(t0)
     698:	01021a00 	0x1021a00
     69c:	73010000 	madd	t8,at
     6a0:	0001f101 	0x1f101
     6a4:	04910200 	bgezal	a0,ea8 <NB_PROCS+0xea4>
     6a8:	0002ee18 	0x2ee18
     6ac:	01750100 	0x1750100
     6b0:	000003ff 	0x3ff
     6b4:	18749102 	0x18749102
     6b8:	0000040f 	sync	0x10
     6bc:	f1017601 	0xf1017601
     6c0:	02000001 	movf	zero,s0,$fcc0
     6c4:	19007091 	blez	t0,1c90c <NB_PROCS+0x1c908>
     6c8:	00058501 	0x58501
     6cc:	01830100 	0x1830100
     6d0:	0001f101 	0x1f101
     6d4:	0012d800 	sll	k1,s2,0x0
     6d8:	00137480 	sll	t6,s3,0x12
     6dc:	0001d280 	sll	k0,at,0xa
     6e0:	00072200 	sll	a0,a3,0x8
     6e4:	009d1a00 	0x9d1a00
     6e8:	83010000 	lb	at,0(t8)
     6ec:	0001f101 	0x1f101
     6f0:	00910200 	0x910200
     6f4:	0008051a 	0x8051a
     6f8:	01830100 	0x1830100
     6fc:	0000046e 	0x46e
     700:	18049102 	0x18049102
     704:	000002ee 	0x2ee
     708:	ff018501 	sdc3	$1,-31487(t8)
     70c:	02000003 	0x2000003
     710:	0f187491 	jal	c61d244 <seg_stack_base+0x861d244>
     714:	01000004 	sllv	zero,zero,t0
     718:	01f10186 	0x1f10186
     71c:	91020000 	lbu	v0,0(t0)
     720:	01190070 	tge	t0,t9,0x1
     724:	000003f8 	0x3f8
     728:	01019201 	0x1019201
     72c:	000001f1 	tgeu	zero,zero,0x7
     730:	80001374 	lb	zero,4980(zero)
     734:	800013d0 	lb	zero,5072(zero)
     738:	000001f1 	tgeu	zero,zero,0x7
     73c:	0000076e 	0x76e
     740:	00009d1a 	0x9d1a
     744:	01920100 	0x1920100
     748:	000001f1 	tgeu	zero,zero,0x7
     74c:	1a009102 	blez	s0,fffe4b58 <tab_main+0x403e4ac8>
     750:	00000102 	srl	zero,zero,0x4
     754:	f1019201 	0xf1019201
     758:	02000001 	movf	zero,s0,$fcc0
     75c:	1e180491 	0x1e180491
     760:	01000001 	movf	zero,t0,$fcc0
     764:	03ff0194 	0x3ff0194
     768:	91020000 	lbu	v0,0(t0)
     76c:	01190078 	0x1190078
     770:	000002a0 	0x2a0
     774:	01019f01 	0x1019f01
     778:	000001f1 	tgeu	zero,zero,0x7
     77c:	800013d0 	lb	zero,5072(zero)
     780:	80001430 	lb	zero,5168(zero)
     784:	00000210 	0x210
     788:	000007ba 	0x7ba
     78c:	00009d1a 	0x9d1a
     790:	019f0100 	0x19f0100
     794:	000001f1 	tgeu	zero,zero,0x7
     798:	1a009102 	blez	s0,fffe4ba4 <tab_main+0x403e4b14>
     79c:	00000805 	0x805
     7a0:	6e01a001 	0x6e01a001
     7a4:	02000004 	sllv	zero,zero,s0
     7a8:	1e180491 	0x1e180491
     7ac:	01000001 	movf	zero,t0,$fcc0
     7b0:	03ff01a2 	0x3ff01a2
     7b4:	91020000 	lbu	v0,0(t0)
     7b8:	01190078 	0x1190078
     7bc:	00000473 	tltu	zero,zero,0x11
     7c0:	0101ad01 	0x101ad01
     7c4:	000001f1 	tgeu	zero,zero,0x7
     7c8:	80001430 	lb	zero,5168(zero)
     7cc:	80001494 	lb	zero,5268(zero)
     7d0:	0000022f 	0x22f
     7d4:	00000806 	srlv	at,zero,zero
     7d8:	00041c1a 	0x41c1a
     7dc:	01ad0100 	0x1ad0100
     7e0:	000001f1 	tgeu	zero,zero,0x7
     7e4:	18009102 	blez	zero,fffe4bf0 <tab_main+0x403e4b60>
     7e8:	00000149 	0x149
     7ec:	ff01b001 	sdc3	$1,-20479(t8)
     7f0:	02000003 	0x2000003
     7f4:	6d1c7c91 	0x6d1c7c91
     7f8:	01007861 	0x1007861
     7fc:	01f101b1 	tgeu	t7,s1,0x6
     800:	91020000 	lbu	v0,0(t0)
     804:	01190078 	0x1190078
     808:	00000071 	tgeu	zero,zero,0x1
     80c:	0101c201 	0x101c201
     810:	000001f1 	tgeu	zero,zero,0x7
     814:	80001494 	lb	zero,5268(zero)
     818:	80001544 	lb	zero,5444(zero)
     81c:	0000024e 	0x24e
     820:	0000086e 	0x86e
     824:	00041c1a 	0x41c1a
     828:	01c20100 	0x1c20100
     82c:	000001f1 	tgeu	zero,zero,0x7
     830:	18009102 	blez	zero,fffe4c3c <tab_main+0x403e4bac>
     834:	00000149 	0x149
     838:	ff01c401 	sdc3	$1,-15359(t8)
     83c:	02000003 	0x2000003
     840:	6d1c7491 	0x6d1c7491
     844:	01007861 	0x1007861
     848:	01f101c5 	0x1f101c5
     84c:	91020000 	lbu	v0,0(t0)
     850:	00d81870 	tge	a2,t8,0x61
     854:	c6010000 	lwc1	$f1,0(s0)
     858:	0001f101 	0x1f101
     85c:	6c910200 	0x6c910200
     860:	0100691c 	0x100691c
     864:	01f101c7 	0x1f101c7
     868:	91020000 	lbu	v0,0(t0)
     86c:	01190068 	0x1190068
     870:	00000241 	0x241
     874:	0101f001 	movt	s8,t0,$fcc0
     878:	000001f1 	tgeu	zero,zero,0x7
     87c:	80001544 	lb	zero,5444(zero)
     880:	80001670 	lb	zero,5744(zero)
     884:	0000026d 	0x26d
     888:	000008f4 	teq	zero,zero,0x23
     88c:	61626c1d 	0x61626c1d
     890:	01f00100 	0x1f00100
     894:	0000010e 	0x10e
     898:	1a009102 	blez	s0,fffe4ca4 <tab_main+0x403e4c14>
     89c:	00000805 	0x805
     8a0:	9f01f001 	0x9f01f001
     8a4:	02000001 	movf	zero,s0,$fcc0
     8a8:	ce1a0491 	pref	0x1a,1169(s0)
     8ac:	01000004 	sllv	zero,zero,t0
     8b0:	010e01f0 	tge	t0,t6,0x7
     8b4:	91020000 	lbu	v0,0(t0)
     8b8:	04031808 	bgezl	zero,68dc <NB_PROCS+0x68d8>
     8bc:	f2010000 	0xf2010000
     8c0:	0003ff01 	0x3ff01
     8c4:	74910200 	jalx	2440800 <NB_PROCS+0x24407fc>
     8c8:	0000d818 	0xd818
     8cc:	01f30100 	0x1f30100
     8d0:	000001f1 	tgeu	zero,zero,0x7
     8d4:	1c709102 	0x1c709102
     8d8:	f4010069 	sdc1	$f1,105(zero)
     8dc:	0001f101 	0x1f101
     8e0:	6c910200 	0x6c910200
     8e4:	00003118 	0x3118
     8e8:	01f70100 	0x1f70100
     8ec:	0000010e 	0x10e
     8f0:	00689102 	0x689102
     8f4:	03a20119 	0x3a20119
     8f8:	18010000 	0x18010000
     8fc:	01f10102 	0x1f10102
     900:	16700000 	bne	s3,s0,904 <NB_PROCS+0x900>
     904:	17b48000 	bne	sp,s4,fffe0908 <tab_main+0x403e0878>
     908:	028c8000 	0x28c8000
     90c:	097a0000 	j	5e80000 <seg_stack_base+0x1e80000>
     910:	6c1d0000 	0x6c1d0000
     914:	01006162 	0x1006162
     918:	010e0218 	0x10e0218
     91c:	91020000 	lbu	v0,0(t0)
     920:	08051a00 	j	146800 <NB_PROCS+0x1467fc>
     924:	18010000 	0x18010000
     928:	00019f02 	srl	s3,at,0x1c
     92c:	04910200 	bgezal	a0,1130 <NB_PROCS+0x112c>
     930:	0004ce1a 	0x4ce1a
     934:	02180100 	0x2180100
     938:	0000010e 	0x10e
     93c:	18089102 	0x18089102
     940:	00000403 	sra	zero,zero,0x10
     944:	ff021a01 	sdc3	$2,6657(t8)
     948:	02000003 	0x2000003
     94c:	d8187491 	ldc2	$24,29841(zero)
     950:	01000000 	0x1000000
     954:	01f1021b 	0x1f1021b
     958:	91020000 	lbu	v0,0(t0)
     95c:	00691c70 	tge	v1,t1,0x71
     960:	f1021c01 	0xf1021c01
     964:	02000001 	movf	zero,s0,$fcc0
     968:	31186c91 	andi	t8,t0,0x6c91
     96c:	01000000 	0x1000000
     970:	010e021f 	0x10e021f
     974:	91020000 	lbu	v0,0(t0)
     978:	011e0068 	0x11e0068
     97c:	00000432 	tlt	zero,zero,0x10
     980:	f1024101 	0xf1024101
     984:	b4000001 	0xb4000001
     988:	0c800017 	jal	200005c <NB_PROCS+0x2000058>
     98c:	01800018 	mult	t4,zero
     990:	3b01196d 	xori	at,t8,0x196d
     994:	01000003 	0x1000003
     998:	f1010258 	0xf1010258
     99c:	0c000001 	jal	4 <NB_PROCS>
     9a0:	cc800018 	pref	0x0,24(a0)
     9a4:	ab800018 	swl	zero,24(gp)
     9a8:	06000002 	bltz	s0,9b4 <NB_PROCS+0x9b0>
     9ac:	1a00000a 	blez	s0,9d8 <NB_PROCS+0x9d4>
     9b0:	00000277 	0x277
     9b4:	0e025801 	jal	8096004 <seg_stack_base+0x4096004>
     9b8:	02000001 	movf	zero,s0,$fcc0
     9bc:	051a0091 	0x51a0091
     9c0:	01000008 	jr	t0
     9c4:	019f0258 	0x19f0258
     9c8:	91020000 	lbu	v0,0(t0)
     9cc:	02d41a04 	0x2d41a04
     9d0:	58010000 	0x58010000
     9d4:	00010e02 	srl	at,at,0x18
     9d8:	08910200 	j	2440800 <NB_PROCS+0x24407fc>
     9dc:	0062661c 	0x62661c
     9e0:	06025a01 	bltzl	s0,171e8 <NB_PROCS+0x171e4>
     9e4:	0200000a 	movz	zero,s0,zero
     9e8:	751c7891 	jalx	471e244 <seg_stack_base+0x71e244>
     9ec:	5b010062 	0x5b010062
     9f0:	00031102 	srl	v0,v1,0x4
     9f4:	74910200 	jalx	2440800 <NB_PROCS+0x24407fc>
     9f8:	0100691c 	0x100691c
     9fc:	010e025c 	0x10e025c
     a00:	91020000 	lbu	v0,0(t0)
     a04:	040b0070 	tltiu	zero,112
     a08:	00000a0c 	syscall	0x28
     a0c:	00031717 	0x31717
     a10:	80011900 	lb	at,6400(zero)
     a14:	01000004 	sllv	zero,zero,t0
     a18:	f101026d 	0xf101026d
     a1c:	cc000001 	pref	0x0,1(zero)
     a20:	94800018 	lhu	zero,24(a0)
     a24:	ca800019 	lwc2	$0,25(s4)
     a28:	86000002 	lh	zero,2(s0)
     a2c:	1a00000a 	blez	s0,a58 <NB_PROCS+0xa54>
     a30:	00000277 	0x277
     a34:	0e026d01 	jal	809b404 <seg_stack_base+0x409b404>
     a38:	02000001 	movf	zero,s0,$fcc0
     a3c:	051a0091 	0x51a0091
     a40:	01000008 	jr	t0
     a44:	019f026d 	0x19f026d
     a48:	91020000 	lbu	v0,0(t0)
     a4c:	02d41a04 	0x2d41a04
     a50:	6d010000 	0x6d010000
     a54:	00010e02 	srl	at,at,0x18
     a58:	08910200 	j	2440800 <NB_PROCS+0x24407fc>
     a5c:	0062661c 	0x62661c
     a60:	06026f01 	bltzl	s0,1c668 <NB_PROCS+0x1c664>
     a64:	0200000a 	movz	zero,s0,zero
     a68:	751c7891 	jalx	471e244 <seg_stack_base+0x71e244>
     a6c:	70010062 	0x70010062
     a70:	00031102 	srl	v0,v1,0x4
     a74:	74910200 	jalx	2440800 <NB_PROCS+0x24407fc>
     a78:	0100691c 	0x100691c
     a7c:	010e0271 	tgeu	t0,t6,0x9
     a80:	91020000 	lbu	v0,0(t0)
     a84:	01190070 	tge	t0,t9,0x1
     a88:	00000398 	0x398
     a8c:	01028c01 	0x1028c01
     a90:	000001f1 	tgeu	zero,zero,0x7
     a94:	80001994 	lb	zero,6548(zero)
     a98:	80001aa8 	lb	zero,6824(zero)
     a9c:	000002e9 	0x2e9
     aa0:	00000b0b 	0xb0b
     aa4:	0002771a 	0x2771a
     aa8:	028c0100 	0x28c0100
     aac:	0000010e 	0x10e
     ab0:	1a009102 	blez	s0,fffe4ebc <tab_main+0x403e4e2c>
     ab4:	00000805 	0x805
     ab8:	9f028c01 	0x9f028c01
     abc:	02000001 	movf	zero,s0,$fcc0
     ac0:	d41a0491 	ldc1	$f26,1169(zero)
     ac4:	01000002 	0x1000002
     ac8:	010e028c 	syscall	0x4380a
     acc:	91020000 	lbu	v0,0(t0)
     ad0:	62661c08 	0x62661c08
     ad4:	028e0100 	0x28e0100
     ad8:	00000a06 	0xa06
     adc:	1c749102 	0x1c749102
     ae0:	00616d64 	0x616d64
     ae4:	ff028f01 	sdc3	$2,-28927(t8)
     ae8:	02000003 	0x2000003
     aec:	d8187091 	ldc2	$24,28817(zero)
     af0:	01000000 	0x1000000
     af4:	01f10290 	0x1f10290
     af8:	91020000 	lbu	v0,0(t0)
     afc:	00691c6c 	0x691c6c
     b00:	f1029101 	0xf1029101
     b04:	02000001 	movf	zero,s0,$fcc0
     b08:	19006891 	blez	t0,1ad50 <NB_PROCS+0x1ad4c>
     b0c:	0002be01 	0x2be01
     b10:	02b10100 	0x2b10100
     b14:	0001f101 	0x1f101
     b18:	001aa800 	sll	s5,k0,0x0
     b1c:	001bc880 	sll	t9,k1,0x2
     b20:	00030880 	sll	at,v1,0x2
     b24:	000b9000 	sll	s2,t3,0x0
     b28:	02771a00 	0x2771a00
     b2c:	b1010000 	0xb1010000
     b30:	00010e02 	srl	at,at,0x18
     b34:	00910200 	0x910200
     b38:	0008051a 	0x8051a
     b3c:	02b10100 	0x2b10100
     b40:	0000019f 	0x19f
     b44:	1a049102 	0x1a049102
     b48:	000002d4 	0x2d4
     b4c:	0e02b101 	jal	80ac404 <seg_stack_base+0x40ac404>
     b50:	02000001 	movf	zero,s0,$fcc0
     b54:	661c0891 	0x661c0891
     b58:	b3010062 	0xb3010062
     b5c:	000a0602 	srl	zero,t2,0x18
     b60:	74910200 	jalx	2440800 <NB_PROCS+0x24407fc>
     b64:	616d641c 	0x616d641c
     b68:	02b40100 	0x2b40100
     b6c:	000003ff 	0x3ff
     b70:	18709102 	0x18709102
     b74:	000000d8 	0xd8
     b78:	f102b501 	0xf102b501
     b7c:	02000001 	movf	zero,s0,$fcc0
     b80:	691c6c91 	0x691c6c91
     b84:	02b60100 	0x2b60100
     b88:	000001f1 	tgeu	zero,zero,0x7
     b8c:	00689102 	0x689102
     b90:	01d9011e 	0x1d9011e
     b94:	d8010000 	ldc2	$1,0(zero)
     b98:	0001f102 	srl	s8,at,0x4
     b9c:	001bc800 	sll	t9,k1,0x0
     ba0:	001c0880 	sll	at,gp,0x2
     ba4:	1f6d0180 	0x1f6d0180
     ba8:	00000084 	0x84
     bac:	01191301 	0x1191301
     bb0:	0bb80000 	j	ee00000 <seg_stack_base+0xae00000>
     bb4:	00200000 	0x200000
     bb8:	00060921 	0x60921
     bbc:	ad230500 	sw	v1,1280(t1)
     bc0:	0100000b 	movn	zero,t0,zero
     bc4:	02172101 	0x2172101
     bc8:	2c010000 	sltiu	at,zero,0
     bcc:	00000ba7 	0xba7
     bd0:	48210101 	0x48210101
     bd4:	01000000 	0x1000000
     bd8:	000ba72d 	0xba72d
     bdc:	21010100 	addi	at,t0,256
     be0:	000004bc 	0x4bc
     be4:	0ba72e01 	j	e9cb804 <seg_stack_base+0xa9cb804>
     be8:	01010000 	0x1010000
     bec:	00013c21 	0x13c21
     bf0:	a72f0100 	sh	t7,256(t9)
     bf4:	0100000b 	movn	zero,t0,zero
     bf8:	04d42101 	0x4d42101
     bfc:	30010000 	andi	at,zero,0x0
     c00:	00000ba7 	0xba7
     c04:	2f210101 	sltiu	at,t9,257
     c08:	01000005 	0x1000005
     c0c:	000ba731 	tgeu	zero,t3,0x29c
     c10:	21010100 	addi	at,t0,256
     c14:	00000112 	0x112
     c18:	0ba73201 	j	e9cc804 <seg_stack_base+0xa9cc804>
     c1c:	01010000 	0x1010000
     c20:	0002c721 	0x2c721
     c24:	a7330100 	sh	s3,256(t9)
     c28:	0100000b 	movn	zero,t0,zero
     c2c:	001a2101 	0x1a2101
     c30:	35010000 	ori	at,t0,0x0
     c34:	00000ba7 	0xba7
     c38:	e7210101 	swc1	$f1,257(t9)
     c3c:	01000005 	0x1000005
     c40:	000ba736 	tne	zero,t3,0x29c
     c44:	21010100 	addi	at,t0,256
     c48:	00000451 	0x451
     c4c:	0ba73701 	j	e9cdc04 <seg_stack_base+0xa9cdc04>
     c50:	01010000 	0x1010000
     c54:	00038f21 	0x38f21
     c58:	a7390100 	sh	t9,256(t9)
     c5c:	0100000b 	movn	zero,t0,zero
     c60:	01322201 	0x1322201
     c64:	49010000 	bc2t	c68 <NB_PROCS+0xc64>
     c68:	00000405 	0x405
     c6c:	00030501 	0x30501
     c70:	22920000 	addi	s2,s4,0
     c74:	000000de 	0xde
     c78:	04054a01 	0x4054a01
     c7c:	05010000 	bgez	t0,c80 <NB_PROCS+0xc7c>
     c80:	00000403 	sra	zero,zero,0x10
     c84:	034a2292 	0x34a2292
     c88:	4c010000 	mfc3	at,$0
     c8c:	00000405 	0x405
     c90:	08030501 	j	c1404 <NB_PROCS+0xc1400>
     c94:	22920000 	addi	s2,s4,0
     c98:	0000053e 	0x53e
     c9c:	04054d01 	0x4054d01
     ca0:	05010000 	bgez	t0,ca4 <NB_PROCS+0xca0>
     ca4:	00000c03 	sra	at,zero,0x10
     ca8:	03171392 	0x3171392
     cac:	0cb90000 	jal	2e40000 <NB_PROCS+0x2e3fffc>
     cb0:	2e140000 	sltiu	s4,s0,0
     cb4:	1f000003 	bgtz	t8,cc4 <NB_PROCS+0xcc0>
     cb8:	00b22200 	0xb22200
     cbc:	4f010000 	c3	0x1010000
     cc0:	00000ccb 	0xccb
     cc4:	10030501 	beq	zero,v1,20cc <NB_PROCS+0x20c8>
     cc8:	17920000 	bne	gp,s2,ccc <NB_PROCS+0xcc8>
     ccc:	00000ca9 	0xca9
     cd0:	0001f113 	0x1f113
     cd4:	000ce000 	sll	gp,t4,0x0
     cd8:	032e1400 	0x32e1400
     cdc:	001f0000 	sll	zero,ra,0x0
     ce0:	0001cb22 	0x1cb22
     ce4:	f2500100 	0xf2500100
     ce8:	0100000c 	syscall	0x40000
     cec:	00300305 	0x300305
     cf0:	d0179200 	0xd0179200
     cf4:	2200000c 	addi	zero,s0,12
     cf8:	000001be 	0x1be
     cfc:	0d095201 	jal	4254804 <seg_stack_base+0x254804>
     d00:	05010000 	bgez	t0,d04 <NB_PROCS+0xd00>
     d04:	0000b003 	sra	s6,zero,0x0
     d08:	0ca91792 	jal	2a45e48 <NB_PROCS+0x2a45e44>
     d0c:	6b220000 	0x6b220000
     d10:	01000005 	0x1000005
     d14:	000d2053 	0xd2053
     d18:	03050100 	0x3050100
     d1c:	920000d0 	lbu	zero,208(s0)
     d20:	000cd017 	0xcd017
     d24:	0a8b0000 	j	a2c0000 <seg_stack_base+0x62c0000>
     d28:	00020000 	sll	zero,v0,0x0
     d2c:	000001ed 	0x1ed
     d30:	05790104 	0x5790104
     d34:	37010000 	ori	at,t8,0x0
     d38:	00000006 	srlv	zero,zero,zero
     d3c:	d8200000 	ldc2	$0,0(at)
     d40:	4d200011 	0x4d200011
     d44:	02000002 	0x2000002
     d48:	000008b3 	tltu	zero,zero,0x22
     d4c:	002c2802 	ror	a1,t4,0x0
     d50:	04030000 	bgezl	zero,d54 <NB_PROCS+0xd50>
     d54:	00000861 	0x861
     d58:	0008ba02 	srl	s7,t0,0x8
     d5c:	21660200 	addi	a2,t3,512
     d60:	02000000 	0x2000000
     d64:	0000007d 	0x7d
     d68:	00482303 	0x482303
     d6c:	04040000 	0x4040000
     d70:	00035407 	0x35407
     d74:	031b0500 	0x31b0500
     d78:	04040000 	0x4040000
     d7c:	00007a04 	0x7a04
     d80:	050c0600 	teqi	t0,1536
     d84:	06000000 	bltz	s0,d88 <NB_PROCS+0xd84>
     d88:	000005f0 	tge	zero,zero,0x17
     d8c:	03610601 	0x3610601
     d90:	06020000 	bltzl	s0,d94 <NB_PROCS+0xd90>
     d94:	00000599 	0x599
     d98:	03cb0603 	0x3cb0603
     d9c:	00040000 	sll	zero,a0,0x0
     da0:	00079105 	0x79105
     da4:	04050400 	0x4050400
     da8:	000000a5 	0xa5
     dac:	00062706 	0x62706
     db0:	2f060000 	sltiu	a2,t8,0
     db4:	01000006 	srlv	zero,zero,t0
     db8:	00061d06 	0x61d06
     dbc:	9f060200 	0x9f060200
     dc0:	03000006 	srlv	zero,zero,t8
     dc4:	00081a06 	0x81a06
     dc8:	05000400 	bltz	t0,1dcc <NB_PROCS+0x1dc8>
     dcc:	000006aa 	0x6aa
     dd0:	d0040604 	0xd0040604
     dd4:	06000000 	bltz	s0,dd8 <NB_PROCS+0xdd4>
     dd8:	00000750 	0x750
     ddc:	08500600 	j	1401800 <NB_PROCS+0x14017fc>
     de0:	06010000 	bgez	s0,de4 <NB_PROCS+0xde0>
     de4:	00000692 	0x692
     de8:	07580602 	0x7580602
     dec:	06030000 	bgezl	s0,df0 <NB_PROCS+0xdec>
     df0:	000007c3 	sra	zero,zero,0x1f
     df4:	01070004 	sllv	zero,a3,t0
     df8:	0000067c 	0x67c
     dfc:	75011701 	jalx	4045c04 <seg_stack_base+0x45c04>
     e00:	00000001 	movf	zero,zero,$fcc0
     e04:	3c200000 	0x3c200000
     e08:	27200000 	addiu	zero,t9,0
     e0c:	75000003 	jalx	400000c <seg_stack_base+0xc>
     e10:	08000001 	j	4 <NB_PROCS>
     e14:	00000859 	0x859
     e18:	01751701 	0x1751701
     e1c:	91020000 	lbu	v0,0(t0)
     e20:	07150800 	0x7150800
     e24:	18010000 	0x18010000
     e28:	00000175 	0x175
     e2c:	08049102 	j	124408 <NB_PROCS+0x124404>
     e30:	0000071b 	0x71b
     e34:	01751901 	0x1751901
     e38:	91020000 	lbu	v0,0(t0)
     e3c:	07210808 	bgez	t9,2e60 <NB_PROCS+0x2e5c>
     e40:	1a010000 	0x1a010000
     e44:	00000175 	0x175
     e48:	080c9102 	j	324408 <NB_PROCS+0x324404>
     e4c:	00000727 	0x727
     e50:	01751b01 	0x1751b01
     e54:	91020000 	lbu	v0,0(t0)
     e58:	06f60910 	0x6f60910
     e5c:	1d010000 	0x1d010000
     e60:	00000175 	0x175
     e64:	ef095201 	swc3	$9,20993(t8)
     e68:	01000006 	srlv	zero,zero,t0
     e6c:	0001751e 	0x1751e
     e70:	09540100 	j	5500400 <seg_stack_base+0x1500400>
     e74:	0000072d 	0x72d
     e78:	01751f01 	0x1751f01
     e7c:	55010000 	bnel	t0,at,e80 <NB_PROCS+0xe7c>
     e80:	00073409 	0x73409
     e84:	75200100 	jalx	4800400 <seg_stack_base+0x800400>
     e88:	01000001 	movf	zero,t0,$fcc0
     e8c:	073b0956 	0x73b0956
     e90:	21010000 	addi	at,t0,0
     e94:	00000175 	0x175
     e98:	0a005701 	j	8015c04 <seg_stack_base+0x4015c04>
     e9c:	6e690504 	0x6e690504
     ea0:	010b0074 	teq	t0,t3,0x1
     ea4:	00000001 	movf	zero,zero,$fcc0
     ea8:	01754101 	0x1754101
     eac:	003c0000 	0x3c0000
     eb0:	00702000 	0x702000
     eb4:	03462000 	0x3462000
     eb8:	010b0000 	0x10b0000
     ebc:	000004b3 	tltu	zero,zero,0x12
     ec0:	01754901 	0x1754901
     ec4:	00700000 	0x700000
     ec8:	00a42000 	0xa42000
     ecc:	03652000 	0x3652000
     ed0:	010c0000 	0x10c0000
     ed4:	000000ad 	0xad
     ed8:	01755101 	0x1755101
     edc:	00a40000 	0xa40000
     ee0:	00e42000 	0xe42000
     ee4:	03842000 	0x3842000
     ee8:	01d70000 	0x1d70000
     eec:	27090000 	addiu	t1,t8,0
     ef0:	01000004 	sllv	zero,zero,t0
     ef4:	00017553 	0x17553
     ef8:	70910200 	0x70910200
     efc:	9f010c00 	0x9f010c00
     f00:	01000008 	jr	t0
     f04:	0001755b 	0x1755b
     f08:	0000e400 	sll	gp,zero,0x10
     f0c:	00016020 	add	t4,zero,at
     f10:	0003a320 	0x3a320
     f14:	00020000 	sll	zero,v0,0x0
     f18:	00780d00 	0x780d00
     f1c:	01755d01 	0x1755d01
     f20:	91020000 	lbu	v0,0(t0)
     f24:	01070070 	tge	t0,a3,0x1
     f28:	00000767 	0x767
     f2c:	75016e01 	jalx	405b804 <seg_stack_base+0x5b804>
     f30:	60000001 	0x60000001
     f34:	a0200001 	sb	zero,1(at)
     f38:	c2200001 	ll	zero,1(s1)
     f3c:	2c000003 	sltiu	zero,zero,3
     f40:	08000002 	j	8 <NB_PROCS+0x4>
     f44:	0000078c 	syscall	0x1e
     f48:	022c6e01 	0x22c6e01
     f4c:	91020000 	lbu	v0,0(t0)
     f50:	01040000 	0x1040000
     f54:	00030306 	0x30306
     f58:	7c010700 	0x7c010700
     f5c:	01000007 	srav	zero,zero,t0
     f60:	0175017e 	0x175017e
     f64:	01a00000 	0x1a00000
     f68:	020c2000 	0x20c2000
     f6c:	03e12000 	0x3e12000
     f70:	026d0000 	0x26d0000
     f74:	85080000 	lh	t0,0(t0)
     f78:	01000007 	srav	zero,zero,t0
     f7c:	00026d7e 	0x26d7e
     f80:	00910200 	0x910200
     f84:	0002d409 	0x2d409
     f88:	75800100 	jalx	6000400 <seg_stack_base+0x2000400>
     f8c:	02000001 	movf	zero,s0,$fcc0
     f90:	0e007091 	jal	801c244 <seg_stack_base+0x401c244>
     f94:	00022c04 	0x22c04
     f98:	f7010700 	sdc1	$f1,1792(t8)
     f9c:	01000007 	srav	zero,zero,t0
     fa0:	01750191 	0x1750191
     fa4:	020c0000 	0x20c0000
     fa8:	02f42000 	0x2f42000
     fac:	04002000 	bltz	zero,8fb0 <NB_PROCS+0x8fac>
     fb0:	02b90000 	0x2b90000
     fb4:	760f0000 	jalx	83c0000 <seg_stack_base+0x43c0000>
     fb8:	01006c61 	0x1006c61
     fbc:	00017591 	0x17591
     fc0:	00910200 	0x910200
     fc4:	6675620d 	0x6675620d
     fc8:	b9930100 	swr	s3,256(t4)
     fcc:	02000002 	0x2000002
     fd0:	690d6c91 	0x690d6c91
     fd4:	75940100 	jalx	6500400 <seg_stack_base+0x2500400>
     fd8:	02000001 	movf	zero,s0,$fcc0
     fdc:	10006891 	b	1b224 <NB_PROCS+0x1b220>
     fe0:	0000022c 	0x22c
     fe4:	000002c9 	0x2c9
     fe8:	0002c911 	0x2c911
     fec:	12000900 	beqz	s0,33f0 <NB_PROCS+0x33ec>
     ff0:	01070704 	0x1070704
     ff4:	00000896 	0x896
     ff8:	7501a701 	jalx	4069c04 <seg_stack_base+0x69c04>
     ffc:	f4000001 	sdc1	$f0,1(zero)
    1000:	78200002 	0x78200002
    1004:	1f200003 	bgtz	t9,1014 <NB_PROCS+0x1010>
    1008:	06000004 	bltz	s0,101c <NB_PROCS+0x1018>
    100c:	0f000003 	jal	c00000c <seg_stack_base+0x800000c>
    1010:	00667562 	0x667562
    1014:	026da701 	0x26da701
    1018:	91020000 	lbu	v0,0(t0)
    101c:	65720d00 	0x65720d00
    1020:	a9010074 	swl	at,116(t0)
    1024:	00000175 	0x175
    1028:	00709102 	0x709102
    102c:	07a90107 	tgeiu	sp,263
    1030:	bd010000 	cache	0x1,0(t0)
    1034:	00017501 	0x17501
    1038:	00037800 	sll	t7,v1,0x0
    103c:	0003fc20 	0x3fc20
    1040:	00043e20 	0x43e20
    1044:	00034000 	sll	t0,v1,0x0
    1048:	75620f00 	jalx	5883c00 <seg_stack_base+0x1883c00>
    104c:	bd010066 	cache	0x1,102(t0)
    1050:	0000026d 	0x26d
    1054:	0d009102 	jal	4024408 <seg_stack_base+0x24408>
    1058:	00746572 	tlt	v1,s4,0x195
    105c:	0175bf01 	0x175bf01
    1060:	91020000 	lbu	v0,0(t0)
    1064:	01070070 	tge	t0,a3,0x1
    1068:	000006bd 	0x6bd
    106c:	7501da01 	jalx	4076804 <seg_stack_base+0x76804>
    1070:	fc000001 	sdc3	$0,1(zero)
    1074:	28200003 	slti	zero,at,3
    1078:	5d200005 	bgtzl	t1,1090 <NB_PROCS+0x108c>
    107c:	a4000004 	sh	zero,4(zero)
    1080:	0f000003 	jal	c00000c <seg_stack_base+0x800000c>
    1084:	00667562 	0x667562
    1088:	026dda01 	0x26dda01
    108c:	91020000 	lbu	v0,0(t0)
    1090:	08730800 	j	1cc2000 <NB_PROCS+0x1cc1ffc>
    1094:	da010000 	ldc2	$1,0(s0)
    1098:	00000175 	0x175
    109c:	0d049102 	jal	4124408 <seg_stack_base+0x124408>
    10a0:	00746572 	tlt	v1,s4,0x195
    10a4:	0175dc01 	0x175dc01
    10a8:	91020000 	lbu	v0,0(t0)
    10ac:	078c096c 	teqi	gp,2412
    10b0:	dd010000 	ldc3	$1,0(t0)
    10b4:	000003a4 	0x3a4
    10b8:	09709102 	j	5c24408 <seg_stack_base+0x1c24408>
    10bc:	0000042c 	0x42c
    10c0:	0048de01 	0x48de01
    10c4:	91020000 	lbu	v0,0(t0)
    10c8:	01040068 	0x1040068
    10cc:	0002fa08 	0x2fa08
    10d0:	b6011300 	0xb6011300
    10d4:	01000007 	srav	zero,zero,t0
    10d8:	75010109 	jalx	4040424 <seg_stack_base+0x40424>
    10dc:	28000001 	slti	zero,zero,1
    10e0:	28200005 	slti	zero,at,5
    10e4:	7c200008 	0x7c200008
    10e8:	60000004 	0x60000004
    10ec:	14000004 	bnez	zero,1100 <NB_PROCS+0x10fc>
    10f0:	00000800 	sll	at,zero,0x0
    10f4:	60010901 	0x60010901
    10f8:	02000004 	sllv	zero,zero,s0
    10fc:	62150091 	0x62150091
    1100:	01006675 	0x1006675
    1104:	0466010b 	0x466010b
    1108:	91020000 	lbu	v0,0(t0)
    110c:	078c1654 	teqi	gp,5716
    1110:	0c010000 	jal	40000 <NB_PROCS+0x3fffc>
    1114:	0003a401 	0x3a401
    1118:	74910200 	jalx	2440800 <NB_PROCS+0x24407fc>
    111c:	00080c16 	0x80c16
    1120:	010d0100 	0x10d0100
    1124:	00000048 	0x48
    1128:	15509102 	bne	t2,s0,fffe5534 <tab_main+0x403e54a4>
    112c:	006c6176 	tne	v1,t4,0x185
    1130:	48010e01 	0x48010e01
    1134:	02000000 	0x2000000
    1138:	a4164c91 	sh	s6,19601(zero)
    113c:	01000007 	srav	zero,zero,t0
    1140:	0048010f 	0x48010f
    1144:	91020000 	lbu	v0,0(t0)
    1148:	08111648 	j	445920 <NB_PROCS+0x44591c>
    114c:	10010000 	beq	zero,at,1150 <NB_PROCS+0x114c>
    1150:	00004801 	movf	t1,zero,$fcc0
    1154:	44910200 	0x44910200
    1158:	78616d15 	0x78616d15
    115c:	01110100 	0x1110100
    1160:	00000048 	0x48
    1164:	15409102 	bnez	t2,fffe5570 <tab_main+0x403e54e0>
    1168:	12010069 	beq	s0,at,1310 <NB_PROCS+0x130c>
    116c:	00004801 	movf	t1,zero,$fcc0
    1170:	bc910300 	cache	0x11,768(a0)
    1174:	6572157f 	0x6572157f
    1178:	13010074 	beq	t8,at,134c <NB_PROCS+0x1348>
    117c:	00017501 	0x17501
    1180:	b8910300 	swr	s1,768(a0)
    1184:	040e007f 	tnei	zero,127
    1188:	00000175 	0x175
    118c:	0003a410 	0x3a410
    1190:	00047600 	sll	t6,a0,0x18
    1194:	02c91100 	0x2c91100
    1198:	001f0000 	sll	zero,ra,0x0
    119c:	088b0113 	j	22c044c <NB_PROCS+0x22c0448>
    11a0:	67010000 	0x67010000
    11a4:	01750101 	0x1750101
    11a8:	08280000 	j	a00000 <NB_PROCS+0x9ffffc>
    11ac:	0c1c2000 	jal	708000 <NB_PROCS+0x707ffc>
    11b0:	049c2000 	0x49c2000
    11b4:	05600000 	bltz	t3,11b8 <NB_PROCS+0x11b4>
    11b8:	70140000 	madd	zero,s4
    11bc:	01000007 	srav	zero,zero,t0
    11c0:	026d0167 	0x26d0167
    11c4:	91020000 	lbu	v0,0(t0)
    11c8:	61151700 	0x61151700
    11cc:	69010070 	0x69010070
    11d0:	00003201 	0x3201
    11d4:	60910200 	0x60910200
    11d8:	0007eb18 	0x7eb18
    11dc:	01b60100 	0x1b60100
    11e0:	20000850 	addi	zero,zero,2128
    11e4:	0008d318 	0x8d318
    11e8:	01820100 	0x1820100
    11ec:	20000908 	addi	zero,zero,2312
    11f0:	00085819 	0x85819
    11f4:	00090820 	add	at,zero,t1
    11f8:	0004e520 	0x4e520
    11fc:	00691500 	0x691500
    1200:	48016f01 	0x48016f01
    1204:	02000000 	0x2000000
    1208:	1a005c91 	blez	s0,18450 <NB_PROCS+0x1844c>
    120c:	000000f0 	tge	zero,zero,0x3
    1210:	6c617615 	0x6c617615
    1214:	01850100 	0x1850100
    1218:	00000175 	0x175
    121c:	15589102 	bne	t2,t8,fffe5628 <tab_main+0x403e5598>
    1220:	00667562 	0x667562
    1224:	60018601 	0x60018601
    1228:	02000005 	0x2000005
    122c:	77166491 	jalx	c599244 <seg_stack_base+0x8599244>
    1230:	01000007 	srav	zero,zero,t0
    1234:	026d0187 	0x26d0187
    1238:	91020000 	lbu	v0,0(t0)
    123c:	656c1554 	0x656c1554
    1240:	8801006e 	lwl	at,110(zero)
    1244:	00004801 	movf	t1,zero,$fcc0
    1248:	50910200 	beql	a0,s1,1a4c <NB_PROCS+0x1a48>
    124c:	00056316 	0x56316
    1250:	01890100 	0x1890100
    1254:	00000580 	sll	zero,zero,0x16
    1258:	00a40305 	0xa40305
    125c:	69153100 	0x69153100
    1260:	018a0100 	0x18a0100
    1264:	00000048 	0x48
    1268:	1b4c9102 	0x1b4c9102
    126c:	20000ba4 	addi	zero,zero,2980
    1270:	20000be0 	addi	zero,zero,3040
    1274:	72747315 	0x72747315
    1278:	01b00100 	0x1b00100
    127c:	0000026d 	0x26d
    1280:	00489102 	0x489102
    1284:	2c100000 	sltiu	s0,zero,0
    1288:	70000002 	mul	zero,zero,zero
    128c:	11000005 	beqz	t0,12a4 <NB_PROCS+0x12a0>
    1290:	000002c9 	0x2c9
    1294:	2c100013 	sltiu	s0,zero,19
    1298:	80000002 	lb	zero,2(zero)
    129c:	11000005 	beqz	t0,12b4 <NB_PROCS+0x12b0>
    12a0:	000002c9 	0x2c9
    12a4:	701c0010 	0x701c0010
    12a8:	13000005 	beqz	t8,12c0 <NB_PROCS+0x12bc>
    12ac:	00084101 	0x84101
    12b0:	01cb0100 	0x1cb0100
    12b4:	00017501 	0x17501
    12b8:	000c1c00 	sll	v1,t4,0x10
    12bc:	000c5820 	add	t3,zero,t4
    12c0:	0004bc20 	0x4bc20
    12c4:	0005c200 	sll	t8,a1,0x8
    12c8:	03b61400 	0x3b61400
    12cc:	cb010000 	lwc2	$1,0(t8)
    12d0:	00017501 	0x17501
    12d4:	00910200 	0x910200
    12d8:	6c61761d 	0x6c61761d
    12dc:	01cb0100 	0x1cb0100
    12e0:	00000175 	0x175
    12e4:	00049102 	srl	s2,a0,0x4
    12e8:	08c20113 	j	308044c <NB_PROCS+0x3080448>
    12ec:	d7010000 	ldc1	$f1,0(t8)
    12f0:	01750101 	0x1750101
    12f4:	0c580000 	jal	1600000 <NB_PROCS+0x15ffffc>
    12f8:	0c942000 	jal	2508000 <NB_PROCS+0x2507ffc>
    12fc:	04db2000 	0x4db2000
    1300:	05ff0000 	0x5ff0000
    1304:	b6140000 	0xb6140000
    1308:	01000003 	0x1000003
    130c:	017501d7 	0x17501d7
    1310:	91020000 	lbu	v0,0(t0)
    1314:	61761d00 	0x61761d00
    1318:	d701006c 	ldc1	$f1,108(t8)
    131c:	00017501 	0x17501
    1320:	04910200 	bgezal	a0,1b24 <NB_PROCS+0x1b20>
    1324:	7b011300 	0x7b011300
    1328:	01000008 	jr	t0
    132c:	750101e2 	jalx	4040788 <seg_stack_base+0x40788>
    1330:	94000001 	lhu	zero,1(zero)
    1334:	cc20000c 	pref	0x0,12(at)
    1338:	fa20000c 	sdc2	$0,12(s1)
    133c:	2d000004 	sltiu	zero,t0,4
    1340:	14000006 	bnez	zero,135c <NB_PROCS+0x1358>
    1344:	000003b6 	tne	zero,zero,0xe
    1348:	7501e201 	jalx	4078804 <seg_stack_base+0x78804>
    134c:	02000001 	movf	zero,s0,$fcc0
    1350:	13000091 	beqz	t8,1598 <NB_PROCS+0x1594>
    1354:	00082301 	0x82301
    1358:	01ed0100 	0x1ed0100
    135c:	00017501 	0x17501
    1360:	000ccc00 	sll	t9,t4,0x10
    1364:	000d0c20 	0xd0c20
    1368:	00051920 	0x51920
    136c:	00066a00 	sll	t5,a2,0x8
    1370:	03b61400 	0x3b61400
    1374:	ed010000 	swc3	$1,0(t0)
    1378:	00017501 	0x17501
    137c:	00910200 	0x910200
    1380:	00082d14 	0x82d14
    1384:	01ed0100 	0x1ed0100
    1388:	00000460 	0x460
    138c:	00049102 	srl	s2,a0,0x4
    1390:	06d70113 	0x6d70113
    1394:	fc010000 	sdc3	$1,0(zero)
    1398:	01750101 	0x1750101
    139c:	0d0c0000 	jal	4300000 <seg_stack_base+0x300000>
    13a0:	0d442000 	jal	5108000 <seg_stack_base+0x1108000>
    13a4:	05382000 	0x5382000
    13a8:	06980000 	0x6980000
    13ac:	761d0000 	jalx	8740000 <seg_stack_base+0x4740000>
    13b0:	01006c61 	0x1006c61
    13b4:	017501fc 	0x17501fc
    13b8:	91020000 	lbu	v0,0(t0)
    13bc:	01130000 	0x1130000
    13c0:	000006e3 	0x6e3
    13c4:	01020701 	0x1020701
    13c8:	00000175 	0x175
    13cc:	20000d44 	addi	zero,zero,3396
    13d0:	20000d7c 	addi	zero,zero,3452
    13d4:	00000557 	0x557
    13d8:	000006c6 	0x6c6
    13dc:	6c61761d 	0x6c61761d
    13e0:	02070100 	0x2070100
    13e4:	00000175 	0x175
    13e8:	00009102 	srl	s2,zero,0x4
    13ec:	08e40113 	j	390044c <NB_PROCS+0x3900448>
    13f0:	12010000 	beq	s0,at,13f4 <NB_PROCS+0x13f0>
    13f4:	01750102 	0x1750102
    13f8:	0d7c0000 	jal	5f00000 <seg_stack_base+0x1f00000>
    13fc:	0db42000 	jal	6d08000 <seg_stack_base+0x2d08000>
    1400:	05762000 	0x5762000
    1404:	06f40000 	0x6f40000
    1408:	761d0000 	jalx	8740000 <seg_stack_base+0x4740000>
    140c:	01006c61 	0x1006c61
    1410:	01750212 	0x1750212
    1414:	91020000 	lbu	v0,0(t0)
    1418:	01130000 	0x1130000
    141c:	0000066d 	0x66d
    1420:	01021d01 	0x1021d01
    1424:	00000175 	0x175
    1428:	20000db4 	addi	zero,zero,3508
    142c:	20000df0 	addi	zero,zero,3568
    1430:	00000595 	0x595
    1434:	00000722 	0x722
    1438:	6c61761d 	0x6c61761d
    143c:	021d0100 	0x21d0100
    1440:	00000460 	0x460
    1444:	00009102 	srl	s2,zero,0x4
    1448:	08a40113 	j	290044c <NB_PROCS+0x2900448>
    144c:	28010000 	slti	at,zero,0
    1450:	01750102 	0x1750102
    1454:	0df00000 	jal	7c00000 <seg_stack_base+0x3c00000>
    1458:	0e2c2000 	jal	8b08000 <seg_stack_base+0x4b08000>
    145c:	05b42000 	0x5b42000
    1460:	07500000 	bltzal	k0,1464 <NB_PROCS+0x1460>
    1464:	761d0000 	jalx	8740000 <seg_stack_base+0x4740000>
    1468:	01006c61 	0x1006c61
    146c:	04600228 	bltz	v1,1d10 <NB_PROCS+0x1d0c>
    1470:	91020000 	lbu	v0,0(t0)
    1474:	01130000 	0x1130000
    1478:	00000708 	0x708
    147c:	01023701 	0x1023701
    1480:	00000175 	0x175
    1484:	20000e2c 	addi	zero,zero,3628
    1488:	20000e64 	addi	zero,zero,3684
    148c:	000005d3 	0x5d3
    1490:	0000077e 	0x77e
    1494:	6c61761d 	0x6c61761d
    1498:	02370100 	0x2370100
    149c:	00000175 	0x175
    14a0:	00009102 	srl	s2,zero,0x4
    14a4:	08320113 	j	c8044c <NB_PROCS+0xc80448>
    14a8:	43010000 	c0	0x1010000
    14ac:	01750102 	0x1750102
    14b0:	0e640000 	jal	9900000 <seg_stack_base+0x5900000>
    14b4:	0e9c2000 	jal	a708000 <seg_stack_base+0x6708000>
    14b8:	05f22000 	bltzall	t7,94bc <NB_PROCS+0x94b8>
    14bc:	07ac0000 	teqi	sp,0
    14c0:	761d0000 	jalx	8740000 <seg_stack_base+0x4740000>
    14c4:	01006c61 	0x1006c61
    14c8:	01750243 	0x1750243
    14cc:	91020000 	lbu	v0,0(t0)
    14d0:	01130000 	0x1130000
    14d4:	00000685 	0x685
    14d8:	01024e01 	0x1024e01
    14dc:	00000175 	0x175
    14e0:	20000e9c 	addi	zero,zero,3740
    14e4:	20000ed8 	addi	zero,zero,3800
    14e8:	00000611 	0x611
    14ec:	000007da 	0x7da
    14f0:	00080514 	0x80514
    14f4:	024e0100 	0x24e0100
    14f8:	00000460 	0x460
    14fc:	00009102 	srl	s2,zero,0x4
    1500:	06ca0113 	tlti	s6,275
    1504:	59010000 	0x59010000
    1508:	01750102 	0x1750102
    150c:	0ed80000 	jal	b600000 <seg_stack_base+0x7600000>
    1510:	0f142000 	jal	c508000 <seg_stack_base+0x8508000>
    1514:	06302000 	bltzal	s1,9518 <NB_PROCS+0x9514>
    1518:	08080000 	j	200000 <NB_PROCS+0x1ffffc>
    151c:	05140000 	0x5140000
    1520:	01000008 	jr	t0
    1524:	04600259 	bltz	v1,1e8c <NB_PROCS+0x1e88>
    1528:	91020000 	lbu	v0,0(t0)
    152c:	01130000 	0x1130000
    1530:	00000742 	srl	zero,zero,0x1d
    1534:	01026501 	0x1026501
    1538:	00000175 	0x175
    153c:	20000f14 	addi	zero,zero,3860
    1540:	20000f50 	addi	zero,zero,3920
    1544:	0000064f 	sync	0x19
    1548:	00000836 	tne	zero,zero,0x20
    154c:	00080514 	0x80514
    1550:	02650100 	0x2650100
    1554:	00000460 	0x460
    1558:	00009102 	srl	s2,zero,0x4
    155c:	07de0113 	0x7de0113
    1560:	77010000 	jalx	c040000 <seg_stack_base+0x8040000>
    1564:	01750102 	0x1750102
    1568:	0f500000 	jal	d400000 <seg_stack_base+0x9400000>
    156c:	0f882000 	jal	e208000 <seg_stack_base+0xa208000>
    1570:	066e2000 	tnei	s3,8192
    1574:	08640000 	j	1900000 <NB_PROCS+0x18ffffc>
    1578:	1c140000 	0x1c140000
    157c:	01000004 	sllv	zero,zero,t0
    1580:	01750277 	0x1750277
    1584:	91020000 	lbu	v0,0(t0)
    1588:	01130000 	0x1130000
    158c:	000007d1 	0x7d1
    1590:	01028301 	0x1028301
    1594:	00000175 	0x175
    1598:	20000f88 	addi	zero,zero,3976
    159c:	20000fc0 	addi	zero,zero,4032
    15a0:	0000068d 	break	0x0,0x1a
    15a4:	00000892 	0x892
    15a8:	00041c14 	0x41c14
    15ac:	02830100 	0x2830100
    15b0:	00000175 	0x175
    15b4:	00009102 	srl	s2,zero,0x4
    15b8:	02420113 	0x2420113
    15bc:	95010000 	lhu	at,0(t0)
    15c0:	01750102 	0x1750102
    15c4:	0fc00000 	jal	f000000 <seg_stack_base+0xb000000>
    15c8:	10082000 	beq	zero,t0,95cc <NB_PROCS+0x95c8>
    15cc:	06ac2000 	teqi	s5,8192
    15d0:	08de0000 	j	3780000 <NB_PROCS+0x377fffc>
    15d4:	6c1d0000 	0x6c1d0000
    15d8:	01006162 	0x1006162
    15dc:	003d0295 	0x3d0295
    15e0:	91020000 	lbu	v0,0(t0)
    15e4:	08051400 	j	145000 <NB_PROCS+0x144ffc>
    15e8:	95010000 	lhu	at,0(t0)
    15ec:	0008de02 	srl	k1,t0,0x18
    15f0:	04910200 	bgezal	a0,1df4 <NB_PROCS+0x1df0>
    15f4:	0004ce14 	0x4ce14
    15f8:	02950100 	0x2950100
    15fc:	0000003d 	0x3d
    1600:	00089102 	srl	s2,t0,0x4
    1604:	0113041e 	0x113041e
    1608:	000003a3 	0x3a3
    160c:	0102a601 	0x102a601
    1610:	00000175 	0x175
    1614:	20001008 	addi	zero,zero,4104
    1618:	20001050 	addi	zero,zero,4176
    161c:	000006cb 	0x6cb
    1620:	0000092c 	0x92c
    1624:	61626c1d 	0x61626c1d
    1628:	02a60100 	0x2a60100
    162c:	0000003d 	0x3d
    1630:	14009102 	bnez	zero,fffe5a3c <tab_main+0x403e59ac>
    1634:	00000805 	0x805
    1638:	de02a601 	ldc3	$2,-23039(s0)
    163c:	02000008 	jr	s0
    1640:	ce140491 	pref	0x14,1169(s0)
    1644:	01000004 	sllv	zero,zero,t0
    1648:	003d02a6 	0x3d02a6
    164c:	91020000 	lbu	v0,0(t0)
    1650:	011f0008 	0x11f0008
    1654:	00000433 	tltu	zero,zero,0x10
    1658:	7502b401 	jalx	40ad004 <seg_stack_base+0xad004>
    165c:	50000001 	beqzl	zero,1664 <NB_PROCS+0x1660>
    1660:	84200010 	lh	zero,16(at)
    1664:	ea200010 	swc2	$0,16(s1)
    1668:	13000006 	beqz	t8,1684 <NB_PROCS+0x1680>
    166c:	00033c01 	0x33c01
    1670:	02c50100 	0x2c50100
    1674:	00017501 	0x17501
    1678:	00108400 	sll	s0,s0,0x10
    167c:	0010cc20 	0x10cc20
    1680:	00070920 	0x70920
    1684:	00099100 	sll	s2,t1,0x4
    1688:	02771400 	0x2771400
    168c:	c5010000 	lwc1	$f1,0(t0)
    1690:	00003d02 	srl	a3,zero,0x14
    1694:	00910200 	0x910200
    1698:	00080514 	0x80514
    169c:	02c50100 	0x2c50100
    16a0:	000008de 	0x8de
    16a4:	14049102 	bne	zero,a0,fffe5ab0 <tab_main+0x403e5a20>
    16a8:	000002d4 	0x2d4
    16ac:	3d02c501 	0x3d02c501
    16b0:	02000000 	0x2000000
    16b4:	13000891 	beqz	t8,38fc <NB_PROCS+0x38f8>
    16b8:	00048101 	0x48101
    16bc:	02d60100 	0x2d60100
    16c0:	00017501 	0x17501
    16c4:	0010cc00 	sll	t9,s0,0x10
    16c8:	00111420 	0x111420
    16cc:	00072820 	add	a1,zero,a3
    16d0:	0009dd00 	sll	k1,t1,0x14
    16d4:	02771400 	0x2771400
    16d8:	d6010000 	ldc1	$f1,0(s0)
    16dc:	00003d02 	srl	a3,zero,0x14
    16e0:	00910200 	0x910200
    16e4:	00080514 	0x80514
    16e8:	02d60100 	0x2d60100
    16ec:	000008de 	0x8de
    16f0:	14049102 	bne	zero,a0,fffe5afc <tab_main+0x403e5a6c>
    16f4:	000002d4 	0x2d4
    16f8:	3d02d601 	0x3d02d601
    16fc:	02000000 	0x2000000
    1700:	13000891 	beqz	t8,3948 <NB_PROCS+0x3944>
    1704:	00039901 	0x39901
    1708:	02ea0100 	0x2ea0100
    170c:	00017501 	0x17501
    1710:	00111400 	sll	v0,s1,0x10
    1714:	00115c20 	0x115c20
    1718:	00074720 	0x74720
    171c:	000a2900 	sll	a1,t2,0x4
    1720:	02771400 	0x2771400
    1724:	ea010000 	swc2	$1,0(s0)
    1728:	00003d02 	srl	a3,zero,0x14
    172c:	00910200 	0x910200
    1730:	00080514 	0x80514
    1734:	02ea0100 	0x2ea0100
    1738:	000008de 	0x8de
    173c:	14049102 	bne	zero,a0,fffe5b48 <tab_main+0x403e5ab8>
    1740:	000002d4 	0x2d4
    1744:	3d02ea01 	0x3d02ea01
    1748:	02000000 	0x2000000
    174c:	13000891 	beqz	t8,3994 <NB_PROCS+0x3990>
    1750:	0002bf01 	0x2bf01
    1754:	02fe0100 	0x2fe0100
    1758:	00017501 	0x17501
    175c:	00115c00 	sll	t3,s1,0x10
    1760:	0011a420 	0x11a420
    1764:	00076620 	0x76620
    1768:	000a7500 	sll	t6,t2,0x14
    176c:	02771400 	0x2771400
    1770:	fe010000 	sdc3	$1,0(s0)
    1774:	00003d02 	srl	a3,zero,0x14
    1778:	00910200 	0x910200
    177c:	00080514 	0x80514
    1780:	02fe0100 	0x2fe0100
    1784:	000008de 	0x8de
    1788:	14049102 	bne	zero,a0,fffe5b94 <tab_main+0x403e5b04>
    178c:	000002d4 	0x2d4
    1790:	3d02fe01 	0x3d02fe01
    1794:	02000000 	0x2000000
    1798:	1f000891 	bgtz	t8,39e0 <NB_PROCS+0x39dc>
    179c:	0001da01 	0x1da01
    17a0:	030c0100 	0x30c0100
    17a4:	00000175 	0x175
    17a8:	200011a4 	addi	zero,zero,4516
    17ac:	200011d8 	addi	zero,zero,4568
    17b0:	00000785 	0x785
    17b4:	00006500 	sll	t4,zero,0x14
    17b8:	8d000200 	lw	zero,512(t0)
    17bc:	04000003 	bltz	zero,17cc <NB_PROCS+0x17c8>
    17c0:	00057901 	0x57901
    17c4:	09590100 	j	5640400 <seg_stack_base+0x1640400>
    17c8:	08ee0000 	j	3b80000 <NB_PROCS+0x3b7fffc>
    17cc:	11d80000 	beq	t6,t8,17d0 <NB_PROCS+0x17cc>
    17d0:	12082000 	beq	s0,t0,97d4 <NB_PROCS+0x97d0>
    17d4:	04d22000 	bltzall	a2,97d8 <NB_PROCS+0x97d4>
    17d8:	04020000 	bltzl	zero,17dc <NB_PROCS+0x17d8>
    17dc:	00035407 	0x35407
    17e0:	60010300 	0x60010300
    17e4:	01000009 	jalr	zero,t0
    17e8:	00005503 	sra	t2,zero,0x14
    17ec:	0011d800 	sll	k1,s1,0x0
    17f0:	00120820 	add	at,zero,s2
    17f4:	0007a420 	0x7a420
    17f8:	00005500 	sll	t2,zero,0x14
    17fc:	00630400 	0x630400
    1800:	005c0501 	0x5c0501
    1804:	91020000 	lbu	v0,0(t0)
    1808:	04050070 	0x4050070
    180c:	746e6905 	jalx	1b9a414 <NB_PROCS+0x1b9a410>
    1810:	00610600 	0x610600
    1814:	01020000 	0x1020000
    1818:	00030306 	0x30306
	...

Disassembly of section .debug_line:

00000000 <.debug_line>:
   0:	00000249 	0x249
   4:	00810002 	0x810002
   8:	01010000 	0x1010000
   c:	000d0efb 	0xd0efb
  10:	01010101 	0x1010101
  14:	01000000 	0x1000000
  18:	2f010000 	sltiu	at,t8,0
  1c:	72657355 	0x72657355
  20:	6c612f73 	0x6c612f73
  24:	2f6e6961 	sltiu	t6,k1,26977
  28:	75636f44 	jalx	58dbd10 <seg_stack_base+0x18dbd10>
  2c:	746e656d 	jalx	1b995b4 <NB_PROCS+0x1b995b0>
  30:	696c2f73 	0x696c2f73
  34:	636e6563 	0x636e6563
  38:	6c612f65 	0x6c612f65
  3c:	732f6f6d 	0x732f6f6d
  40:	2f74666f 	sltiu	s4,k1,26223
  44:	74656967 	jalx	195a59c <NB_PROCS+0x195a598>
  48:	72640000 	madd	s3,a0
  4c:	72657669 	0x72657669
  50:	00632e73 	tltu	v1,v1,0xb9
  54:	64000001 	0x64000001
  58:	682e616d 	0x682e616d
  5c:	00000100 	sll	zero,zero,0x4
  60:	656d6974 	0x656d6974
  64:	00682e72 	tlt	v1,t0,0xb9
  68:	62000001 	0x62000001
  6c:	6b636f6c 	0x6b636f6c
  70:	7665645f 	jalx	995917c <seg_stack_base+0x595917c>
  74:	2e656369 	sltiu	a1,s3,25449
  78:	00010068 	0x10068
  7c:	69726400 	0x69726400
  80:	73726576 	0x73726576
  84:	0100682e 	0x100682e
  88:	00000000 	nop
  8c:	08e80205 	j	3a00814 <NB_PROCS+0x3a00810>
  90:	da038000 	ldc2	$3,-32768(s0)
  94:	83f30100 	lb	s3,256(ra)
  98:	83e50883 	lb	a1,2179(ra)
  9c:	b8132802 	swr	s3,10242(zero)
  a0:	838483f7 	lb	a0,-31753(gp)
  a4:	08112802 	j	44a008 <NB_PROCS+0x44a004>
  a8:	4cc14be7 	0x4cc14be7
  ac:	4c888383 	0x4c888383
  b0:	4c884b83 	0x4c884b83
  b4:	88838383 	lwl	v1,-31869(a0)
  b8:	8383834c 	lb	v1,-31924(gp)
  bc:	0884bf89 	j	212fe24 <NB_PROCS+0x212fe20>
  c0:	49b88577 	0x49b88577
  c4:	89162402 	lwl	s6,9218(t0)
  c8:	142c02bb 	bne	at,t4,bb8 <NB_PROCS+0xbb4>
  cc:	136802bc 	beq	k1,t0,bc0 <NB_PROCS+0xbbc>
  d0:	a808ad08 	swl	t0,-21240(zero)
  d4:	bbc0b208 	swr	zero,-19960(s8)
  d8:	bc143802 	cache	0x14,14338(zero)
  dc:	08134802 	j	4d2008 <NB_PROCS+0x4d2004>
  e0:	c0b10871 	ll	s1,2161(a1)
  e4:	3002bbf6 	andi	v0,zero,0xbbf6
  e8:	08750814 	j	1d42050 <NB_PROCS+0x1d4204c>
  ec:	f6c04b75 	sdc1	$f0,19317(s6)
  f0:	143002bb 	bne	at,s0,be0 <NB_PROCS+0xbdc>
  f4:	ad087508 	sw	t0,29960(t0)
  f8:	ba11034b 	swr	s1,843(s0)
  fc:	4dbcbbf5 	0x4dbcbbf5
 100:	08e508bb 	j	39422ec <NB_PROCS+0x39422e8>
 104:	02e608ad 	0x2e608ad
 108:	08bc1428 	j	2f050a0 <NB_PROCS+0x2f0509c>
 10c:	037508af 	0x37508af
 110:	2802ba7a 	slti	v0,zero,-17798
 114:	034b5114 	0x34b5114
 118:	bbf5f20e 	swr	s5,-3570(ra)
 11c:	bbad08bd 	swr	t5,2237(sp)
 120:	ad08e508 	sw	t0,-6904(t0)
 124:	7508e608 	jalx	4239820 <seg_stack_base+0x239820>
 128:	02142c02 	0x2142c02
 12c:	75081324 	jalx	4204c90 <seg_stack_base+0x204c90>
 130:	f20d034b 	0xf20d034b
 134:	08bdbbf5 	j	2f6efd4 <NB_PROCS+0x2f6efd0>
 138:	e508bbad 	swc1	$f8,-17491(t0)
 13c:	e608ad08 	swc1	$f8,-21240(s0)
 140:	08142802 	j	50a008 <NB_PROCS+0x50a004>
 144:	be3d08e6 	cache	0x1d,2278(s1)
 148:	0883f84c 	j	20fe130 <NB_PROCS+0x20fe12c>
 14c:	8383bcad 	lb	v1,-17235(gp)
 150:	02132402 	0x2132402
 154:	e5081324 	swc1	$f8,4900(t0)
 158:	820903f4 	lb	t1,1012(s0)
 15c:	ad08bbf4 	sw	t0,-17420(t0)
 160:	02bbae08 	0x2bbae08
 164:	f94b1324 	sdc2	$11,4900(t2)
 168:	ad08bbf4 	sw	t0,-17420(t0)
 16c:	02bbae08 	0x2bbae08
 170:	f84b1328 	sdc2	$11,4904(v0)
 174:	bbae08bc 	swr	t6,2236(sp)
 178:	c14b7508 	ll	t3,29960(t2)
 17c:	bbae08bc 	swr	t6,2236(sp)
 180:	c14bad08 	ll	t3,-21240(t2)
 184:	e608bb86 	swc1	$f8,-17530(s0)
 188:	4b3d08bb 	c2	0x13d08bb
 18c:	c0ba0a03 	ll	k0,2563(a1)
 190:	bcae08bb 	cache	0xe,2235(a1)
 194:	843d084c 	lh	sp,2124(at)
 198:	08e10848 	j	3842120 <NB_PROCS+0x384211c>
 19c:	1a034bb4 	0x1a034bb4
 1a0:	bf3d08ba 	cache	0x1d,2234(t9)
 1a4:	132402f3 	beq	t9,a0,d74 <NB_PROCS+0xd70>
 1a8:	3d084108 	0x3d084108
 1ac:	28024884 	slti	v0,zero,18564
 1b0:	bd44080f 	cache	0x4,2063(t2)
 1b4:	f3f3f3bb 	0xf3f3f3bb
 1b8:	0c034bf3 	jal	d2fcc <NB_PROCS+0xd2fc8>
 1bc:	bf3d08ba 	cache	0x1d,2234(t9)
 1c0:	132402f3 	beq	t9,a0,d90 <NB_PROCS+0xd8c>
 1c4:	3d084108 	0x3d084108
 1c8:	28024884 	slti	v0,zero,18564
 1cc:	bd44080f 	cache	0x4,2063(t2)
 1d0:	f3f3f3bb 	0xf3f3f3bb
 1d4:	4b7608f4 	c2	0x17608f4
 1d8:	13ba0a03 	beq	sp,k0,29e8 <NB_PROCS+0x29e4>
 1dc:	08f64884 	j	3d92210 <NB_PROCS+0x3d9220c>
 1e0:	83bb813d 	lb	k1,-32451(sp)
 1e4:	820f034b 	lb	t7,843(s0)
 1e8:	863d08f3 	lh	sp,2291(s1)
 1ec:	7708e508 	jalx	c239420 <seg_stack_base+0x8239420>
 1f0:	4b134c02 	c2	0x1134c02
 1f4:	f3ba0903 	0xf3ba0903
 1f8:	08863d08 	j	218f420 <NB_PROCS+0x218f41c>
 1fc:	027708e5 	0x27708e5
 200:	034b1354 	0x34b1354
 204:	3d08ba13 	0x3d08ba13
 208:	08bf3d08 	j	2fcf420 <NB_PROCS+0x2fcf41c>
 20c:	084108ad 	j	10422b4 <NB_PROCS+0x10422b0>
 210:	0848843d 	j	12210f4 <NB_PROCS+0x12210f0>
 214:	827903e8 	lb	t9,1000(s3)
 218:	3c080903 	lui	t0,0x903
 21c:	f3bbbbbd 	0xf3bbbbbd
 220:	09034bf3 	j	40d2fcc <seg_stack_base+0xd2fcc>
 224:	083d08ba 	j	f422e8 <NB_PROCS+0xf422e4>
 228:	ad08bf3d 	sw	t0,-16579(t0)
 22c:	3d084108 	0x3d084108
 230:	28024884 	slti	v0,zero,18564
 234:	bd44080f 	cache	0x4,2063(t2)
 238:	f4f3bbbb 	sdc1	$f19,-17477(a3)
 23c:	09034bbc 	j	40d2ef0 <seg_stack_base+0xd2ef0>
 240:	488413ba 	0x488413ba
 244:	4b7508f6 	c2	0x17508f6
 248:	01000802 	0x1000802
 24c:	00028101 	0x28101
 250:	c9000200 	lwc2	$0,512(t0)
 254:	01000000 	0x1000000
 258:	0d0efb01 	jal	43bec04 <seg_stack_base+0x3bec04>
 25c:	01010100 	0x1010100
 260:	00000001 	movf	zero,zero,$fcc0
 264:	01000001 	movf	zero,t0,$fcc0
 268:	6573552f 	0x6573552f
 26c:	612f7372 	0x612f7372
 270:	6e69616c 	0x6e69616c
 274:	636f442f 	0x636f442f
 278:	6e656d75 	0x6e656d75
 27c:	6c2f7374 	0x6c2f7374
 280:	6e656369 	0x6e656369
 284:	612f6563 	0x612f6563
 288:	2f6f6d6c 	sltiu	t7,k1,28012
 28c:	74666f73 	jalx	199bdcc <NB_PROCS+0x199bdc8>
 290:	6569672f 	0x6569672f
 294:	552f0074 	bnel	t1,t7,468 <NB_PROCS+0x464>
 298:	73726573 	0x73726573
 29c:	616c612f 	0x616c612f
 2a0:	732f6e69 	0x732f6e69
 2a4:	632f636f 	0x632f636f
 2a8:	6f6f7463 	0x6f6f7463
 2ac:	622f736c 	0x622f736c
 2b0:	2e2f6e69 	sltiu	t7,s1,28265
 2b4:	696c2f2e 	0x696c2f2e
 2b8:	63672f62 	0x63672f62
 2bc:	696d2f63 	0x696d2f63
 2c0:	6c657370 	0x6c657370
 2c4:	6b6e752d 	0x6b6e752d
 2c8:	6e776f6e 	0x6e776f6e
 2cc:	666c652d 	0x666c652d
 2d0:	342e342f 	ori	t6,at,0x342f
 2d4:	692f322e 	0x692f322e
 2d8:	756c636e 	jalx	5b18db8 <seg_stack_base+0x1b18db8>
 2dc:	00006564 	0x6564
 2e0:	69647473 	0x69647473
 2e4:	00632e6f 	0x632e6f
 2e8:	73000001 	maddu	t8,zero
 2ec:	72616474 	0x72616474
 2f0:	00682e67 	0x682e67
 2f4:	73000002 	mul	zero,t8,zero
 2f8:	6f696474 	0x6f696474
 2fc:	0100682e 	0x100682e
 300:	69740000 	0x69740000
 304:	2e72656d 	sltiu	s2,s3,25965
 308:	00010068 	0x10068
 30c:	64636700 	0x64636700
 310:	0100682e 	0x100682e
 314:	63690000 	0x63690000
 318:	00682e75 	0x682e75
 31c:	00000001 	movf	zero,zero,$fcc0
 320:	00020500 	sll	zero,v0,0x14
 324:	03200000 	0x3200000
 328:	7508011b 	jalx	420046c <seg_stack_base+0x20046c>
 32c:	4b4b4b4b 	c2	0x14b4b4b
 330:	4a18034c 	c2	0x18034c
 334:	ad0883c1 	sw	t0,-31807(t0)
 338:	ad0883f8 	sw	t0,-31752(t0)
 33c:	08bb83f8 	j	2ee0fe0 <NB_PROCS+0x2ee0fdc>
 340:	0883f9ad 	j	20fe6b4 <NB_PROCS+0x20fe6b0>
 344:	083d08e5 	j	f42394 <NB_PROCS+0xf42390>
 348:	03750876 	tne	k1,s5,0x21
 34c:	08f3f20d 	j	3cfc834 <NB_PROCS+0x3cfc830>
 350:	f20b03e8 	0xf20b03e8
 354:	b9834bbb 	swr	v1,19387(t4)
 358:	e8087708 	swc2	$8,30472(zero)
 35c:	bdf20a03 	cache	0x12,2563(t7)
 360:	136002bb 	beqz	k1,e50 <NB_PROCS+0xe4c>
 364:	08102402 	j	409008 <NB_PROCS+0x409004>
 368:	03e808b0 	tge	ra,t0,0x22
 36c:	4bbbf20b 	c2	0x1bbf20b
 370:	16240284 	bne	s1,a0,d84 <NB_PROCS+0xd80>
 374:	28027a03 	slti	v0,zero,31235
 378:	034bc201 	0x34bc201
 37c:	4bbbf20b 	c2	0x1bbf20b
 380:	16240284 	bne	s1,a0,d94 <NB_PROCS+0xd90>
 384:	28027a03 	slti	v0,zero,31235
 388:	034bc201 	0x34bc201
 38c:	4cf5f212 	0x4cf5f212
 390:	17240284 	bne	t9,a0,da4 <NB_PROCS+0xda0>
 394:	f4142802 	sdc1	$f20,10242(zero)
 398:	153002f3 	bne	t1,s0,f68 <NB_PROCS+0xf64>
 39c:	7003ad08 	0x7003ad08
 3a0:	020b03ba 	0x20b03ba
 3a4:	09030124 	j	40c0490 <seg_stack_base+0xc0490>
 3a8:	034bf34a 	0x34bf34a
 3ac:	4bbdf214 	c2	0x1bdf214
 3b0:	4e4b4b4b 	c3	0x4b4b4b
 3b4:	16240284 	bne	s1,a0,dc8 <NB_PROCS+0xdc4>
 3b8:	f4142802 	sdc1	$f20,10242(zero)
 3bc:	3d08e608 	0x3d08e608
 3c0:	887008bb 	lwl	s0,2235(v1)
 3c4:	8680e608 	lh	zero,-6648(s4)
 3c8:	bbbbbcf4 	swr	k1,-17164(sp)
 3cc:	bcf4bdbb 	cache	0x14,-16965(a3)
 3d0:	08b6bbbb 	j	2daeeec <NB_PROCS+0x2daeee8>
 3d4:	0383bbea 	0x383bbea
 3d8:	2e03ba58 	sltiu	v1,s0,-17832
 3dc:	2c02bcba 	sltiu	v0,zero,-17222
 3e0:	7ead0813 	0x7ead0813
 3e4:	08bcea08 	j	2f3a820 <NB_PROCS+0x2f3a81c>
 3e8:	bbbbbc40 	swr	k1,-17344(sp)
 3ec:	bbea08b6 	swr	t2,2230(ra)
 3f0:	0f034b84 	jal	c0d2e10 <seg_stack_base+0x80d2e10>
 3f4:	867608f2 	lh	s6,2290(s3)
 3f8:	144c02f4 	bne	v0,t4,fcc <NB_PROCS+0xfc8>
 3fc:	162402bb 	bne	s1,a0,eec <NB_PROCS+0xee8>
 400:	bb3d08f4 	swr	sp,2292(t9)
 404:	084a0a03 	j	128280c <NB_PROCS+0x1282808>
 408:	62034e3f 	0x62034e3f
 40c:	03012c02 	0x3012c02
 410:	3f03f212 	0x3f03f212
 414:	f24d034a 	0xf24d034a
 418:	f383ae08 	0xf383ae08
 41c:	bbbb8483 	swr	k1,-31613(sp)
 420:	bb182402 	swr	t8,9218(t8)
 424:	02135802 	0x2135802
 428:	24021030 	li	v0,4144
 42c:	08bb4c14 	j	2ed3050 <NB_PROCS+0x2ed304c>
 430:	24028475 	li	v0,-31627
 434:	3002bb16 	andi	v0,zero,0xbb16
 438:	02720813 	0x2720813
 43c:	bb4c1424 	swr	t4,5156(k0)
 440:	83857508 	lb	a1,29960(gp)
 444:	84132c02 	lh	s3,11266(zero)
 448:	24028584 	li	v0,-31356
 44c:	820f0316 	lb	t7,790(s0)
 450:	f8b108f3 	sdc2	$17,2291(a1)
 454:	f7b108f3 	sdc1	$f17,2291(sp)
 458:	f8b008bb 	sdc2	$16,2235(a1)
 45c:	03e908f3 	tltu	ra,t1,0x23
 460:	08bbf209 	j	2efc824 <NB_PROCS+0x2efc820>
 464:	08bbf8b0 	j	2efe2c0 <NB_PROCS+0x2efe2bc>
 468:	08bbf8b0 	j	2efe2c0 <NB_PROCS+0x2efe2bc>
 46c:	08bbf9af 	j	2efe6bc <NB_PROCS+0x2efe6b8>
 470:	08bbf8e8 	j	2efe3a0 <NB_PROCS+0x2efe39c>
 474:	f20a03e8 	0xf20a03e8
 478:	f9b008bb 	sdc2	$16,2235(t5)
 47c:	f8b008bb 	sdc2	$16,2235(a1)
 480:	f8e808bb 	sdc2	$8,2235(a3)
 484:	f9e808bb 	sdc2	$8,2235(t7)
 488:	03e808bb 	0x3e808bb
 48c:	08bbf20d 	j	2efc834 <NB_PROCS+0x2efc830>
 490:	08bbfaaf 	j	2efeabc <NB_PROCS+0x2efeab8>
 494:	f20e03af 	0xf20e03af
 498:	24023d08 	li	v0,15624
 49c:	f20b0317 	0xf20b0317
 4a0:	24023d08 	li	v0,15624
 4a4:	0883fa17 	j	20fe85c <NB_PROCS+0x20fe858>
 4a8:	f20e03ae 	0xf20e03ae
 4ac:	24023d08 	li	v0,15624
 4b0:	f20b0317 	0xf20b0317
 4b4:	24023d08 	li	v0,15624
 4b8:	f20e0317 	0xf20e0317
 4bc:	24023d08 	li	v0,15624
 4c0:	f20e0317 	0xf20e0317
 4c4:	24023d08 	li	v0,15624
 4c8:	0883fa17 	j	20fe85c <NB_PROCS+0x20fe858>
 4cc:	001002ae 	0x1002ae
 4d0:	00330101 	0x330101
 4d4:	00020000 	sll	zero,v0,0x0
 4d8:	0000001d 	0x1d
 4dc:	0efb0101 	jal	bec0404 <seg_stack_base+0x7ec0404>
 4e0:	0101000d 	break	0x101
 4e4:	00000101 	0x101
 4e8:	00000100 	sll	zero,zero,0x4
 4ec:	616d0001 	0x616d0001
 4f0:	632e6e69 	0x632e6e69
 4f4:	00000000 	nop
 4f8:	02050000 	0x2050000
 4fc:	200011d8 	addi	zero,zero,4568
 500:	f3f38715 	0xf3f38715
 504:	01000802 	0x1000802
 508:	Address 0x0000000000000508 is out of bounds.


Disassembly of section .debug_frame:

00000000 <.debug_frame>:
   0:	0000000c 	syscall
   4:	ffffffff 	sdc3	$31,-1(ra)
   8:	7c010001 	0x7c010001
   c:	001d0c1f 	0x1d0c1f
  10:	00000010 	mfhi	zero
  14:	00000000 	nop
  18:	800008e8 	lb	zero,2280(zero)
  1c:	000000fc 	0xfc
  20:	00100e44 	0x100e44
  24:	00000010 	mfhi	zero
  28:	00000000 	nop
  2c:	800009e4 	lb	zero,2532(zero)
  30:	0000001c 	0x1c
  34:	00080e44 	0x80e44
  38:	00000010 	mfhi	zero
  3c:	00000000 	nop
  40:	80000a00 	lb	zero,2560(zero)
  44:	00000018 	mult	zero,zero
  48:	00080e44 	0x80e44
  4c:	00000010 	mfhi	zero
  50:	00000000 	nop
  54:	80000a18 	lb	zero,2584(zero)
  58:	00000024 	and	zero,zero,zero
  5c:	00080e44 	0x80e44
  60:	00000010 	mfhi	zero
  64:	00000000 	nop
  68:	80000a3c 	lb	zero,2620(zero)
  6c:	00000024 	and	zero,zero,zero
  70:	00080e44 	0x80e44
  74:	00000010 	mfhi	zero
  78:	00000000 	nop
  7c:	80000a60 	lb	zero,2656(zero)
  80:	00000070 	tge	zero,zero,0x1
  84:	00080e44 	0x80e44
  88:	00000010 	mfhi	zero
  8c:	00000000 	nop
  90:	80000ad0 	lb	zero,2768(zero)
  94:	0000010c 	syscall	0x4
  98:	00100e44 	0x100e44
  9c:	00000010 	mfhi	zero
  a0:	00000000 	nop
  a4:	80000bdc 	lb	zero,3036(zero)
  a8:	000000d8 	0xd8
  ac:	00180e44 	0x180e44
  b0:	00000010 	mfhi	zero
  b4:	00000000 	nop
  b8:	80000cb4 	lb	zero,3252(zero)
  bc:	0000008c 	syscall	0x2
  c0:	00080e44 	0x80e44
  c4:	00000010 	mfhi	zero
  c8:	00000000 	nop
  cc:	80000d40 	lb	zero,3392(zero)
  d0:	00000090 	0x90
  d4:	00080e44 	0x80e44
  d8:	00000014 	0x14
  dc:	00000000 	nop
  e0:	80000dd0 	lb	zero,3536(zero)
  e4:	00000148 	0x148
  e8:	44380e44 	0x44380e44
  ec:	00011f11 	0x11f11
  f0:	00000014 	0x14
  f4:	00000000 	nop
  f8:	80000f18 	lb	zero,3864(zero)
  fc:	00000140 	sll	zero,zero,0x5
 100:	44300e44 	0x44300e44
 104:	00011f11 	0x11f11
 108:	00000014 	0x14
 10c:	00000000 	nop
 110:	80001058 	lb	zero,4184(zero)
 114:	00000128 	0x128
 118:	44300e44 	0x44300e44
 11c:	00011f11 	0x11f11
 120:	00000014 	0x14
 124:	00000000 	nop
 128:	80001180 	lb	zero,4480(zero)
 12c:	000000c0 	sll	zero,zero,0x3
 130:	44480e44 	0x44480e44
 134:	00011f11 	0x11f11
 138:	00000014 	0x14
 13c:	00000000 	nop
 140:	80001240 	lb	zero,4672(zero)
 144:	00000098 	0x98
 148:	44200e44 	0x44200e44
 14c:	00011f11 	0x11f11
 150:	00000014 	0x14
 154:	00000000 	nop
 158:	800012d8 	lb	zero,4824(zero)
 15c:	0000009c 	0x9c
 160:	44200e44 	0x44200e44
 164:	00011f11 	0x11f11
 168:	00000010 	mfhi	zero
 16c:	00000000 	nop
 170:	80001374 	lb	zero,4980(zero)
 174:	0000005c 	0x5c
 178:	00080e44 	0x80e44
 17c:	00000010 	mfhi	zero
 180:	00000000 	nop
 184:	800013d0 	lb	zero,5072(zero)
 188:	00000060 	0x60
 18c:	00080e44 	0x80e44
 190:	00000010 	mfhi	zero
 194:	00000000 	nop
 198:	80001430 	lb	zero,5168(zero)
 19c:	00000064 	0x64
 1a0:	00080e44 	0x80e44
 1a4:	00000014 	0x14
 1a8:	00000000 	nop
 1ac:	80001494 	lb	zero,5268(zero)
 1b0:	000000b0 	tge	zero,zero,0x2
 1b4:	44280e44 	0x44280e44
 1b8:	00011f11 	0x11f11
 1bc:	00000014 	0x14
 1c0:	00000000 	nop
 1c4:	80001544 	lb	zero,5444(zero)
 1c8:	0000012c 	0x12c
 1cc:	44280e44 	0x44280e44
 1d0:	00011f11 	0x11f11
 1d4:	00000014 	0x14
 1d8:	00000000 	nop
 1dc:	80001670 	lb	zero,5744(zero)
 1e0:	00000144 	0x144
 1e4:	44280e44 	0x44280e44
 1e8:	00011f11 	0x11f11
 1ec:	0000000c 	syscall
 1f0:	00000000 	nop
 1f4:	800017b4 	lb	zero,6068(zero)
 1f8:	00000058 	0x58
 1fc:	00000010 	mfhi	zero
 200:	00000000 	nop
 204:	8000180c 	lb	zero,6156(zero)
 208:	000000c0 	sll	zero,zero,0x3
 20c:	00100e44 	0x100e44
 210:	00000010 	mfhi	zero
 214:	00000000 	nop
 218:	800018cc 	lb	zero,6348(zero)
 21c:	000000c8 	0xc8
 220:	00100e44 	0x100e44
 224:	00000014 	0x14
 228:	00000000 	nop
 22c:	80001994 	lb	zero,6548(zero)
 230:	00000114 	0x114
 234:	44280e44 	0x44280e44
 238:	00011f11 	0x11f11
 23c:	00000014 	0x14
 240:	00000000 	nop
 244:	80001aa8 	lb	zero,6824(zero)
 248:	00000120 	0x120
 24c:	44280e44 	0x44280e44
 250:	00011f11 	0x11f11
 254:	0000000c 	syscall
 258:	00000000 	nop
 25c:	80001bc8 	lb	zero,7112(zero)
 260:	00000040 	ssnop
 264:	0000000c 	syscall
 268:	ffffffff 	sdc3	$31,-1(ra)
 26c:	7c010001 	0x7c010001
 270:	001d0c1f 	0x1d0c1f
 274:	00000014 	0x14
 278:	00000264 	0x264
 27c:	20000000 	addi	zero,zero,0
 280:	0000003c 	0x3c
 284:	44080e44 	0x44080e44
 288:	00011f11 	0x11f11
 28c:	00000014 	0x14
 290:	00000264 	0x264
 294:	2000003c 	addi	zero,zero,60
 298:	00000034 	teq	zero,zero
 29c:	44200e44 	0x44200e44
 2a0:	00011f11 	0x11f11
 2a4:	00000014 	0x14
 2a8:	00000264 	0x264
 2ac:	20000070 	addi	zero,zero,112
 2b0:	00000034 	teq	zero,zero
 2b4:	44200e44 	0x44200e44
 2b8:	00011f11 	0x11f11
 2bc:	00000014 	0x14
 2c0:	00000264 	0x264
 2c4:	200000a4 	addi	zero,zero,164
 2c8:	00000040 	ssnop
 2cc:	44280e44 	0x44280e44
 2d0:	00011f11 	0x11f11
 2d4:	00000014 	0x14
 2d8:	00000264 	0x264
 2dc:	200000e4 	addi	zero,zero,228
 2e0:	0000007c 	0x7c
 2e4:	44280e44 	0x44280e44
 2e8:	00011f11 	0x11f11
 2ec:	00000014 	0x14
 2f0:	00000264 	0x264
 2f4:	20000160 	addi	zero,zero,352
 2f8:	00000040 	ssnop
 2fc:	44200e44 	0x44200e44
 300:	00011f11 	0x11f11
 304:	00000014 	0x14
 308:	00000264 	0x264
 30c:	200001a0 	addi	zero,zero,416
 310:	0000006c 	0x6c
 314:	44280e44 	0x44280e44
 318:	00011f11 	0x11f11
 31c:	00000014 	0x14
 320:	00000264 	0x264
 324:	2000020c 	addi	zero,zero,524
 328:	000000e8 	0xe8
 32c:	44300e44 	0x44300e44
 330:	00011f11 	0x11f11
 334:	00000014 	0x14
 338:	00000264 	0x264
 33c:	200002f4 	addi	zero,zero,756
 340:	00000084 	0x84
 344:	44280e44 	0x44280e44
 348:	00011f11 	0x11f11
 34c:	00000014 	0x14
 350:	00000264 	0x264
 354:	20000378 	addi	zero,zero,888
 358:	00000084 	0x84
 35c:	44280e44 	0x44280e44
 360:	00011f11 	0x11f11
 364:	00000014 	0x14
 368:	00000264 	0x264
 36c:	200003fc 	addi	zero,zero,1020
 370:	0000012c 	0x12c
 374:	44300e44 	0x44300e44
 378:	00011f11 	0x11f11
 37c:	00000014 	0x14
 380:	00000264 	0x264
 384:	20000528 	addi	zero,zero,1320
 388:	00000300 	sll	zero,zero,0xc
 38c:	44600e44 	0x44600e44
 390:	00011f11 	0x11f11
 394:	00000014 	0x14
 398:	00000264 	0x264
 39c:	20000828 	addi	zero,zero,2088
 3a0:	000003f4 	teq	zero,zero,0xf
 3a4:	44500e44 	0x44500e44
 3a8:	00011f11 	0x11f11
 3ac:	00000014 	0x14
 3b0:	00000264 	0x264
 3b4:	20000c1c 	addi	zero,zero,3100
 3b8:	0000003c 	0x3c
 3bc:	44200e44 	0x44200e44
 3c0:	00011f11 	0x11f11
 3c4:	00000014 	0x14
 3c8:	00000264 	0x264
 3cc:	20000c58 	addi	zero,zero,3160
 3d0:	0000003c 	0x3c
 3d4:	44200e44 	0x44200e44
 3d8:	00011f11 	0x11f11
 3dc:	00000014 	0x14
 3e0:	00000264 	0x264
 3e4:	20000c94 	addi	zero,zero,3220
 3e8:	00000038 	0x38
 3ec:	44200e44 	0x44200e44
 3f0:	00011f11 	0x11f11
 3f4:	00000014 	0x14
 3f8:	00000264 	0x264
 3fc:	20000ccc 	addi	zero,zero,3276
 400:	00000040 	ssnop
 404:	44200e44 	0x44200e44
 408:	00011f11 	0x11f11
 40c:	00000014 	0x14
 410:	00000264 	0x264
 414:	20000d0c 	addi	zero,zero,3340
 418:	00000038 	0x38
 41c:	44200e44 	0x44200e44
 420:	00011f11 	0x11f11
 424:	00000014 	0x14
 428:	00000264 	0x264
 42c:	20000d44 	addi	zero,zero,3396
 430:	00000038 	0x38
 434:	44200e44 	0x44200e44
 438:	00011f11 	0x11f11
 43c:	00000014 	0x14
 440:	00000264 	0x264
 444:	20000d7c 	addi	zero,zero,3452
 448:	00000038 	0x38
 44c:	44200e44 	0x44200e44
 450:	00011f11 	0x11f11
 454:	00000014 	0x14
 458:	00000264 	0x264
 45c:	20000db4 	addi	zero,zero,3508
 460:	0000003c 	0x3c
 464:	44200e44 	0x44200e44
 468:	00011f11 	0x11f11
 46c:	00000014 	0x14
 470:	00000264 	0x264
 474:	20000df0 	addi	zero,zero,3568
 478:	0000003c 	0x3c
 47c:	44200e44 	0x44200e44
 480:	00011f11 	0x11f11
 484:	00000014 	0x14
 488:	00000264 	0x264
 48c:	20000e2c 	addi	zero,zero,3628
 490:	00000038 	0x38
 494:	44200e44 	0x44200e44
 498:	00011f11 	0x11f11
 49c:	00000014 	0x14
 4a0:	00000264 	0x264
 4a4:	20000e64 	addi	zero,zero,3684
 4a8:	00000038 	0x38
 4ac:	44200e44 	0x44200e44
 4b0:	00011f11 	0x11f11
 4b4:	00000014 	0x14
 4b8:	00000264 	0x264
 4bc:	20000e9c 	addi	zero,zero,3740
 4c0:	0000003c 	0x3c
 4c4:	44200e44 	0x44200e44
 4c8:	00011f11 	0x11f11
 4cc:	00000014 	0x14
 4d0:	00000264 	0x264
 4d4:	20000ed8 	addi	zero,zero,3800
 4d8:	0000003c 	0x3c
 4dc:	44200e44 	0x44200e44
 4e0:	00011f11 	0x11f11
 4e4:	00000014 	0x14
 4e8:	00000264 	0x264
 4ec:	20000f14 	addi	zero,zero,3860
 4f0:	0000003c 	0x3c
 4f4:	44200e44 	0x44200e44
 4f8:	00011f11 	0x11f11
 4fc:	00000014 	0x14
 500:	00000264 	0x264
 504:	20000f50 	addi	zero,zero,3920
 508:	00000038 	0x38
 50c:	44200e44 	0x44200e44
 510:	00011f11 	0x11f11
 514:	00000014 	0x14
 518:	00000264 	0x264
 51c:	20000f88 	addi	zero,zero,3976
 520:	00000038 	0x38
 524:	44200e44 	0x44200e44
 528:	00011f11 	0x11f11
 52c:	00000014 	0x14
 530:	00000264 	0x264
 534:	20000fc0 	addi	zero,zero,4032
 538:	00000048 	0x48
 53c:	44200e44 	0x44200e44
 540:	00011f11 	0x11f11
 544:	00000014 	0x14
 548:	00000264 	0x264
 54c:	20001008 	addi	zero,zero,4104
 550:	00000048 	0x48
 554:	44200e44 	0x44200e44
 558:	00011f11 	0x11f11
 55c:	00000014 	0x14
 560:	00000264 	0x264
 564:	20001050 	addi	zero,zero,4176
 568:	00000034 	teq	zero,zero
 56c:	44200e44 	0x44200e44
 570:	00011f11 	0x11f11
 574:	00000014 	0x14
 578:	00000264 	0x264
 57c:	20001084 	addi	zero,zero,4228
 580:	00000048 	0x48
 584:	44200e44 	0x44200e44
 588:	00011f11 	0x11f11
 58c:	00000014 	0x14
 590:	00000264 	0x264
 594:	200010cc 	addi	zero,zero,4300
 598:	00000048 	0x48
 59c:	44200e44 	0x44200e44
 5a0:	00011f11 	0x11f11
 5a4:	00000014 	0x14
 5a8:	00000264 	0x264
 5ac:	20001114 	addi	zero,zero,4372
 5b0:	00000048 	0x48
 5b4:	44200e44 	0x44200e44
 5b8:	00011f11 	0x11f11
 5bc:	00000014 	0x14
 5c0:	00000264 	0x264
 5c4:	2000115c 	addi	zero,zero,4444
 5c8:	00000048 	0x48
 5cc:	44200e44 	0x44200e44
 5d0:	00011f11 	0x11f11
 5d4:	00000014 	0x14
 5d8:	00000264 	0x264
 5dc:	200011a4 	addi	zero,zero,4516
 5e0:	00000034 	teq	zero,zero
 5e4:	44200e44 	0x44200e44
 5e8:	00011f11 	0x11f11
 5ec:	0000000c 	syscall
 5f0:	ffffffff 	sdc3	$31,-1(ra)
 5f4:	7c010001 	0x7c010001
 5f8:	001d0c1f 	0x1d0c1f
 5fc:	00000014 	0x14
 600:	000005ec 	0x5ec
 604:	200011d8 	addi	zero,zero,4568
 608:	00000030 	tge	zero,zero
 60c:	44200e44 	0x44200e44
 610:	00011f11 	0x11f11

Disassembly of section .debug_loc:

00000000 <.debug_loc>:
   0:	800008e8 	lb	zero,2280(zero)
   4:	800008ec 	lb	zero,2284(zero)
   8:	ec6d0001 	swc3	$13,1(v1)
   c:	e4800008 	swc1	$f0,8(a0)
  10:	02800009 	jalr	zero,s4
  14:	00108d00 	sll	s1,s0,0x14
  18:	00000000 	nop
  1c:	e4000000 	swc1	$f0,0(zero)
  20:	e8800009 	swc2	$0,9(a0)
  24:	01800009 	jalr	zero,t4
  28:	09e86d00 	j	7a1b400 <seg_stack_base+0x3a1b400>
  2c:	0a008000 	j	8020000 <seg_stack_base+0x4020000>
  30:	00028000 	sll	s0,v0,0x0
  34:	0000088d 	break	0x0,0x22
  38:	00000000 	nop
  3c:	0a000000 	j	8000000 <seg_stack_base+0x4000000>
  40:	0a048000 	j	8120000 <seg_stack_base+0x4120000>
  44:	00018000 	sll	s0,at,0x0
  48:	000a046d 	0xa046d
  4c:	000a1880 	sll	v1,t2,0x2
  50:	8d000280 	lw	zero,640(t0)
  54:	00000008 	jr	zero
  58:	00000000 	nop
  5c:	000a1800 	sll	v1,t2,0x0
  60:	000a1c80 	sll	v1,t2,0x12
  64:	6d000180 	0x6d000180
  68:	80000a1c 	lb	zero,2588(zero)
  6c:	80000a3c 	lb	zero,2620(zero)
  70:	088d0002 	j	2340008 <NB_PROCS+0x2340004>
  74:	00000000 	nop
  78:	00000000 	nop
  7c:	80000a3c 	lb	zero,2620(zero)
  80:	80000a40 	lb	zero,2624(zero)
  84:	406d0001 	0x406d0001
  88:	6080000a 	0x6080000a
  8c:	0280000a 	movz	zero,s4,zero
  90:	00088d00 	sll	s1,t0,0x14
  94:	00000000 	nop
  98:	60000000 	0x60000000
  9c:	6480000a 	0x6480000a
  a0:	0180000a 	movz	zero,t4,zero
  a4:	0a646d00 	j	991b400 <seg_stack_base+0x591b400>
  a8:	0ad08000 	j	b420000 <seg_stack_base+0x7420000>
  ac:	00028000 	sll	s0,v0,0x0
  b0:	0000088d 	break	0x0,0x22
  b4:	00000000 	nop
  b8:	0ad00000 	j	b400000 <seg_stack_base+0x7400000>
  bc:	0ad48000 	j	b520000 <seg_stack_base+0x7520000>
  c0:	00018000 	sll	s0,at,0x0
  c4:	000ad46d 	0xad46d
  c8:	000bdc80 	sll	k1,t3,0x12
  cc:	8d000280 	lw	zero,640(t0)
  d0:	00000010 	mfhi	zero
  d4:	00000000 	nop
  d8:	000bdc00 	sll	k1,t3,0x10
  dc:	000be080 	sll	gp,t3,0x2
  e0:	6d000180 	0x6d000180
  e4:	80000be0 	lb	zero,3040(zero)
  e8:	80000cb4 	lb	zero,3252(zero)
  ec:	188d0002 	0x188d0002
	...
  f8:	80000cb4 	lb	zero,3252(zero)
  fc:	80000cb8 	lb	zero,3256(zero)
 100:	b86d0001 	swr	t5,1(v1)
 104:	4080000c 	0x4080000c
 108:	0280000d 	break	0x280
 10c:	00088d00 	sll	s1,t0,0x14
 110:	00000000 	nop
 114:	40000000 	mfc0	zero,c0_index
 118:	4480000d 	0x4480000d
 11c:	0180000d 	break	0x180
 120:	0d446d00 	jal	511b400 <seg_stack_base+0x111b400>
 124:	0dd08000 	jal	7420000 <seg_stack_base+0x3420000>
 128:	00028000 	sll	s0,v0,0x0
 12c:	0000088d 	break	0x0,0x22
 130:	00000000 	nop
 134:	0dd00000 	jal	7400000 <seg_stack_base+0x3400000>
 138:	0dd48000 	jal	7520000 <seg_stack_base+0x3520000>
 13c:	00018000 	sll	s0,at,0x0
 140:	000dd46d 	0xdd46d
 144:	000f1880 	sll	v1,t7,0x2
 148:	8d000280 	lw	zero,640(t0)
 14c:	00000038 	0x38
 150:	00000000 	nop
 154:	000f1800 	sll	v1,t7,0x0
 158:	000f1c80 	sll	v1,t7,0x12
 15c:	6d000180 	0x6d000180
 160:	80000f1c 	lb	zero,3868(zero)
 164:	80001058 	lb	zero,4184(zero)
 168:	308d0002 	andi	t5,a0,0x2
	...
 174:	80001058 	lb	zero,4184(zero)
 178:	8000105c 	lb	zero,4188(zero)
 17c:	5c6d0001 	0x5c6d0001
 180:	80800010 	lb	zero,16(a0)
 184:	02800011 	mthi	s4
 188:	00308d00 	0x308d00
 18c:	00000000 	nop
 190:	80000000 	lb	zero,0(zero)
 194:	84800011 	lh	zero,17(a0)
 198:	01800011 	mthi	t4
 19c:	11846d00 	beq	t4,a0,1b5a0 <NB_PROCS+0x1b59c>
 1a0:	12408000 	beqz	s2,fffe01a4 <tab_main+0x403e0114>
 1a4:	00038000 	sll	s0,v1,0x0
 1a8:	0000c88d 	break	0x0,0x322
 1ac:	00000000 	nop
 1b0:	40000000 	mfc0	zero,c0_index
 1b4:	44800012 	0x44800012
 1b8:	01800012 	0x1800012
 1bc:	12446d00 	beq	s2,a0,1b5c0 <NB_PROCS+0x1b5bc>
 1c0:	12d88000 	beq	s6,t8,fffe01c4 <tab_main+0x403e0134>
 1c4:	00028000 	sll	s0,v0,0x0
 1c8:	0000208d 	break	0x0,0x82
 1cc:	00000000 	nop
 1d0:	12d80000 	beq	s6,t8,1d4 <NB_PROCS+0x1d0>
 1d4:	12dc8000 	beq	s6,gp,fffe01d8 <tab_main+0x403e0148>
 1d8:	00018000 	sll	s0,at,0x0
 1dc:	0012dc6d 	0x12dc6d
 1e0:	00137480 	sll	t6,s3,0x12
 1e4:	8d000280 	lw	zero,640(t0)
 1e8:	00000020 	add	zero,zero,zero
 1ec:	00000000 	nop
 1f0:	00137400 	sll	t6,s3,0x10
 1f4:	00137880 	sll	t7,s3,0x2
 1f8:	6d000180 	0x6d000180
 1fc:	80001378 	lb	zero,4984(zero)
 200:	800013d0 	lb	zero,5072(zero)
 204:	088d0002 	j	2340008 <NB_PROCS+0x2340004>
 208:	00000000 	nop
 20c:	00000000 	nop
 210:	800013d0 	lb	zero,5072(zero)
 214:	800013d4 	lb	zero,5076(zero)
 218:	d46d0001 	ldc1	$f13,1(v1)
 21c:	30800013 	andi	zero,a0,0x13
 220:	02800014 	0x2800014
 224:	00088d00 	sll	s1,t0,0x14
 228:	00000000 	nop
 22c:	30000000 	andi	zero,zero,0x0
 230:	34800014 	ori	zero,a0,0x14
 234:	01800014 	0x1800014
 238:	14346d00 	bne	at,s4,1b63c <NB_PROCS+0x1b638>
 23c:	14948000 	bne	a0,s4,fffe0240 <tab_main+0x403e01b0>
 240:	00028000 	sll	s0,v0,0x0
 244:	0000088d 	break	0x0,0x22
 248:	00000000 	nop
 24c:	14940000 	bne	a0,s4,250 <NB_PROCS+0x24c>
 250:	14988000 	bne	a0,t8,fffe0254 <tab_main+0x403e01c4>
 254:	00018000 	sll	s0,at,0x0
 258:	0014986d 	0x14986d
 25c:	00154480 	sll	t0,s5,0x12
 260:	8d000280 	lw	zero,640(t0)
 264:	00000028 	0x28
 268:	00000000 	nop
 26c:	00154400 	sll	t0,s5,0x10
 270:	00154880 	sll	t1,s5,0x2
 274:	6d000180 	0x6d000180
 278:	80001548 	lb	zero,5448(zero)
 27c:	80001670 	lb	zero,5744(zero)
 280:	288d0002 	slti	t5,a0,2
	...
 28c:	80001670 	lb	zero,5744(zero)
 290:	80001674 	lb	zero,5748(zero)
 294:	746d0001 	jalx	1b40004 <NB_PROCS+0x1b40000>
 298:	b4800016 	0xb4800016
 29c:	02800017 	0x2800017
 2a0:	00288d00 	0x288d00
 2a4:	00000000 	nop
 2a8:	0c000000 	jal	0 <NB_LOCKS>
 2ac:	10800018 	beqz	a0,310 <NB_PROCS+0x30c>
 2b0:	01800018 	mult	t4,zero
 2b4:	18106d00 	0x18106d00
 2b8:	18cc8000 	0x18cc8000
 2bc:	00028000 	sll	s0,v0,0x0
 2c0:	0000108d 	break	0x0,0x42
 2c4:	00000000 	nop
 2c8:	18cc0000 	0x18cc0000
 2cc:	18d08000 	0x18d08000
 2d0:	00018000 	sll	s0,at,0x0
 2d4:	0018d06d 	0x18d06d
 2d8:	00199480 	sll	s2,t9,0x12
 2dc:	8d000280 	lw	zero,640(t0)
 2e0:	00000010 	mfhi	zero
 2e4:	00000000 	nop
 2e8:	00199400 	sll	s2,t9,0x10
 2ec:	00199880 	sll	s3,t9,0x2
 2f0:	6d000180 	0x6d000180
 2f4:	80001998 	lb	zero,6552(zero)
 2f8:	80001aa8 	lb	zero,6824(zero)
 2fc:	288d0002 	slti	t5,a0,2
	...
 308:	80001aa8 	lb	zero,6824(zero)
 30c:	80001aac 	lb	zero,6828(zero)
 310:	ac6d0001 	sw	t5,1(v1)
 314:	c880001a 	lwc2	$0,26(a0)
 318:	0280001b 	divu	zero,s4,zero
 31c:	00288d00 	0x288d00
	...
 328:	04000000 	bltz	zero,32c <NB_PROCS+0x328>
 32c:	01000000 	0x1000000
 330:	00046d00 	sll	t5,a0,0x14
 334:	003c0000 	0x3c0000
 338:	00020000 	sll	zero,v0,0x0
 33c:	0000088d 	break	0x0,0x22
 340:	00000000 	nop
 344:	003c0000 	0x3c0000
 348:	00400000 	0x400000
 34c:	00010000 	sll	zero,at,0x0
 350:	0000406d 	0x406d
 354:	00007000 	sll	t6,zero,0x0
 358:	8d000200 	lw	zero,512(t0)
 35c:	00000020 	add	zero,zero,zero
 360:	00000000 	nop
 364:	00007000 	sll	t6,zero,0x0
 368:	00007400 	sll	t6,zero,0x10
 36c:	6d000100 	0x6d000100
 370:	00000074 	teq	zero,zero,0x1
 374:	000000a4 	0xa4
 378:	208d0002 	addi	t5,a0,2
	...
 384:	000000a4 	0xa4
 388:	000000a8 	0xa8
 38c:	a86d0001 	swl	t5,1(v1)
 390:	e4000000 	swc1	$f0,0(zero)
 394:	02000000 	0x2000000
 398:	00288d00 	0x288d00
 39c:	00000000 	nop
 3a0:	e4000000 	swc1	$f0,0(zero)
 3a4:	e8000000 	swc2	$0,0(zero)
 3a8:	01000000 	0x1000000
 3ac:	00e86d00 	0xe86d00
 3b0:	01600000 	0x1600000
 3b4:	00020000 	sll	zero,v0,0x0
 3b8:	0000288d 	break	0x0,0xa2
 3bc:	00000000 	nop
 3c0:	01600000 	0x1600000
 3c4:	01640000 	0x1640000
 3c8:	00010000 	sll	zero,at,0x0
 3cc:	0001646d 	0x1646d
 3d0:	0001a000 	sll	s4,at,0x0
 3d4:	8d000200 	lw	zero,512(t0)
 3d8:	00000020 	add	zero,zero,zero
 3dc:	00000000 	nop
 3e0:	0001a000 	sll	s4,at,0x0
 3e4:	0001a400 	sll	s4,at,0x10
 3e8:	6d000100 	0x6d000100
 3ec:	000001a4 	0x1a4
 3f0:	0000020c 	syscall	0x8
 3f4:	288d0002 	slti	t5,a0,2
	...
 400:	0000020c 	syscall	0x8
 404:	00000210 	0x210
 408:	106d0001 	beq	v1,t5,410 <NB_PROCS+0x40c>
 40c:	f4000002 	sdc1	$f0,2(zero)
 410:	02000002 	0x2000002
 414:	00308d00 	0x308d00
 418:	00000000 	nop
 41c:	f4000000 	sdc1	$f0,0(zero)
 420:	f8000002 	sdc2	$0,2(zero)
 424:	01000002 	0x1000002
 428:	02f86d00 	0x2f86d00
 42c:	03780000 	0x3780000
 430:	00020000 	sll	zero,v0,0x0
 434:	0000288d 	break	0x0,0xa2
 438:	00000000 	nop
 43c:	03780000 	0x3780000
 440:	037c0000 	0x37c0000
 444:	00010000 	sll	zero,at,0x0
 448:	00037c6d 	0x37c6d
 44c:	0003fc00 	sll	ra,v1,0x10
 450:	8d000200 	lw	zero,512(t0)
 454:	00000028 	0x28
 458:	00000000 	nop
 45c:	0003fc00 	sll	ra,v1,0x10
 460:	00040000 	sll	zero,a0,0x0
 464:	6d000100 	0x6d000100
 468:	00000400 	sll	zero,zero,0x10
 46c:	00000528 	0x528
 470:	308d0002 	andi	t5,a0,0x2
	...
 47c:	00000528 	0x528
 480:	0000052c 	0x52c
 484:	2c6d0001 	sltiu	t5,v1,1
 488:	28000005 	slti	zero,zero,5
 48c:	03000008 	jr	t8
 490:	00e08d00 	0xe08d00
	...
 49c:	00000828 	0x828
 4a0:	0000082c 	0x82c
 4a4:	2c6d0001 	sltiu	t5,v1,1
 4a8:	1c000008 	bgtz	zero,4cc <NB_PROCS+0x4c8>
 4ac:	0300000c 	syscall	0xc0000
 4b0:	00d08d00 	0xd08d00
	...
 4bc:	00000c1c 	0xc1c
 4c0:	00000c20 	0xc20
 4c4:	206d0001 	addi	t5,v1,1
 4c8:	5800000c 	blezl	zero,4fc <NB_PROCS+0x4f8>
 4cc:	0200000c 	syscall	0x80000
 4d0:	00208d00 	0x208d00
 4d4:	00000000 	nop
 4d8:	58000000 	blezl	zero,4dc <NB_PROCS+0x4d8>
 4dc:	5c00000c 	bgtzl	zero,510 <NB_PROCS+0x50c>
 4e0:	0100000c 	syscall	0x40000
 4e4:	0c5c6d00 	jal	171b400 <NB_PROCS+0x171b3fc>
 4e8:	0c940000 	jal	2500000 <NB_PROCS+0x24ffffc>
 4ec:	00020000 	sll	zero,v0,0x0
 4f0:	0000208d 	break	0x0,0x82
 4f4:	00000000 	nop
 4f8:	0c940000 	jal	2500000 <NB_PROCS+0x24ffffc>
 4fc:	0c980000 	jal	2600000 <NB_PROCS+0x25ffffc>
 500:	00010000 	sll	zero,at,0x0
 504:	000c986d 	0xc986d
 508:	000ccc00 	sll	t9,t4,0x10
 50c:	8d000200 	lw	zero,512(t0)
 510:	00000020 	add	zero,zero,zero
 514:	00000000 	nop
 518:	000ccc00 	sll	t9,t4,0x10
 51c:	000cd000 	sll	k0,t4,0x0
 520:	6d000100 	0x6d000100
 524:	00000cd0 	0xcd0
 528:	00000d0c 	syscall	0x34
 52c:	208d0002 	addi	t5,a0,2
	...
 538:	00000d0c 	syscall	0x34
 53c:	00000d10 	0xd10
 540:	106d0001 	beq	v1,t5,548 <NB_PROCS+0x544>
 544:	4400000d 	0x4400000d
 548:	0200000d 	break	0x200
 54c:	00208d00 	0x208d00
 550:	00000000 	nop
 554:	44000000 	mfc1	zero,$f0
 558:	4800000d 	0x4800000d
 55c:	0100000d 	break	0x100
 560:	0d486d00 	jal	521b400 <seg_stack_base+0x121b400>
 564:	0d7c0000 	jal	5f00000 <seg_stack_base+0x1f00000>
 568:	00020000 	sll	zero,v0,0x0
 56c:	0000208d 	break	0x0,0x82
 570:	00000000 	nop
 574:	0d7c0000 	jal	5f00000 <seg_stack_base+0x1f00000>
 578:	0d800000 	jal	6000000 <seg_stack_base+0x2000000>
 57c:	00010000 	sll	zero,at,0x0
 580:	000d806d 	0xd806d
 584:	000db400 	sll	s6,t5,0x10
 588:	8d000200 	lw	zero,512(t0)
 58c:	00000020 	add	zero,zero,zero
 590:	00000000 	nop
 594:	000db400 	sll	s6,t5,0x10
 598:	000db800 	sll	s7,t5,0x0
 59c:	6d000100 	0x6d000100
 5a0:	00000db8 	0xdb8
 5a4:	00000df0 	tge	zero,zero,0x37
 5a8:	208d0002 	addi	t5,a0,2
	...
 5b4:	00000df0 	tge	zero,zero,0x37
 5b8:	00000df4 	teq	zero,zero,0x37
 5bc:	f46d0001 	sdc1	$f13,1(v1)
 5c0:	2c00000d 	sltiu	zero,zero,13
 5c4:	0200000e 	0x200000e
 5c8:	00208d00 	0x208d00
 5cc:	00000000 	nop
 5d0:	2c000000 	sltiu	zero,zero,0
 5d4:	3000000e 	andi	zero,zero,0xe
 5d8:	0100000e 	0x100000e
 5dc:	0e306d00 	jal	8c1b400 <seg_stack_base+0x4c1b400>
 5e0:	0e640000 	jal	9900000 <seg_stack_base+0x5900000>
 5e4:	00020000 	sll	zero,v0,0x0
 5e8:	0000208d 	break	0x0,0x82
 5ec:	00000000 	nop
 5f0:	0e640000 	jal	9900000 <seg_stack_base+0x5900000>
 5f4:	0e680000 	jal	9a00000 <seg_stack_base+0x5a00000>
 5f8:	00010000 	sll	zero,at,0x0
 5fc:	000e686d 	0xe686d
 600:	000e9c00 	sll	s3,t6,0x10
 604:	8d000200 	lw	zero,512(t0)
 608:	00000020 	add	zero,zero,zero
 60c:	00000000 	nop
 610:	000e9c00 	sll	s3,t6,0x10
 614:	000ea000 	sll	s4,t6,0x0
 618:	6d000100 	0x6d000100
 61c:	00000ea0 	0xea0
 620:	00000ed8 	0xed8
 624:	208d0002 	addi	t5,a0,2
	...
 630:	00000ed8 	0xed8
 634:	00000edc 	0xedc
 638:	dc6d0001 	ldc3	$13,1(v1)
 63c:	1400000e 	bnez	zero,678 <NB_PROCS+0x674>
 640:	0200000f 	0x200000f
 644:	00208d00 	0x208d00
 648:	00000000 	nop
 64c:	14000000 	bnez	zero,650 <NB_PROCS+0x64c>
 650:	1800000f 	blez	zero,690 <NB_PROCS+0x68c>
 654:	0100000f 	0x100000f
 658:	0f186d00 	jal	c61b400 <seg_stack_base+0x861b400>
 65c:	0f500000 	jal	d400000 <seg_stack_base+0x9400000>
 660:	00020000 	sll	zero,v0,0x0
 664:	0000208d 	break	0x0,0x82
 668:	00000000 	nop
 66c:	0f500000 	jal	d400000 <seg_stack_base+0x9400000>
 670:	0f540000 	jal	d500000 <seg_stack_base+0x9500000>
 674:	00010000 	sll	zero,at,0x0
 678:	000f546d 	0xf546d
 67c:	000f8800 	sll	s1,t7,0x0
 680:	8d000200 	lw	zero,512(t0)
 684:	00000020 	add	zero,zero,zero
 688:	00000000 	nop
 68c:	000f8800 	sll	s1,t7,0x0
 690:	000f8c00 	sll	s1,t7,0x10
 694:	6d000100 	0x6d000100
 698:	00000f8c 	syscall	0x3e
 69c:	00000fc0 	sll	at,zero,0x1f
 6a0:	208d0002 	addi	t5,a0,2
	...
 6ac:	00000fc0 	sll	at,zero,0x1f
 6b0:	00000fc4 	0xfc4
 6b4:	c46d0001 	lwc1	$f13,1(v1)
 6b8:	0800000f 	j	3c <NB_PROCS+0x38>
 6bc:	02000010 	0x2000010
 6c0:	00208d00 	0x208d00
 6c4:	00000000 	nop
 6c8:	08000000 	j	0 <NB_LOCKS>
 6cc:	0c000010 	jal	40 <NB_PROCS+0x3c>
 6d0:	01000010 	0x1000010
 6d4:	100c6d00 	beq	zero,t4,1bad8 <NB_PROCS+0x1bad4>
 6d8:	10500000 	beq	v0,s0,6dc <NB_PROCS+0x6d8>
 6dc:	00020000 	sll	zero,v0,0x0
 6e0:	0000208d 	break	0x0,0x82
 6e4:	00000000 	nop
 6e8:	10500000 	beq	v0,s0,6ec <NB_PROCS+0x6e8>
 6ec:	10540000 	beq	v0,s4,6f0 <NB_PROCS+0x6ec>
 6f0:	00010000 	sll	zero,at,0x0
 6f4:	0010546d 	0x10546d
 6f8:	00108400 	sll	s0,s0,0x10
 6fc:	8d000200 	lw	zero,512(t0)
 700:	00000020 	add	zero,zero,zero
 704:	00000000 	nop
 708:	00108400 	sll	s0,s0,0x10
 70c:	00108800 	sll	s1,s0,0x0
 710:	6d000100 	0x6d000100
 714:	00001088 	0x1088
 718:	000010cc 	syscall	0x43
 71c:	208d0002 	addi	t5,a0,2
	...
 728:	000010cc 	syscall	0x43
 72c:	000010d0 	0x10d0
 730:	d06d0001 	0xd06d0001
 734:	14000010 	bnez	zero,778 <NB_PROCS+0x774>
 738:	02000011 	mthi	s0
 73c:	00208d00 	0x208d00
 740:	00000000 	nop
 744:	14000000 	bnez	zero,748 <NB_PROCS+0x744>
 748:	18000011 	blez	zero,790 <NB_PROCS+0x78c>
 74c:	01000011 	mthi	t0
 750:	11186d00 	beq	t0,t8,1bb54 <NB_PROCS+0x1bb50>
 754:	115c0000 	beq	t2,gp,758 <NB_PROCS+0x754>
 758:	00020000 	sll	zero,v0,0x0
 75c:	0000208d 	break	0x0,0x82
 760:	00000000 	nop
 764:	115c0000 	beq	t2,gp,768 <NB_PROCS+0x764>
 768:	11600000 	beqz	t3,76c <NB_PROCS+0x768>
 76c:	00010000 	sll	zero,at,0x0
 770:	0011606d 	0x11606d
 774:	0011a400 	sll	s4,s1,0x10
 778:	8d000200 	lw	zero,512(t0)
 77c:	00000020 	add	zero,zero,zero
 780:	00000000 	nop
 784:	0011a400 	sll	s4,s1,0x10
 788:	0011a800 	sll	s5,s1,0x0
 78c:	6d000100 	0x6d000100
 790:	000011a8 	0x11a8
 794:	000011d8 	0x11d8
 798:	208d0002 	addi	t5,a0,2
	...
 7a8:	00000004 	sllv	zero,zero,zero
 7ac:	046d0001 	0x46d0001
 7b0:	30000000 	andi	zero,zero,0x0
 7b4:	02000000 	0x2000000
 7b8:	00208d00 	0x208d00
 7bc:	00000000 	nop
 7c0:	Address 0x00000000000007c0 is out of bounds.


Disassembly of section .debug_pubnames:

00000000 <.debug_pubnames>:
   0:	00000234 	teq	zero,zero,0x8
   4:	00000002 	srl	zero,zero,0x0
   8:	0d260000 	jal	4980000 <seg_stack_base+0x980000>
   c:	01c60000 	0x1c60000
  10:	705f0000 	madd	v0,ra
  14:	69636f72 	0x69636f72
  18:	01f80064 	0x1f80064
  1c:	705f0000 	madd	v0,ra
  20:	74636f72 	jalx	18dbdc8 <NB_PROCS+0x18dbdc4>
  24:	00656d69 	0x656d69
  28:	00000223 	0x223
  2c:	5f74695f 	0x5f74695f
  30:	6b73616d 	0x6b73616d
  34:	00024a00 	sll	t1,v0,0x8
  38:	74695f00 	jalx	1a57c00 <NB_PROCS+0x1a57bfc>
  3c:	616e655f 	0x616e655f
  40:	00656c62 	0x656c62
  44:	00000271 	tgeu	zero,zero,0x9
  48:	6163645f 	0x6163645f
  4c:	5f656863 	0x5f656863
  50:	5f667562 	0x5f667562
  54:	61766e69 	0x61766e69
  58:	6164696c 	0x6164696c
  5c:	c1006574 	ll	zero,25972(t0)
  60:	5f000002 	bgtzl	t8,6c <NB_PROCS+0x68>
  64:	616f7469 	0x616f7469
  68:	6365645f 	0x6365645f
  6c:	00033600 	sll	a2,v1,0x18
  70:	74695f00 	jalx	1a57c00 <NB_PROCS+0x1a57bfc>
  74:	685f616f 	0x685f616f
  78:	9b007865 	lwr	zero,30821(t8)
  7c:	5f000003 	bgtzl	t8,8c <NB_PROCS+0x88>
  80:	656d6974 	0x656d6974
  84:	72775f72 	0x72775f72
  88:	00657469 	0x657469
  8c:	0000040a 	0x40a
  90:	6d69745f 	0x6d69745f
  94:	725f7265 	0x725f7265
  98:	00646165 	0x646165
  9c:	00000474 	teq	zero,zero,0x11
  a0:	7974745f 	0x7974745f
  a4:	6972775f 	0x6972775f
  a8:	10006574 	b	1967c <NB_PROCS+0x19678>
  ac:	5f000005 	bgtzl	t8,c4 <NB_PROCS+0xc0>
  b0:	5f797474 	0x5f797474
  b4:	64616572 	0x64616572
  b8:	7172695f 	0x7172695f
  bc:	00059800 	sll	s3,a1,0x0
  c0:	74745f00 	jalx	1d17c00 <NB_PROCS+0x1d17bfc>
  c4:	65725f79 	0x65725f79
  c8:	20006461 	addi	zero,zero,25697
  cc:	5f000006 	bgtzl	t8,e8 <NB_PROCS+0xe4>
  d0:	74697865 	jalx	1a5e194 <NB_PROCS+0x1a5e190>
  d4:	00066c00 	sll	t5,a2,0x10
  d8:	63695f00 	0x63695f00
  dc:	72775f75 	0x72775f75
  e0:	00657469 	0x657469
  e4:	000006c7 	0x6c7
  e8:	7563695f 	jalx	58da57c <seg_stack_base+0x18da57c>
  ec:	6165725f 	0x6165725f
  f0:	07220064 	bltzl	t9,284 <NB_PROCS+0x280>
  f4:	675f0000 	0x675f0000
  f8:	775f6463 	jalx	d7d918c <seg_stack_base+0x97d918c>
  fc:	65746972 	0x65746972
 100:	00076e00 	sll	t5,a3,0x18
 104:	63675f00 	0x63675f00
 108:	65725f64 	0x65725f64
 10c:	ba006461 	swr	zero,25697(s0)
 110:	5f000007 	bgtzl	t8,130 <NB_PROCS+0x12c>
 114:	6b636f6c 	0x6b636f6c
 118:	72775f73 	0x72775f73
 11c:	00657469 	0x657469
 120:	00000806 	srlv	at,zero,zero
 124:	636f6c5f 	0x636f6c5f
 128:	725f736b 	0x725f736b
 12c:	00646165 	0x646165
 130:	0000086e 	0x86e
 134:	636f695f 	0x636f695f
 138:	6972775f 	0x6972775f
 13c:	f4006574 	sdc1	$f0,25972(zero)
 140:	5f000008 	bgtzl	t8,164 <NB_PROCS+0x160>
 144:	5f636f69 	0x5f636f69
 148:	64616572 	0x64616572
 14c:	00097a00 	sll	t7,t1,0x8
 150:	6f695f00 	0x6f695f00
 154:	6f635f63 	0x6f635f63
 158:	656c706d 	0x656c706d
 15c:	00646574 	teq	v1,a0,0x195
 160:	00000991 	0x991
 164:	5f62665f 	0x5f62665f
 168:	636e7973 	0x636e7973
 16c:	6972775f 	0x6972775f
 170:	11006574 	beqz	t0,19744 <NB_PROCS+0x19740>
 174:	5f00000a 	bgtzl	t8,1a0 <NB_PROCS+0x19c>
 178:	735f6266 	0x735f6266
 17c:	5f636e79 	0x5f636e79
 180:	64616572 	0x64616572
 184:	000a8600 	sll	s0,t2,0x18
 188:	62665f00 	0x62665f00
 18c:	6972775f 	0x6972775f
 190:	0b006574 	j	c0195d0 <seg_stack_base+0x80195d0>
 194:	5f00000b 	bgtzl	t8,1c4 <NB_PROCS+0x1c0>
 198:	725f6266 	0x725f6266
 19c:	00646165 	0x646165
 1a0:	00000b90 	0xb90
 1a4:	5f62665f 	0x5f62665f
 1a8:	706d6f63 	0x706d6f63
 1ac:	6574656c 	0x6574656c
 1b0:	0c610064 	jal	1840190 <NB_PROCS+0x184018c>
 1b4:	645f0000 	0x645f0000
 1b8:	625f616d 	0x625f616d
 1bc:	00797375 	0x797375
 1c0:	00000c73 	tltu	zero,zero,0x31
 1c4:	616d645f 	0x616d645f
 1c8:	6174735f 	0x6174735f
 1cc:	00737574 	teq	v1,s3,0x1d5
 1d0:	00000c85 	0xc85
 1d4:	636f695f 	0x636f695f
 1d8:	7375625f 	0x7375625f
 1dc:	0c970079 	jal	25c01e4 <NB_PROCS+0x25c01e0>
 1e0:	695f0000 	0x695f0000
 1e4:	735f636f 	0x735f636f
 1e8:	75746174 	jalx	5d185d0 <seg_stack_base+0x1d185d0>
 1ec:	0cb90073 	jal	2e401cc <NB_PROCS+0x2e401c8>
 1f0:	745f0000 	jalx	17c0000 <NB_PROCS+0x17bfffc>
 1f4:	675f7974 	0x675f7974
 1f8:	625f7465 	0x625f7465
 1fc:	e0006675 	sc	zero,26229(zero)
 200:	5f00000c 	bgtzl	t8,234 <NB_PROCS+0x230>
 204:	5f797474 	0x5f797474
 208:	5f746567 	0x5f746567
 20c:	6c6c7566 	0x6c6c7566
 210:	000cf700 	sll	s8,t4,0x1c
 214:	74745f00 	jalx	1d17c00 <NB_PROCS+0x1d17bfc>
 218:	75705f79 	jalx	5c17de4 <seg_stack_base+0x1c17de4>
 21c:	75625f74 	jalx	5897dd0 <seg_stack_base+0x1897dd0>
 220:	0d0e0066 	jal	4380198 <seg_stack_base+0x380198>
 224:	745f0000 	jalx	17c0000 <NB_PROCS+0x17bfffc>
 228:	705f7974 	0x705f7974
 22c:	665f7475 	0x665f7475
 230:	006c6c75 	0x6c6c75
 234:	00000000 	nop
 238:	00000252 	0x252
 23c:	0d260002 	jal	4980008 <seg_stack_base+0x980008>
 240:	0a8f0000 	j	a3c0000 <seg_stack_base+0x63c0000>
 244:	00d00000 	0xd00000
 248:	79730000 	0x79730000
 24c:	61635f73 	0x61635f73
 250:	7c006c6c 	0x7c006c6c
 254:	70000001 	maddu	zero,zero
 258:	69636f72 	0x69636f72
 25c:	01940064 	0x1940064
 260:	72700000 	madd	s3,s0
 264:	6974636f 	0x6974636f
 268:	ac00656d 	sw	zero,25965(zero)
 26c:	65000001 	0x65000001
 270:	00746978 	0x746978
 274:	000001d7 	0x1d7
 278:	646e6172 	0x646e6172
 27c:	00020000 	sll	zero,v0,0x0
 280:	79747400 	0x79747400
 284:	7475705f 	jalx	1d5c17c <NB_PROCS+0x1d5c178>
 288:	02330063 	0x2330063
 28c:	74740000 	jalx	1d00000 <NB_PROCS+0x1cffffc>
 290:	75705f79 	jalx	5c17de4 <seg_stack_base+0x1c17de4>
 294:	73007374 	0x73007374
 298:	74000002 	jalx	8 <NB_PROCS+0x4>
 29c:	705f7974 	0x705f7974
 2a0:	00777475 	0x777475
 2a4:	000002cc 	syscall	0xb
 2a8:	5f797474 	0x5f797474
 2ac:	63746567 	0x63746567
 2b0:	00030600 	sll	zero,v1,0x18
 2b4:	79747400 	0x79747400
 2b8:	7465675f 	jalx	1959d7c <NB_PROCS+0x1959d78>
 2bc:	72695f63 	0x72695f63
 2c0:	03400071 	tgeu	k0,zero,0x1
 2c4:	74740000 	jalx	1d00000 <NB_PROCS+0x1cffffc>
 2c8:	65675f79 	0x65675f79
 2cc:	695f7374 	0x695f7374
 2d0:	ab007172 	swl	zero,29042(t8)
 2d4:	74000003 	jalx	c <NB_PROCS+0x8>
 2d8:	675f7974 	0x675f7974
 2dc:	5f777465 	0x5f777465
 2e0:	00717269 	0x717269
 2e4:	00000476 	tne	zero,zero,0x11
 2e8:	5f797474 	0x5f797474
 2ec:	6e697270 	0x6e697270
 2f0:	85006674 	lh	zero,26228(t0)
 2f4:	74000005 	jalx	14 <NB_PROCS+0x10>
 2f8:	72656d69 	0x72656d69
 2fc:	7465735f 	jalx	195cd7c <NB_PROCS+0x195cd78>
 300:	646f6d5f 	0x646f6d5f
 304:	05c20065 	bltzl	t6,49c <NB_PROCS+0x498>
 308:	69740000 	0x69740000
 30c:	5f72656d 	0x5f72656d
 310:	5f746573 	0x5f746573
 314:	69726570 	0x69726570
 318:	ff00646f 	sdc3	$0,25711(t8)
 31c:	74000005 	jalx	14 <NB_PROCS+0x10>
 320:	72656d69 	0x72656d69
 324:	7365725f 	0x7365725f
 328:	695f7465 	0x695f7465
 32c:	2d007172 	sltiu	zero,t0,29042
 330:	74000006 	jalx	18 <NB_PROCS+0x14>
 334:	72656d69 	0x72656d69
 338:	7465675f 	jalx	1959d7c <NB_PROCS+0x1959d78>
 33c:	6d69745f 	0x6d69745f
 340:	066a0065 	tlti	s3,101
 344:	63670000 	0x63670000
 348:	65735f64 	0x65735f64
 34c:	706f5f74 	0x706f5f74
 350:	06980061 	0x6980061
 354:	63670000 	0x63670000
 358:	65735f64 	0x65735f64
 35c:	706f5f74 	0x706f5f74
 360:	06c60062 	0x6c60062
 364:	63670000 	0x63670000
 368:	74735f64 	jalx	1cd7d90 <NB_PROCS+0x1cd7d8c>
 36c:	00747261 	0x747261
 370:	000006f4 	teq	zero,zero,0x1b
 374:	5f646367 	0x5f646367
 378:	5f746567 	0x5f746567
 37c:	74617473 	jalx	185d1cc <NB_PROCS+0x185d1c8>
 380:	22007375 	addi	zero,s0,29557
 384:	67000007 	0x67000007
 388:	675f6463 	0x675f6463
 38c:	725f7465 	0x725f7465
 390:	6c757365 	0x6c757365
 394:	07500074 	bltzal	k0,568 <NB_PROCS+0x564>
 398:	63690000 	0x63690000
 39c:	65735f75 	0x65735f75
 3a0:	616d5f74 	0x616d5f74
 3a4:	7e006b73 	0x7e006b73
 3a8:	69000007 	0x69000007
 3ac:	635f7563 	0x635f7563
 3b0:	7261656c 	0x7261656c
 3b4:	73616d5f 	0x73616d5f
 3b8:	07ac006b 	teqi	sp,107
 3bc:	63690000 	0x63690000
 3c0:	65675f75 	0x65675f75
 3c4:	616d5f74 	0x616d5f74
 3c8:	da006b73 	ldc2	$0,27507(s0)
 3cc:	69000007 	0x69000007
 3d0:	675f7563 	0x675f7563
 3d4:	695f7465 	0x695f7465
 3d8:	00737172 	tlt	v1,s3,0x1c5
 3dc:	00000808 	0x808
 3e0:	5f756369 	0x5f756369
 3e4:	5f746567 	0x5f746567
 3e8:	65646e69 	0x65646e69
 3ec:	08360078 	j	d801e0 <NB_PROCS+0xd801dc>
 3f0:	6f6c0000 	0x6f6c0000
 3f4:	615f6b63 	0x615f6b63
 3f8:	69757163 	0x69757163
 3fc:	64006572 	0x64006572
 400:	6c000008 	0x6c000008
 404:	5f6b636f 	0x5f6b636f
 408:	656c6572 	0x656c6572
 40c:	00657361 	0x657361
 410:	00000892 	0x892
 414:	5f636f69 	0x5f636f69
 418:	74697277 	jalx	1a5c9dc <NB_PROCS+0x1a5c9d8>
 41c:	08e00065 	j	3800194 <NB_PROCS+0x3800190>
 420:	6f690000 	0x6f690000
 424:	65725f63 	0x65725f63
 428:	2c006461 	sltiu	zero,zero,25697
 42c:	69000009 	0x69000009
 430:	635f636f 	0x635f636f
 434:	6c706d6f 	0x6c706d6f
 438:	64657465 	0x64657465
 43c:	00094500 	sll	t0,t1,0x14
 440:	5f626600 	0x5f626600
 444:	636e7973 	0x636e7973
 448:	6972775f 	0x6972775f
 44c:	91006574 	lbu	zero,25972(t0)
 450:	66000009 	0x66000009
 454:	79735f62 	0x79735f62
 458:	725f636e 	0x725f636e
 45c:	00646165 	0x646165
 460:	000009dd 	0x9dd
 464:	775f6266 	jalx	d7d8998 <seg_stack_base+0x97d8998>
 468:	65746972 	0x65746972
 46c:	000a2900 	sll	a1,t2,0x4
 470:	5f626600 	0x5f626600
 474:	64616572 	0x64616572
 478:	000a7500 	sll	t6,t2,0x14
 47c:	5f626600 	0x5f626600
 480:	706d6f63 	0x706d6f63
 484:	6574656c 	0x6574656c
 488:	00000064 	0x64
 48c:	00170000 	sll	zero,s7,0x0
 490:	00020000 	sll	zero,v0,0x0
 494:	000017b5 	0x17b5
 498:	00000069 	0x69
 49c:	0000002c 	0x2c
 4a0:	6e69616d 	0x6e69616d
 4a4:	00000000 	nop
	...

Disassembly of section .debug_aranges:

00000000 <.debug_aranges>:
   0:	000000f4 	teq	zero,zero,0x3
   4:	00000002 	srl	zero,zero,0x0
   8:	00040000 	sll	zero,a0,0x0
   c:	00000000 	nop
  10:	800008e8 	lb	zero,2280(zero)
  14:	000000fc 	0xfc
  18:	800009e4 	lb	zero,2532(zero)
  1c:	0000001c 	0x1c
  20:	80000a00 	lb	zero,2560(zero)
  24:	00000018 	mult	zero,zero
  28:	80000a18 	lb	zero,2584(zero)
  2c:	00000024 	and	zero,zero,zero
  30:	80000a3c 	lb	zero,2620(zero)
  34:	00000024 	and	zero,zero,zero
  38:	80000a60 	lb	zero,2656(zero)
  3c:	00000070 	tge	zero,zero,0x1
  40:	80000ad0 	lb	zero,2768(zero)
  44:	0000010c 	syscall	0x4
  48:	80000bdc 	lb	zero,3036(zero)
  4c:	000000d8 	0xd8
  50:	80000cb4 	lb	zero,3252(zero)
  54:	0000008c 	syscall	0x2
  58:	80000d40 	lb	zero,3392(zero)
  5c:	00000090 	0x90
  60:	80000dd0 	lb	zero,3536(zero)
  64:	00000148 	0x148
  68:	80000f18 	lb	zero,3864(zero)
  6c:	00000140 	sll	zero,zero,0x5
  70:	80001058 	lb	zero,4184(zero)
  74:	00000128 	0x128
  78:	80001180 	lb	zero,4480(zero)
  7c:	000000c0 	sll	zero,zero,0x3
  80:	80001240 	lb	zero,4672(zero)
  84:	00000098 	0x98
  88:	800012d8 	lb	zero,4824(zero)
  8c:	0000009c 	0x9c
  90:	80001374 	lb	zero,4980(zero)
  94:	0000005c 	0x5c
  98:	800013d0 	lb	zero,5072(zero)
  9c:	00000060 	0x60
  a0:	80001430 	lb	zero,5168(zero)
  a4:	00000064 	0x64
  a8:	80001494 	lb	zero,5268(zero)
  ac:	000000b0 	tge	zero,zero,0x2
  b0:	80001544 	lb	zero,5444(zero)
  b4:	0000012c 	0x12c
  b8:	80001670 	lb	zero,5744(zero)
  bc:	00000144 	0x144
  c0:	800017b4 	lb	zero,6068(zero)
  c4:	00000058 	0x58
  c8:	8000180c 	lb	zero,6156(zero)
  cc:	000000c0 	sll	zero,zero,0x3
  d0:	800018cc 	lb	zero,6348(zero)
  d4:	000000c8 	0xc8
  d8:	80001994 	lb	zero,6548(zero)
  dc:	00000114 	0x114
  e0:	80001aa8 	lb	zero,6824(zero)
  e4:	00000120 	0x120
  e8:	80001bc8 	lb	zero,7112(zero)
  ec:	00000040 	ssnop
	...
  f8:	0000001c 	0x1c
  fc:	0d260002 	jal	4980008 <seg_stack_base+0x980008>
 100:	00040000 	sll	zero,a0,0x0
 104:	00000000 	nop
 108:	20000000 	addi	zero,zero,0
 10c:	000011d8 	0x11d8
	...
 118:	0000001c 	0x1c
 11c:	17b50002 	bne	sp,s5,128 <NB_PROCS+0x124>
 120:	00040000 	sll	zero,a0,0x0
 124:	00000000 	nop
 128:	200011d8 	addi	zero,zero,4568
 12c:	00000030 	tge	zero,zero
	...

Disassembly of section .debug_ranges:

00000000 <.debug_ranges>:
   0:	20000000 	addi	zero,zero,0
   4:	20000000 	addi	zero,zero,0
   8:	800008e8 	lb	zero,2280(zero)
   c:	800009e4 	lb	zero,2532(zero)
  10:	800009e4 	lb	zero,2532(zero)
  14:	80000a00 	lb	zero,2560(zero)
  18:	80000a00 	lb	zero,2560(zero)
  1c:	80000a18 	lb	zero,2584(zero)
  20:	80000a18 	lb	zero,2584(zero)
  24:	80000a3c 	lb	zero,2620(zero)
  28:	80000a3c 	lb	zero,2620(zero)
  2c:	80000a60 	lb	zero,2656(zero)
  30:	80000a60 	lb	zero,2656(zero)
  34:	80000ad0 	lb	zero,2768(zero)
  38:	80000ad0 	lb	zero,2768(zero)
  3c:	80000bdc 	lb	zero,3036(zero)
  40:	80000bdc 	lb	zero,3036(zero)
  44:	80000cb4 	lb	zero,3252(zero)
  48:	80000cb4 	lb	zero,3252(zero)
  4c:	80000d40 	lb	zero,3392(zero)
  50:	80000d40 	lb	zero,3392(zero)
  54:	80000dd0 	lb	zero,3536(zero)
  58:	80000dd0 	lb	zero,3536(zero)
  5c:	80000f18 	lb	zero,3864(zero)
  60:	80000f18 	lb	zero,3864(zero)
  64:	80001058 	lb	zero,4184(zero)
  68:	80001058 	lb	zero,4184(zero)
  6c:	80001180 	lb	zero,4480(zero)
  70:	80001180 	lb	zero,4480(zero)
  74:	80001240 	lb	zero,4672(zero)
  78:	80001240 	lb	zero,4672(zero)
  7c:	800012d8 	lb	zero,4824(zero)
  80:	800012d8 	lb	zero,4824(zero)
  84:	80001374 	lb	zero,4980(zero)
  88:	80001374 	lb	zero,4980(zero)
  8c:	800013d0 	lb	zero,5072(zero)
  90:	800013d0 	lb	zero,5072(zero)
  94:	80001430 	lb	zero,5168(zero)
  98:	80001430 	lb	zero,5168(zero)
  9c:	80001494 	lb	zero,5268(zero)
  a0:	80001494 	lb	zero,5268(zero)
  a4:	80001544 	lb	zero,5444(zero)
  a8:	80001544 	lb	zero,5444(zero)
  ac:	80001670 	lb	zero,5744(zero)
  b0:	80001670 	lb	zero,5744(zero)
  b4:	800017b4 	lb	zero,6068(zero)
  b8:	800017b4 	lb	zero,6068(zero)
  bc:	8000180c 	lb	zero,6156(zero)
  c0:	8000180c 	lb	zero,6156(zero)
  c4:	800018cc 	lb	zero,6348(zero)
  c8:	800018cc 	lb	zero,6348(zero)
  cc:	80001994 	lb	zero,6548(zero)
  d0:	80001994 	lb	zero,6548(zero)
  d4:	80001aa8 	lb	zero,6824(zero)
  d8:	80001aa8 	lb	zero,6824(zero)
  dc:	80001bc8 	lb	zero,7112(zero)
  e0:	80001bc8 	lb	zero,7112(zero)
  e4:	80001c08 	lb	zero,7176(zero)
	...
  f0:	00000908 	0x908
  f4:	0000094c 	syscall	0x25
  f8:	00000970 	tge	zero,zero,0x25
  fc:	00000c1c 	0xc1c
	...

Disassembly of section .debug_str:

00000000 <.debug_str>:
   0:	6f72705f 	0x6f72705f
   4:	00646963 	0x646963
   8:	434f4c42 	c0	0x14f4c42
   c:	45445f4b 	0x45445f4b
  10:	45434956 	0x45434956
  14:	4f4f4e5f 	c3	0x14f4e5f
  18:	424e0050 	c0	0x4e0050
  1c:	4f52505f 	c3	0x152505f
  20:	74005343 	jalx	14d0c <NB_PROCS+0x14d08>
  24:	72656d69 	0x72656d69
  28:	6464615f 	0x6464615f
  2c:	73736572 	0x73736572
  30:	6f6c6200 	0x6f6c6200
  34:	735f6b63 	0x735f6b63
  38:	00657a69 	0x657a69
  3c:	5f797474 	0x5f797474
  40:	72646461 	0x72646461
  44:	00737365 	0x737365
  48:	5f676573 	0x5f676573
  4c:	656d6974 	0x656d6974
  50:	61625f72 	0x61625f72
  54:	42006573 	c0	0x6573
  58:	4b434f4c 	c2	0x1434f4c
  5c:	5645445f 	bnel	s2,a1,111dc <NB_PROCS+0x111d8>
  60:	5f454349 	0x5f454349
  64:	44414552 	0x44414552
  68:	4355535f 	c0	0x155535f
  6c:	53534543 	beql	k0,s3,1157c <NB_PROCS+0x11578>
  70:	6f6c5f00 	0x6f6c5f00
  74:	5f736b63 	0x5f736b63
  78:	64616572 	0x64616572
  7c:	7a697300 	0x7a697300
  80:	00745f65 	0x745f65
  84:	756f6c70 	jalx	5bdb1c0 <seg_stack_base+0x1bdb1c0>
  88:	4c420066 	0x4c420066
  8c:	5f4b434f 	0x5f4b434f
  90:	49564544 	0x49564544
  94:	575f4543 	bnel	k0,ra,115a4 <NB_PROCS+0x115a0>
  98:	45544952 	0x45544952
  9c:	67657200 	0x67657200
  a0:	65747369 	0x65747369
  a4:	6e695f72 	0x6e695f72
  a8:	00786564 	0x786564
  ac:	6978655f 	0x6978655f
  b0:	745f0074 	jalx	17c01d0 <NB_PROCS+0x17c01cc>
  b4:	675f7974 	0x675f7974
  b8:	625f7465 	0x625f7465
  bc:	42006675 	c0	0x6675
  c0:	4b434f4c 	c2	0x1434f4c
  c4:	5645445f 	bnel	s2,a1,11244 <NB_PROCS+0x11240>
  c8:	5f454349 	0x5f454349
  cc:	454c4449 	0x454c4449
  d0:	6d656d00 	0x6d656d00
  d4:	00797063 	0x797063
  d8:	616c6564 	0x616c6564
  dc:	645f0079 	0x645f0079
  e0:	735f616d 	0x735f616d
  e4:	75746174 	jalx	5d185d0 <seg_stack_base+0x1d185d0>
  e8:	6f530073 	0x6f530073
  ec:	62696c63 	0x62696c63
  f0:	636f6c42 	0x636f6c42
  f4:	7665446b 	jalx	99511ac <seg_stack_base+0x59511ac>
  f8:	53656369 	beql	k1,a1,18ea0 <NB_PROCS+0x18e9c>
  fc:	75746174 	jalx	5d185d0 <seg_stack_base+0x1d185d0>
 100:	61760073 	0x61760073
 104:	0065756c 	0x65756c
 108:	6f74695f 	0x6f74695f
 10c:	65645f61 	0x65645f61
 110:	65730063 	0x65730063
 114:	62665f67 	0x62665f67
 118:	7361625f 	0x7361625f
 11c:	63670065 	0x63670065
 120:	64615f64 	0x64615f64
 124:	73657264 	0x73657264
 128:	4d440073 	0x4d440073
 12c:	454c5f41 	0x454c5f41
 130:	645f004e 	0x645f004e
 134:	625f616d 	0x625f616d
 138:	00797375 	0x797375
 13c:	5f676573 	0x5f676573
 140:	5f646367 	0x5f646367
 144:	65736162 	0x65736162
 148:	636f6c00 	0x636f6c00
 14c:	615f736b 	0x615f736b
 150:	65726464 	0x65726464
 154:	5f007373 	bgtzl	t8,1cf24 <NB_PROCS+0x1cf20>
 158:	5f797474 	0x5f797474
 15c:	74697277 	jalx	1a5c9dc <NB_PROCS+0x1a5c9d8>
 160:	552f0065 	bnel	t1,t7,2f8 <NB_PROCS+0x2f4>
 164:	73726573 	0x73726573
 168:	616c612f 	0x616c612f
 16c:	442f6e69 	0x442f6e69
 170:	6d75636f 	0x6d75636f
 174:	73746e65 	0x73746e65
 178:	63696c2f 	0x63696c2f
 17c:	65636e65 	0x65636e65
 180:	6d6c612f 	0x6d6c612f
 184:	6f732f6f 	0x6f732f6f
 188:	672f7466 	0x672f7466
 18c:	2f746569 	sltiu	s4,k1,25961
 190:	76697264 	jalx	9a5c990 <seg_stack_base+0x5a5c990>
 194:	2e737265 	sltiu	s3,s3,29285
 198:	61740063 	0x61740063
 19c:	695f6b73 	0x695f6b73
 1a0:	7865646e 	0x7865646e
 1a4:	4f4c4200 	c3	0x14c4200
 1a8:	445f4b43 	0x445f4b43
 1ac:	43495645 	c0	0x1495645
 1b0:	52575f45 	beql	s2,s7,17ec8 <NB_PROCS+0x17ec4>
 1b4:	5f455449 	0x5f455449
 1b8:	4f525245 	c3	0x1525245
 1bc:	745f0052 	jalx	17c0148 <NB_PROCS+0x17c0144>
 1c0:	705f7974 	0x705f7974
 1c4:	625f7475 	0x625f7475
 1c8:	5f006675 	bgtzl	t8,19ba0 <NB_PROCS+0x19b9c>
 1cc:	5f797474 	0x5f797474
 1d0:	5f746567 	0x5f746567
 1d4:	6c6c7566 	0x6c6c7566
 1d8:	62665f00 	0x62665f00
 1dc:	6d6f635f 	0x6d6f635f
 1e0:	74656c70 	jalx	195b1c0 <NB_PROCS+0x195b1bc>
 1e4:	42006465 	c0	0x6465
 1e8:	4b434f4c 	c2	0x1434f4c
 1ec:	5645445f 	bnel	s2,a1,1136c <NB_PROCS+0x11368>
 1f0:	5f454349 	0x5f454349
 1f4:	59535542 	0x59535542
 1f8:	69745f00 	0x69745f00
 1fc:	5f72656d 	0x5f72656d
 200:	74697277 	jalx	1a5c9dc <NB_PROCS+0x1a5c9d8>
 204:	63640065 	0x63640065
 208:	65686361 	0x65686361
 20c:	6e696c5f 	0x6e696c5f
 210:	69735f65 	0x69735f65
 214:	7300657a 	0x7300657a
 218:	695f6765 	0x695f6765
 21c:	625f7563 	0x625f7563
 220:	00657361 	0x657361
 224:	5f414d44 	0x5f414d44
 228:	00545344 	0x545344
 22c:	5f78616d 	0x5f78616d
 230:	6b736174 	0x6b736174
 234:	695f0073 	0x695f0073
 238:	775f7563 	jalx	d7dd58c <seg_stack_base+0x97dd58c>
 23c:	65746972 	0x65746972
 240:	6f695f00 	0x6f695f00
 244:	72775f63 	0x72775f63
 248:	00657469 	0x657469
 24c:	6163645f 	0x6163645f
 250:	5f656863 	0x5f656863
 254:	5f667562 	0x5f667562
 258:	61766e69 	0x61766e69
 25c:	6164696c 	0x6164696c
 260:	53006574 	beqzl	t8,19834 <NB_PROCS+0x19830>
 264:	696c636f 	0x696c636f
 268:	6f6c4262 	0x6f6c4262
 26c:	65446b63 	0x65446b63
 270:	65636976 	0x65636976
 274:	6f00704f 	0x6f00704f
 278:	65736666 	0x65736666
 27c:	73630074 	0x73630074
 280:	74006372 	jalx	18dc8 <NB_PROCS+0x18dc4>
 284:	695f7974 	0x695f7974
 288:	7865646e 	0x7865646e
 28c:	4f4c4200 	c3	0x14c4200
 290:	445f4b43 	0x445f4b43
 294:	43495645 	c0	0x1495645
 298:	4f435f45 	c3	0x1435f45
 29c:	00544e55 	0x544e55
 2a0:	6463675f 	0x6463675f
 2a4:	6165725f 	0x6165725f
 2a8:	4c420064 	0x4c420064
 2ac:	5f4b434f 	0x5f4b434f
 2b0:	49564544 	0x49564544
 2b4:	425f4543 	c0	0x5f4543
 2b8:	45464655 	0x45464655
 2bc:	665f0052 	0x665f0052
 2c0:	65725f62 	0x65725f62
 2c4:	73006461 	0x73006461
 2c8:	695f6765 	0x695f6765
 2cc:	625f636f 	0x625f636f
 2d0:	00657361 	0x657361
 2d4:	676e656c 	0x676e656c
 2d8:	53006874 	beqzl	t8,1a4ac <NB_PROCS+0x1a4a8>
 2dc:	694c436f 	0x694c436f
 2e0:	616d4462 	0x616d4462
 2e4:	69676552 	0x69676552
 2e8:	72657473 	0x72657473
 2ec:	63690073 	0x63690073
 2f0:	64615f75 	0x64615f75
 2f4:	73657264 	0x73657264
 2f8:	6e750073 	0x6e750073
 2fc:	6e676973 	0x6e676973
 300:	63206465 	0x63206465
 304:	00726168 	0x726168
 308:	434f4c42 	c0	0x14f4c42
 30c:	45445f4b 	0x45445f4b
 310:	45434956 	0x45434956
 314:	5252455f 	beql	s2,s2,11894 <NB_PROCS+0x11890>
 318:	5300524f 	beqzl	t8,14c58 <NB_PROCS+0x14c54>
 31c:	696c636f 	0x696c636f
 320:	6d695462 	0x6d695462
 324:	65527265 	0x65527265
 328:	74736967 	jalx	1cda59c <NB_PROCS+0x1cda598>
 32c:	00737265 	0x737265
 330:	5f74695f 	0x5f74695f
 334:	62616e65 	0x62616e65
 338:	5f00656c 	bgtzl	t8,198ec <NB_PROCS+0x198e8>
 33c:	735f6266 	0x735f6266
 340:	5f636e79 	0x5f636e79
 344:	74697277 	jalx	1a5c9dc <NB_PROCS+0x1a5c9d8>
 348:	695f0065 	0x695f0065
 34c:	625f636f 	0x625f636f
 350:	00797375 	0x797375
 354:	69736e75 	0x69736e75
 358:	64656e67 	0x64656e67
 35c:	746e6920 	jalx	1b9a480 <NB_PROCS+0x1b9a47c>
 360:	4d495400 	0x4d495400
 364:	505f5245 	beql	v0,ra,14c7c <NB_PROCS+0x14c78>
 368:	4f495245 	c3	0x1495245
 36c:	4c420044 	0x4c420044
 370:	5f4b434f 	0x5f4b434f
 374:	49564544 	0x49564544
 378:	4f5f4543 	c3	0x15f4543
 37c:	4c420050 	0x4c420050
 380:	5f4b434f 	0x5f4b434f
 384:	49564544 	0x49564544
 388:	4c5f4543 	0x4c5f4543
 38c:	4e004142 	c3	0x4142
 390:	4f4c5f42 	c3	0x14c5f42
 394:	00534b43 	0x534b43
 398:	5f62665f 	0x5f62665f
 39c:	74697277 	jalx	1a5c9dc <NB_PROCS+0x1a5c9d8>
 3a0:	695f0065 	0x695f0065
 3a4:	725f636f 	0x725f636f
 3a8:	00646165 	0x646165
 3ac:	7974745f 	0x7974745f
 3b0:	6165725f 	0x6165725f
 3b4:	69740064 	0x69740064
 3b8:	5f72656d 	0x5f72656d
 3bc:	65646e69 	0x65646e69
 3c0:	776e0078 	jalx	db801e0 <seg_stack_base+0x9b801e0>
 3c4:	74746972 	jalx	1d1a5c8 <NB_PROCS+0x1d1a5c4>
 3c8:	54006e65 	bnezl	zero,1bd60 <NB_PROCS+0x1bd5c>
 3cc:	52454d49 	beql	s2,a1,138f4 <NB_PROCS+0x138f0>
 3d0:	4150535f 	0x4150535f
 3d4:	4c42004e 	0x4c42004e
 3d8:	5f4b434f 	0x5f4b434f
 3dc:	49564544 	0x49564544
 3e0:	495f4543 	0x495f4543
 3e4:	455f5152 	0x455f5152
 3e8:	4c42414e 	0x4c42414e
 3ec:	616d0045 	0x616d0045
 3f0:	72705f78 	0x72705f78
 3f4:	0073636f 	0x73636f
 3f8:	6463675f 	0x6463675f
 3fc:	6972775f 	0x6972775f
 400:	69006574 	0x69006574
 404:	615f636f 	0x615f636f
 408:	65726464 	0x65726464
 40c:	70007373 	0x70007373
 410:	65636f72 	0x65636f72
 414:	726f7373 	0x726f7373
 418:	0064695f 	0x64695f
 41c:	6b636f6c 	0x6b636f6c
 420:	646e695f 	0x646e695f
 424:	70007865 	0x70007865
 428:	5f636f72 	0x5f636f72
 42c:	65646e69 	0x65646e69
 430:	695f0078 	0x695f0078
 434:	635f636f 	0x635f636f
 438:	6c706d6f 	0x6c706d6f
 43c:	64657465 	0x64657465
 440:	414d4400 	0x414d4400
 444:	5152495f 	beql	t2,s2,129c4 <NB_PROCS+0x129c0>
 448:	5349445f 	beql	k0,t1,115c8 <NB_PROCS+0x115c4>
 44c:	454c4241 	0x454c4241
 450:	5f424e00 	0x5f424e00
 454:	454d4954 	0x454d4954
 458:	42005352 	c0	0x5352
 45c:	4b434f4c 	c2	0x1434f4c
 460:	5645445f 	bnel	s2,a1,115e0 <NB_PROCS+0x115dc>
 464:	5f454349 	0x5f454349
 468:	44414552 	0x44414552
 46c:	5252455f 	beql	s2,s2,119ec <NB_PROCS+0x119e8>
 470:	5f00524f 	bgtzl	t8,14db0 <NB_PROCS+0x14dac>
 474:	6b636f6c 	0x6b636f6c
 478:	72775f73 	0x72775f73
 47c:	00657469 	0x657469
 480:	5f62665f 	0x5f62665f
 484:	636e7973 	0x636e7973
 488:	6165725f 	0x6165725f
 48c:	745f0064 	jalx	17c0190 <NB_PROCS+0x17c018c>
 490:	72656d69 	0x72656d69
 494:	6165725f 	0x6165725f
 498:	4c420064 	0x4c420064
 49c:	5f4b434f 	0x5f4b434f
 4a0:	49564544 	0x49564544
 4a4:	425f4543 	c0	0x5f4543
 4a8:	4b434f4c 	c2	0x1434f4c
 4ac:	5a49535f 	0x5a49535f
 4b0:	705f0045 	0x705f0045
 4b4:	74636f72 	jalx	18dbdc8 <NB_PROCS+0x18dbdc4>
 4b8:	00656d69 	0x656d69
 4bc:	5f676573 	0x5f676573
 4c0:	5f797474 	0x5f797474
 4c4:	65736162 	0x65736162
 4c8:	72735f00 	0x72735f00
 4cc:	6f630063 	0x6f630063
 4d0:	00746e75 	0x746e75
 4d4:	5f676573 	0x5f676573
 4d8:	5f616d64 	0x5f616d64
 4dc:	65736162 	0x65736162
 4e0:	4f4c4200 	c3	0x14c4200
 4e4:	445f4b43 	0x445f4b43
 4e8:	43495645 	c0	0x1495645
 4ec:	54535f45 	bnel	v0,s3,18204 <NB_PROCS+0x18200>
 4f0:	53555441 	beql	k0,s5,155f8 <NB_PROCS+0x155f4>
 4f4:	73646300 	0x73646300
 4f8:	695f0074 	0x695f0074
 4fc:	5f616f74 	0x5f616f74
 500:	00786568 	0x786568
 504:	5f414d44 	0x5f414d44
 508:	00435253 	0x435253
 50c:	454d4954 	0x454d4954
 510:	41565f52 	0x41565f52
 514:	0045554c 	syscall	0x11555
 518:	434f4c42 	c0	0x14f4c42
 51c:	45445f4b 	0x45445f4b
 520:	45434956 	0x45434956
 524:	4145525f 	0x4145525f
 528:	645f0044 	0x645f0044
 52c:	73007473 	0x73007473
 530:	6c5f6765 	0x6c5f6765
 534:	736b636f 	0x736b636f
 538:	7361625f 	0x7361625f
 53c:	695f0065 	0x695f0065
 540:	735f636f 	0x735f636f
 544:	75746174 	jalx	5d185d0 <seg_stack_base+0x1d185d0>
 548:	4c420073 	0x4c420073
 54c:	5f4b434f 	0x5f4b434f
 550:	49564544 	0x49564544
 554:	535f4543 	beql	k0,ra,11a64 <NB_PROCS+0x11a60>
 558:	00455a49 	0x455a49
 55c:	54636544 	bnel	v1,v1,19a70 <NB_PROCS+0x19a6c>
 560:	48006261 	0x48006261
 564:	54617865 	bnel	v1,at,1e6fc <NB_PROCS+0x1e6f8>
 568:	5f006261 	bgtzl	t8,18ef0 <NB_PROCS+0x18eec>
 56c:	5f797474 	0x5f797474
 570:	5f747570 	0x5f747570
 574:	6c6c7566 	0x6c6c7566
 578:	554e4700 	bnel	t2,t6,1217c <NB_PROCS+0x12178>
 57c:	34204320 	ori	zero,at,0x4320
 580:	322e342e 	andi	t6,s1,0x342e
 584:	63695f00 	0x63695f00
 588:	65725f75 	0x65725f75
 58c:	44006461 	0x44006461
 590:	525f414d 	beql	s2,ra,10ac8 <NB_PROCS+0x10ac4>
 594:	54455345 	bnel	v0,a1,152ac <NB_PROCS+0x152a8>
 598:	4d495400 	0x4d495400
 59c:	525f5245 	beql	s2,ra,14eb4 <NB_PROCS+0x14eb0>
 5a0:	54455345 	bnel	v0,a1,152b8 <NB_PROCS+0x152b4>
 5a4:	00515249 	0x515249
 5a8:	6c636f53 	0x6c636f53
 5ac:	6c426269 	0x6c426269
 5b0:	446b636f 	0x446b636f
 5b4:	63697665 	0x63697665
 5b8:	67655265 	0x67655265
 5bc:	65747369 	0x65747369
 5c0:	5f007372 	bgtzl	t8,1d38c <NB_PROCS+0x1d388>
 5c4:	6d5f7469 	0x6d5f7469
 5c8:	006b7361 	0x6b7361
 5cc:	434f4c42 	c0	0x14f4c42
 5d0:	45445f4b 	0x45445f4b
 5d4:	45434956 	0x45434956
 5d8:	4952575f 	0x4952575f
 5dc:	535f4554 	beql	k0,ra,11b30 <NB_PROCS+0x11b2c>
 5e0:	45434355 	0x45434355
 5e4:	4e005353 	c3	0x5353
 5e8:	41545f42 	0x41545f42
 5ec:	00534b53 	0x534b53
 5f0:	454d4954 	0x454d4954
 5f4:	4f4d5f52 	c3	0x14d5f52
 5f8:	5f004544 	bgtzl	t8,11b0c <NB_PROCS+0x11b08>
 5fc:	5f797474 	0x5f797474
 600:	64616572 	0x64616572
 604:	7172695f 	0x7172695f
 608:	75635f00 	jalx	58d7c00 <seg_stack_base+0x18d7c00>
 60c:	6e657272 	0x6e657272
 610:	61745f74 	0x61745f74
 614:	615f6b73 	0x615f6b73
 618:	79617272 	0x79617272
 61c:	44434700 	0x44434700
 620:	4154535f 	0x4154535f
 624:	47005452 	c1	0x1005452
 628:	4f5f4443 	c3	0x15f4443
 62c:	47004150 	c1	0x1004150
 630:	4f5f4443 	c3	0x15f4443
 634:	2f004250 	sltiu	zero,t8,16976
 638:	72657355 	0x72657355
 63c:	6c612f73 	0x6c612f73
 640:	2f6e6961 	sltiu	t6,k1,26977
 644:	75636f44 	jalx	58dbd10 <seg_stack_base+0x18dbd10>
 648:	746e656d 	jalx	1b995b4 <NB_PROCS+0x1b995b0>
 64c:	696c2f73 	0x696c2f73
 650:	636e6563 	0x636e6563
 654:	6c612f65 	0x6c612f65
 658:	732f6f6d 	0x732f6f6d
 65c:	2f74666f 	sltiu	s4,k1,26223
 660:	74656967 	jalx	195a59c <NB_PROCS+0x195a598>
 664:	6474732f 	0x6474732f
 668:	632e6f69 	0x632e6f69
 66c:	64636700 	0x64636700
 670:	7465675f 	jalx	1959d7c <NB_PROCS+0x1959d78>
 674:	6174735f 	0x6174735f
 678:	00737574 	teq	v1,s3,0x1d5
 67c:	5f737973 	0x5f737973
 680:	6c6c6163 	0x6c6c6163
 684:	75636900 	jalx	58da400 <seg_stack_base+0x18da400>
 688:	7465675f 	jalx	1959d7c <NB_PROCS+0x1959d78>
 68c:	73616d5f 	0x73616d5f
 690:	4349006b 	c0	0x149006b
 694:	414d5f55 	0x414d5f55
 698:	535f4b53 	beql	k0,ra,133e8 <NB_PROCS+0x133e4>
 69c:	47005445 	c1	0x1005445
 6a0:	535f4443 	beql	k0,ra,117b0 <NB_PROCS+0x117ac>
 6a4:	55544154 	bnel	t2,s4,10bf8 <NB_PROCS+0x10bf4>
 6a8:	6f530053 	0x6f530053
 6ac:	62696c63 	0x62696c63
 6b0:	52636950 	beql	s3,v1,1abf4 <NB_PROCS+0x1abf0>
 6b4:	73696765 	0x73696765
 6b8:	73726574 	0x73726574
 6bc:	79747400 	0x79747400
 6c0:	7465675f 	jalx	1959d7c <NB_PROCS+0x1959d78>
 6c4:	72695f73 	0x72695f73
 6c8:	63690071 	0x63690071
 6cc:	65675f75 	0x65675f75
 6d0:	72695f74 	0x72695f74
 6d4:	67007371 	0x67007371
 6d8:	735f6463 	0x735f6463
 6dc:	6f5f7465 	0x6f5f7465
 6e0:	67006170 	0x67006170
 6e4:	735f6463 	0x735f6463
 6e8:	6f5f7465 	0x6f5f7465
 6ec:	72006270 	0x72006270
 6f0:	615f6765 	0x615f6765
 6f4:	65720030 	0x65720030
 6f8:	6f6e5f67 	0x6f6e5f67
 6fc:	646e615f 	0x646e615f
 700:	74756f5f 	jalx	1d5bd7c <NB_PROCS+0x1d5bd78>
 704:	00747570 	tge	v1,s4,0x1d5
 708:	5f756369 	0x5f756369
 70c:	5f746573 	0x5f746573
 710:	6b73616d 	0x6b73616d
 714:	67726100 	0x67726100
 718:	6100305f 	0x6100305f
 71c:	315f6772 	andi	ra,t2,0x6772
 720:	67726100 	0x67726100
 724:	6100325f 	0x6100325f
 728:	335f6772 	andi	ra,k0,0x6772
 72c:	67657200 	0x67657200
 730:	0031615f 	0x31615f
 734:	5f676572 	0x5f676572
 738:	72003261 	0x72003261
 73c:	615f6765 	0x615f6765
 740:	63690033 	0x63690033
 744:	65675f75 	0x65675f75
 748:	6e695f74 	0x6e695f74
 74c:	00786564 	0x786564
 750:	5f554349 	0x5f554349
 754:	00544e49 	0x544e49
 758:	5f554349 	0x5f554349
 75c:	4b53414d 	c2	0x153414d
 760:	454c435f 	0x454c435f
 764:	74005241 	jalx	14904 <NB_PROCS+0x14900>
 768:	705f7974 	0x705f7974
 76c:	00637475 	0x637475
 770:	6d726f66 	0x6d726f66
 774:	70007461 	0x70007461
 778:	00667562 	0x667562
 77c:	5f797474 	0x5f797474
 780:	73747570 	0x73747570
 784:	72747300 	0x72747300
 788:	00676e69 	0x676e69
 78c:	65747962 	0x65747962
 790:	636f5300 	0x636f5300
 794:	4c62696c 	0x4c62696c
 798:	65526463 	0x65526463
 79c:	74736967 	jalx	1cda59c <NB_PROCS+0x1cda598>
 7a0:	00737265 	0x737265
 7a4:	656e6f64 	0x656e6f64
 7a8:	79747400 	0x79747400
 7ac:	7465675f 	jalx	1959d7c <NB_PROCS+0x1959d78>
 7b0:	72695f63 	0x72695f63
 7b4:	74740071 	jalx	1d001c4 <NB_PROCS+0x1d001c0>
 7b8:	65675f79 	0x65675f79
 7bc:	695f7774 	0x695f7774
 7c0:	49007172 	bc2f	1cd8c <NB_PROCS+0x1cd88>
 7c4:	495f5543 	0x495f5543
 7c8:	45565f54 	0x45565f54
 7cc:	524f5443 	beql	s2,t7,158dc <NB_PROCS+0x158d8>
 7d0:	636f6c00 	0x636f6c00
 7d4:	65725f6b 	0x65725f6b
 7d8:	7361656c 	0x7361656c
 7dc:	6f6c0065 	0x6f6c0065
 7e0:	615f6b63 	0x615f6b63
 7e4:	69757163 	0x69757163
 7e8:	70006572 	0x70006572
 7ec:	746e6972 	jalx	1b9a5c8 <NB_PROCS+0x1b9a5c4>
 7f0:	65745f66 	0x65745f66
 7f4:	74007478 	jalx	1d1e0 <NB_PROCS+0x1d1dc>
 7f8:	705f7974 	0x705f7974
 7fc:	00777475 	0x777475
 800:	64726f77 	0x64726f77
 804:	6675625f 	0x6675625f
 808:	00726566 	0x726566
 80c:	65766173 	0x65766173
 810:	65766f00 	0x65766f00
 814:	6f6c6672 	0x6f6c6672
 818:	43470077 	c0	0x1470077
 81c:	50535f44 	beql	v0,s3,18530 <NB_PROCS+0x1852c>
 820:	74004e41 	jalx	13904 <NB_PROCS+0x13900>
 824:	72656d69 	0x72656d69
 828:	7465675f 	jalx	1959d7c <NB_PROCS+0x1959d78>
 82c:	6d69745f 	0x6d69745f
 830:	63690065 	0x63690065
 834:	6c635f75 	0x6c635f75
 838:	5f726165 	0x5f726165
 83c:	6b73616d 	0x6b73616d
 840:	6d697400 	0x6d697400
 844:	735f7265 	0x735f7265
 848:	6d5f7465 	0x6d5f7465
 84c:	0065646f 	0x65646f
 850:	5f554349 	0x5f554349
 854:	4b53414d 	c2	0x153414d
 858:	6c616300 	0x6c616300
 85c:	6f6e5f6c 	0x6f6e5f6c
 860:	625f5f00 	0x625f5f00
 864:	746c6975 	jalx	1b1a5d4 <NB_PROCS+0x1b1a5d0>
 868:	765f6e69 	jalx	97db9a4 <seg_stack_base+0x57db9a4>
 86c:	696c5f61 	0x696c5f61
 870:	62007473 	0x62007473
 874:	69736675 	0x69736675
 878:	7400657a 	jalx	195e8 <NB_PROCS+0x195e4>
 87c:	72656d69 	0x72656d69
 880:	7365725f 	0x7365725f
 884:	695f7465 	0x695f7465
 888:	74007172 	jalx	1c5c8 <NB_PROCS+0x1c5c4>
 88c:	705f7974 	0x705f7974
 890:	746e6972 	jalx	1b9a5c8 <NB_PROCS+0x1b9a5c4>
 894:	74740066 	jalx	1d00198 <NB_PROCS+0x1d00194>
 898:	65675f79 	0x65675f79
 89c:	72006374 	0x72006374
 8a0:	00646e61 	0x646e61
 8a4:	5f646367 	0x5f646367
 8a8:	5f746567 	0x5f746567
 8ac:	75736572 	jalx	5cd95c8 <seg_stack_base+0x1cd95c8>
 8b0:	5f00746c 	bgtzl	t8,1da64 <NB_PROCS+0x1da60>
 8b4:	756e675f 	jalx	5b99d7c <seg_stack_base+0x1b99d7c>
 8b8:	61765f63 	0x61765f63
 8bc:	73696c5f 	0x73696c5f
 8c0:	69740074 	0x69740074
 8c4:	5f72656d 	0x5f72656d
 8c8:	5f746573 	0x5f746573
 8cc:	69726570 	0x69726570
 8d0:	7000646f 	0x7000646f
 8d4:	746e6972 	jalx	1b9a5c8 <NB_PROCS+0x1b9a5c4>
 8d8:	72615f66 	0x72615f66
 8dc:	656d7567 	0x656d7567
 8e0:	0073746e 	0x73746e
 8e4:	5f646367 	0x5f646367
 8e8:	72617473 	0x72617473
 8ec:	552f0074 	bnel	t1,t7,ac0 <NB_PROCS+0xabc>
 8f0:	73726573 	0x73726573
 8f4:	616c612f 	0x616c612f
 8f8:	732f6e69 	0x732f6e69
 8fc:	732f636f 	0x732f636f
 900:	696c636f 	0x696c636f
 904:	76732d62 	jalx	9ccb588 <seg_stack_base+0x5ccb588>
 908:	756a2d6e 	jalx	5a8b5b8 <seg_stack_base+0x1a8b5b8>
 90c:	322d656e 	andi	t5,s1,0x656e
 910:	2f393030 	sltiu	t9,t9,12336
 914:	6c636f73 	0x6c636f73
 918:	732f6269 	0x732f6269
 91c:	696c636f 	0x696c636f
 920:	6c702f62 	0x6c702f62
 924:	6f667461 	0x6f667461
 928:	742f6d72 	jalx	bdb5c8 <NB_PROCS+0xbdb5c4>
 92c:	6563706f 	0x6563706f
 930:	2f736c6c 	sltiu	s3,k1,27756
 934:	646d6c74 	0x646d6c74
 938:	63345f74 	0x63345f74
 93c:	7473756c 	jalx	1cdd5b0 <NB_PROCS+0x1cdd5ac>
 940:	5f737265 	0x5f737265
 944:	6e617274 	0x6e617274
 948:	736f7073 	0x736f7073
 94c:	6f732f65 	0x6f732f65
 950:	685f7466 	0x685f7466
 954:	6f6c6c65 	0x6f6c6c65
 958:	69616d00 	0x69616d00
 95c:	00632e6e 	0x632e6e
 960:	6e69616d 	0x6e69616d
	...
