
bin.soft:     file format elf32-littlemips


Disassembly of section seg_kernel:

80000000 <tab_causes>:
80000000:	8000025c 	lb	zero,604(zero)
80000004:	80000398 	lb	zero,920(zero)
80000008:	80000398 	lb	zero,920(zero)
8000000c:	80000398 	lb	zero,920(zero)
80000010:	80000398 	lb	zero,920(zero)
80000014:	80000398 	lb	zero,920(zero)
80000018:	80000398 	lb	zero,920(zero)
8000001c:	80000398 	lb	zero,920(zero)
80000020:	8000019c 	lb	zero,412(zero)
80000024:	80000398 	lb	zero,920(zero)
80000028:	80000398 	lb	zero,920(zero)
8000002c:	80000398 	lb	zero,920(zero)
80000030:	80000398 	lb	zero,920(zero)
80000034:	80000398 	lb	zero,920(zero)
80000038:	80000398 	lb	zero,920(zero)
8000003c:	80000398 	lb	zero,920(zero)
	...

80000180 <giet>:
80000180:	401b6800 	mfc0	k1,c0_cause
80000184:	3c1a8000 	lui	k0,0x8000
80000188:	337b003c 	andi	k1,k1,0x3c
8000018c:	035bd021 	addu	k0,k0,k1
80000190:	8f5a0000 	lw	k0,0(k0)
80000194:	03400008 	jr	k0
80000198:	00000000 	nop

8000019c <cause_sys>:
8000019c:	27bdfffc 	addiu	sp,sp,-4
800001a0:	401a7000 	mfc0	k0,c0_epc
800001a4:	275a0004 	addiu	k0,k0,4
800001a8:	afba0000 	sw	k0,0(sp)
800001ac:	305a000f 	andi	k0,v0,0xf
800001b0:	001ad080 	sll	k0,k0,0x2
800001b4:	3c1b8000 	lui	k1,0x8000
800001b8:	277b021c 	addiu	k1,k1,540
800001bc:	037ad821 	addu	k1,k1,k0
800001c0:	8f7a0000 	lw	k0,0(k1)
800001c4:	0340f809 	jalr	k0
800001c8:	00000000 	nop
800001cc:	8fba0000 	lw	k0,0(sp)
800001d0:	27bd0004 	addiu	sp,sp,4
800001d4:	409a7000 	mtc0	k0,c0_epc
800001d8:	42000018 	eret

800001dc <_sys_ukn>:
800001dc:	40047801 	mfc0	a0,$15,1
800001e0:	308400ff 	andi	a0,a0,0xff
800001e4:	3c058000 	lui	a1,0x8000
800001e8:	24a50483 	addiu	a1,a1,1155
800001ec:	0c0001bf 	jal	800006fc <_tty_write>
800001f0:	24060024 	li	a2,36
800001f4:	40047801 	mfc0	a0,$15,1
800001f8:	308400ff 	andi	a0,a0,0xff
800001fc:	3c058000 	lui	a1,0x8000
80000200:	24a50455 	addiu	a1,a1,1109
80000204:	0c0001bf 	jal	800006fc <_tty_write>
80000208:	24060008 	li	a2,8
8000020c:	0c00017b 	jal	800005ec <_itoa_print>
80000210:	40047000 	mfc0	a0,c0_epc
80000214:	080001fd 	j	800007f4 <_exit>
80000218:	00000000 	nop

8000021c <tab_syscalls>:
8000021c:	80000650 	lb	zero,1616(zero)
80000220:	8000065c 	lb	zero,1628(zero)
80000224:	800006fc 	lb	zero,1788(zero)
80000228:	80000750 	lb	zero,1872(zero)
8000022c:	80000668 	lb	zero,1640(zero)
80000230:	800006b0 	lb	zero,1712(zero)
80000234:	80000974 	lb	zero,2420(zero)
80000238:	800009a0 	lb	zero,2464(zero)
8000023c:	80000918 	lb	zero,2328(zero)
80000240:	80000944 	lb	zero,2372(zero)
80000244:	800008bc 	lb	zero,2236(zero)
80000248:	800008e8 	lb	zero,2280(zero)
8000024c:	800009d0 	lb	zero,2512(zero)
80000250:	80000a04 	lb	zero,2564(zero)
80000254:	800007f4 	lb	zero,2036(zero)
80000258:	800001dc 	lb	zero,476(zero)

8000025c <cause_int>:
8000025c:	27bdffdc 	addiu	sp,sp,-36
80000260:	afa10000 	sw	at,0(sp)
80000264:	afa20004 	sw	v0,4(sp)
80000268:	afa30008 	sw	v1,8(sp)
8000026c:	afa4000c 	sw	a0,12(sp)
80000270:	afa50010 	sw	a1,16(sp)
80000274:	afa60014 	sw	a2,20(sp)
80000278:	afa70018 	sw	a3,24(sp)
8000027c:	afbf001c 	sw	ra,28(sp)
80000280:	401b7000 	mfc0	k1,c0_epc
80000284:	afbb0020 	sw	k1,32(sp)
80000288:	3c1af000 	lui	k0,0xf000
8000028c:	275a0000 	addiu	k0,k0,0
80000290:	8f5a0010 	lw	k0,16(k0)
80000294:	001ad942 	srl	k1,k0,0x5
80000298:	17600008 	bnez	k1,800002bc <restore>
8000029c:	00000000 	nop
800002a0:	001ad080 	sll	k0,k0,0x2
800002a4:	3c1b8000 	lui	k1,0x8000
800002a8:	277b02ec 	addiu	k1,k1,748
800002ac:	035bd021 	addu	k0,k0,k1
800002b0:	8f5a0000 	lw	k0,0(k0)
800002b4:	0340f809 	jalr	k0
800002b8:	00000000 	nop

800002bc <restore>:
800002bc:	8fa10000 	lw	at,0(sp)
800002c0:	8fa20004 	lw	v0,4(sp)
800002c4:	8fa30008 	lw	v1,8(sp)
800002c8:	8fa4000c 	lw	a0,12(sp)
800002cc:	8fa50010 	lw	a1,16(sp)
800002d0:	8fa60014 	lw	a2,20(sp)
800002d4:	8fa70018 	lw	a3,24(sp)
800002d8:	8fbf001c 	lw	ra,28(sp)
800002dc:	8fbb0020 	lw	k1,32(sp)
800002e0:	27bd0024 	addiu	sp,sp,36
800002e4:	409b7000 	mtc0	k1,c0_epc
800002e8:	42000018 	eret

800002ec <interrupt_vector>:
800002ec:	8000036c 	lb	zero,876(zero)
800002f0:	8000036c 	lb	zero,876(zero)
800002f4:	8000036c 	lb	zero,876(zero)
800002f8:	8000036c 	lb	zero,876(zero)
800002fc:	8000036c 	lb	zero,876(zero)
80000300:	8000036c 	lb	zero,876(zero)
80000304:	8000036c 	lb	zero,876(zero)
80000308:	8000036c 	lb	zero,876(zero)
8000030c:	8000036c 	lb	zero,876(zero)
80000310:	8000036c 	lb	zero,876(zero)
80000314:	8000036c 	lb	zero,876(zero)
80000318:	8000036c 	lb	zero,876(zero)
8000031c:	8000036c 	lb	zero,876(zero)
80000320:	8000036c 	lb	zero,876(zero)
80000324:	8000036c 	lb	zero,876(zero)
80000328:	8000036c 	lb	zero,876(zero)
8000032c:	8000036c 	lb	zero,876(zero)
80000330:	8000036c 	lb	zero,876(zero)
80000334:	8000036c 	lb	zero,876(zero)
80000338:	8000036c 	lb	zero,876(zero)
8000033c:	8000036c 	lb	zero,876(zero)
80000340:	8000036c 	lb	zero,876(zero)
80000344:	8000036c 	lb	zero,876(zero)
80000348:	8000036c 	lb	zero,876(zero)
8000034c:	8000036c 	lb	zero,876(zero)
80000350:	8000036c 	lb	zero,876(zero)
80000354:	8000036c 	lb	zero,876(zero)
80000358:	8000036c 	lb	zero,876(zero)
8000035c:	8000036c 	lb	zero,876(zero)
80000360:	8000036c 	lb	zero,876(zero)
80000364:	8000036c 	lb	zero,876(zero)
80000368:	8000036c 	lb	zero,876(zero)

8000036c <isr_default>:
8000036c:	27bdfffc 	addiu	sp,sp,-4
80000370:	afbf0000 	sw	ra,0(sp)
80000374:	40047801 	mfc0	a0,$15,1
80000378:	308400ff 	andi	a0,a0,0xff
8000037c:	3c058000 	lui	a1,0x8000
80000380:	24a5045e 	addiu	a1,a1,1118
80000384:	0c0001bf 	jal	800006fc <_tty_write>
80000388:	20060024 	addi	a2,zero,36
8000038c:	8fbf0000 	lw	ra,0(sp)
80000390:	03e00008 	jr	ra
80000394:	27bd0004 	addiu	sp,sp,4

80000398 <cause_adel>:
80000398:	401a6800 	mfc0	k0,c0_cause
8000039c:	335a003c 	andi	k0,k0,0x3c
800003a0:	3c1b8000 	lui	k1,0x8000
800003a4:	277b040c 	addiu	k1,k1,1036
800003a8:	035bd821 	addu	k1,k0,k1
800003ac:	40047801 	mfc0	a0,$15,1
800003b0:	308400ff 	andi	a0,a0,0xff
800003b4:	8f650000 	lw	a1,0(k1)
800003b8:	0c0001bf 	jal	800006fc <_tty_write>
800003bc:	24060024 	li	a2,36
800003c0:	40047801 	mfc0	a0,$15,1
800003c4:	308400ff 	andi	a0,a0,0xff
800003c8:	3c058000 	lui	a1,0x8000
800003cc:	24a50455 	addiu	a1,a1,1109
800003d0:	0c0001bf 	jal	800006fc <_tty_write>
800003d4:	24060008 	li	a2,8
800003d8:	0c00017b 	jal	800005ec <_itoa_print>
800003dc:	40047000 	mfc0	a0,c0_epc
800003e0:	40047801 	mfc0	a0,$15,1
800003e4:	308400ff 	andi	a0,a0,0xff
800003e8:	3c058000 	lui	a1,0x8000
800003ec:	24a5044c 	addiu	a1,a1,1100
800003f0:	0c0001bf 	jal	800006fc <_tty_write>
800003f4:	24060008 	li	a2,8
800003f8:	0c00017b 	jal	800005ec <_itoa_print>
800003fc:	40044000 	mfc0	a0,c0_badvaddr
80000400:	40047801 	mfc0	a0,$15,1
80000404:	080001fd 	j	800007f4 <_exit>
80000408:	308400ff 	andi	a0,a0,0xff

8000040c <mess_causes>:
8000040c:	800004a8 	lb	zero,1192(zero)
80000410:	800004a8 	lb	zero,1192(zero)
80000414:	800004a8 	lb	zero,1192(zero)
80000418:	800004a8 	lb	zero,1192(zero)
8000041c:	800004cd 	lb	zero,1229(zero)
80000420:	800004f2 	lb	zero,1266(zero)
80000424:	80000517 	lb	zero,1303(zero)
80000428:	8000053c 	lb	zero,1340(zero)
8000042c:	800004a8 	lb	zero,1192(zero)
80000430:	80000561 	lb	zero,1377(zero)
80000434:	80000586 	lb	zero,1414(zero)
80000438:	800004a8 	lb	zero,1192(zero)
8000043c:	800005ab 	lb	zero,1451(zero)
80000440:	800004a8 	lb	zero,1192(zero)
80000444:	800004a8 	lb	zero,1192(zero)
80000448:	800004a8 	lb	zero,1192(zero)

8000044c <msg_bar>:
8000044c:	5241420a 	beql	s2,at,80010c78 <_isr_tty3_get+0xffa0>
80000450:	203d2020 	addi	sp,at,8224
	...

80000455 <msg_epc>:
80000455:	450a      	addiu	s0,a1,-6
80000457:	4350      	daddiu	v0,v1,0
80000459:	2020      	beqz	s0,8000049b <msg_uknsyscall+0x18>
8000045b:	203d      	beqz	s0,800004d7 <msg_adel+0xa>
	...

8000045e <msg_default>:
8000045e:	20200a0a 	addi	zero,at,2570
80000462:	20212121 	addi	at,at,8481
80000466:	61666544 	0x61666544
8000046a:	20746c75 	addi	s4,v1,27765
8000046e:	20525349 	addi	s2,v0,21321
80000472:	21212120 	addi	at,t1,8480
80000476:	20202020 	addi	zero,at,8224
8000047a:	20202020 	addi	zero,at,8224
8000047e:	0a202020 	j	88808080 <_isr_tty3_get+0x88073a8>
80000482:	200a0a00 	addi	t2,zero,2560

80000483 <msg_uknsyscall>:
80000483:	0a0a      	la	v0,800004a8 <msg_ukncause>
80000485:	2020      	beqz	s0,800004c7 <msg_ukncause+0x1f>
80000487:	2121      	beqz	s1,800004cb <msg_ukncause+0x23>
80000489:	2021      	beqz	s0,800004cd <msg_adel>
8000048b:	6e55      	li	a2,85
8000048d:	6564      	move	v1,a0
8000048f:	6966      	li	s1,102
80000491:	656e      	move	t3,a2
80000493:	2064      	beqz	s0,8000055d <msg_dbe+0x21>
80000495:	7953      	sd	v0,152(s1)
80000497:	7473      	cmpi	a0,115
80000499:	6d65      	li	a1,101
8000049b:	4320      	addiu	s1,v1,0
8000049d:	6c61      	li	a0,97
8000049f:	206c      	beqz	s0,80000579 <msg_bp+0x18>
800004a1:	2121      	beqz	s1,800004e5 <msg_adel+0x18>
800004a3:	2021      	beqz	s0,800004e7 <msg_adel+0x1a>
800004a5:	0a20      	la	v0,80000524 <msg_ibe+0xd>
	...

800004a8 <msg_ukncause>:
800004a8:	78450a0a 	0x78450a0a
800004ac:	74706563 	jalx	81c1958c <_isr_tty3_get+0x1c188b4>
800004b0:	206e6f69 	addi	t6,v1,28521
800004b4:	7473203a 	jalx	81cc80e8 <_isr_tty3_get+0x1cc7410>
800004b8:	676e6172 	0x676e6172
800004bc:	6e752065 	0x6e752065
800004c0:	776f6e6b 	jalx	8dbdb9ac <_isr_tty3_get+0xdbdacd4>
800004c4:	6163206e 	0x6163206e
800004c8:	0a657375 	j	8995cdd4 <_isr_tty3_get+0x995c0fc>
800004cc:	450a0a00 	bc1fl	$fcc2,80002cd0 <_isr_tty3_get+0x1ff8>

800004cd <msg_adel>:
800004cd:	0a0a      	la	v0,800004f4 <msg_ades+0x2>
800004cf:	7845      	sd	v0,40(s0)
800004d1:	6563      	move	v1,v1
800004d3:	7470      	cmpi	a0,112
800004d5:	6f69      	li	a3,105
800004d7:	206e      	beqz	s0,800005b5 <msg_ovf+0xa>
800004d9:	203a      	beqz	s0,8000054f <msg_dbe+0x13>
800004db:	6c69      	li	a0,105
800004dd:	656c      	move	t3,a0
800004df:	6167      	btnez	800005af <msg_ovf+0x4>
800004e1:	206c      	beqz	s0,800005bb <msg_ovf+0x10>
800004e3:	6572      	move	s3,v0
800004e5:	6461      	restore	8,ra,s0
800004e7:	6120      	btnez	80000529 <msg_ibe+0x12>
800004e9:	6464      	restore	32,ra,s0
800004eb:	6572      	move	s3,v0
800004ed:	7373      	cmpi	v1,115
800004ef:	0a20      	la	v0,8000056c <msg_bp+0xb>
	...

800004f2 <msg_ades>:
800004f2:	78450a0a 	0x78450a0a
800004f6:	74706563 	jalx	81c1958c <_isr_tty3_get+0x1c188b4>
800004fa:	206e6f69 	addi	t6,v1,28521
800004fe:	6c69203a 	0x6c69203a
80000502:	6167656c 	0x6167656c
80000506:	7277206c 	0x7277206c
8000050a:	20657469 	addi	a1,v1,29801
8000050e:	72646461 	0x72646461
80000512:	0a737365 	j	89cdcd94 <_isr_tty3_get+0x9cdc0bc>
80000516:	450a0a00 	bc1fl	$fcc2,80002d1a <_isr_tty3_get+0x2042>

80000517 <msg_ibe>:
80000517:	0a0a      	la	v0,8000053c <msg_dbe>
80000519:	7845      	sd	v0,40(s0)
8000051b:	6563      	move	v1,v1
8000051d:	7470      	cmpi	a0,112
8000051f:	6f69      	li	a3,105
80000521:	206e      	beqz	s0,800005ff <_itoa_print+0x13>
80000523:	203a      	beqz	s0,80000599 <msg_ri+0x13>
80000525:	6e69      	li	a2,105
80000527:	7473      	cmpi	a0,115
80000529:	6220      	sw	ra,128(sp)
8000052b:	7375      	cmpi	v1,117
8000052d:	6520      	move	at,s0
8000052f:	7272      	cmpi	v0,114
80000531:	726f      	cmpi	v0,111
80000533:	2020      	beqz	s0,80000575 <msg_bp+0x14>
80000535:	2020      	beqz	s0,80000577 <msg_bp+0x16>
80000537:	2020      	beqz	s0,80000579 <msg_bp+0x18>
80000539:	0a20      	la	v0,800005b8 <msg_ovf+0xd>
	...

8000053c <msg_dbe>:
8000053c:	78450a0a 	0x78450a0a
80000540:	74706563 	jalx	81c1958c <_isr_tty3_get+0x1c188b4>
80000544:	206e6f69 	addi	t6,v1,28521
80000548:	6164203a 	0x6164203a
8000054c:	62206174 	0x62206174
80000550:	65207375 	0x65207375
80000554:	726f7272 	0x726f7272
80000558:	20202020 	addi	zero,at,8224
8000055c:	0a202020 	j	88808080 <_isr_tty3_get+0x88073a8>
80000560:	450a0a00 	bc1fl	$fcc2,80002d64 <_isr_tty3_get+0x208c>

80000561 <msg_bp>:
80000561:	0a0a      	la	v0,80000588 <msg_ri+0x2>
80000563:	7845      	sd	v0,40(s0)
80000565:	6563      	move	v1,v1
80000567:	7470      	cmpi	a0,112
80000569:	6f69      	li	a3,105
8000056b:	206e      	beqz	s0,80000649 <itoa_loop+0x45>
8000056d:	203a      	beqz	s0,800005e3 <itoa_buf+0x3>
8000056f:	7262      	cmpi	v0,98
80000571:	6165      	btnez	8000063d <itoa_loop+0x39>
80000573:	706b      	cmpi	s0,107
80000575:	696f      	li	s1,111
80000577:	746e      	cmpi	a0,110
80000579:	2020      	beqz	s0,800005bb <msg_ovf+0x10>
8000057b:	2020      	beqz	s0,800005bd <msg_ovf+0x12>
8000057d:	2020      	beqz	s0,800005bf <msg_ovf+0x14>
8000057f:	2020      	beqz	s0,800005c1 <msg_ovf+0x16>
80000581:	2020      	beqz	s0,800005c3 <msg_ovf+0x18>
80000583:	0a20      	la	v0,80000600 <_itoa_print+0x14>
	...

80000586 <msg_ri>:
80000586:	78450a0a 	0x78450a0a
8000058a:	74706563 	jalx	81c1958c <_isr_tty3_get+0x1c188b4>
8000058e:	206e6f69 	addi	t6,v1,28521
80000592:	6572203a 	0x6572203a
80000596:	76726573 	jalx	89c995cc <_isr_tty3_get+0x9c988f4>
8000059a:	69206465 	0x69206465
8000059e:	7274736e 	0x7274736e
800005a2:	69746375 	0x69746375
800005a6:	0a206e6f 	j	8881b9bc <_isr_tty3_get+0x881ace4>
800005aa:	450a0a00 	bc1fl	$fcc2,80002dae <_isr_tty3_get+0x20d6>

800005ab <msg_ovf>:
800005ab:	0a0a      	la	v0,800005d0 <itoa_table>
800005ad:	7845      	sd	v0,40(s0)
800005af:	6563      	move	v1,v1
800005b1:	7470      	cmpi	a0,112
800005b3:	6f69      	li	a3,105
800005b5:	206e      	beqz	s0,80000693 <_timer_write+0x2b>
800005b7:	203a      	beqz	s0,8000062d <itoa_loop+0x29>
800005b9:	7261      	cmpi	v0,97
800005bb:	7469      	cmpi	a0,105
800005bd:	6d68      	li	a1,104
800005bf:	7465      	cmpi	a0,101
800005c1:	6369      	addiu	sp,840
800005c3:	6f20      	li	a3,32
800005c5:	6576      	move	s3,a2
800005c7:	6672      	0x6672
800005c9:	6f6c      	li	a3,108
800005cb:	2077      	beqz	s0,800006bb <_timer_read+0xb>
800005cd:	0a20      	la	v0,8000064c <itoa_loop+0x48>
	...

800005d0 <itoa_table>:
800005d0:	33323130 	andi	s2,t9,0x3130
800005d4:	37363534 	ori	s6,t9,0x3534
800005d8:	42413938 	c0	0x413938
800005dc:	46454443 	c1	0x454443

800005e0 <itoa_buf>:
800005e0:	30307830 	andi	s0,at,0x7830
800005e4:	30303030 	andi	s0,at,0x3030
800005e8:	00003030 	tge	zero,zero,0xc0

800005ec <_itoa_print>:
800005ec:	00802820 	add	a1,a0,zero
800005f0:	3c068000 	lui	a2,0x8000
800005f4:	24c605d0 	addiu	a2,a2,1488
800005f8:	3c048000 	lui	a0,0x8000
800005fc:	248405e2 	addiu	a0,a0,1506
80000600:	34070020 	li	a3,0x20

80000604 <itoa_loop>:
80000604:	23bdfffc 	addi	sp,sp,-4
80000608:	afbf0000 	sw	ra,0(sp)
8000060c:	20e7fffc 	addi	a3,a3,-4
80000610:	00e51006 	srlv	v0,a1,a3
80000614:	3042000f 	andi	v0,v0,0xf
80000618:	00c21021 	addu	v0,a2,v0
8000061c:	80420000 	lb	v0,0(v0)
80000620:	a0820000 	sb	v0,0(a0)
80000624:	1ce0fff7 	bgtz	a3,80000604 <itoa_loop>
80000628:	24840001 	addiu	a0,a0,1
8000062c:	40047800 	mfc0	a0,c0_prid
80000630:	308400ff 	andi	a0,a0,0xff
80000634:	3c058000 	lui	a1,0x8000
80000638:	24a505e0 	addiu	a1,a1,1504
8000063c:	0c0001bf 	jal	800006fc <_tty_write>
80000640:	2406000a 	li	a2,10
80000644:	8fbf0000 	lw	ra,0(sp)
80000648:	03e00008 	jr	ra
8000064c:	23bd0004 	addi	sp,sp,4

80000650 <_procid>:
80000650:	40027801 	mfc0	v0,$15,1
80000654:	03e00008 	jr	ra
80000658:	304200ff 	andi	v0,v0,0xff

8000065c <_proctime>:
8000065c:	40024800 	mfc0	v0,c0_count
80000660:	03e00008 	jr	ra
80000664:	00000000 	nop

80000668 <_timer_write>:
80000668:	3c020000 	lui	v0,0x0
8000066c:	24420004 	addiu	v0,v0,4
80000670:	0082102a 	slt	v0,a0,v0
80000674:	14400003 	bnez	v0,80000684 <_timer_write+0x1c>
80000678:	00000000 	nop
8000067c:	03e00008 	jr	ra
80000680:	2402ffff 	li	v0,-1
80000684:	28a20004 	slti	v0,a1,4
80000688:	1040fffc 	beqz	v0,8000067c <_timer_write+0x14>
8000068c:	3c03d000 	lui	v1,0xd000
80000690:	00041100 	sll	v0,a0,0x4
80000694:	24630000 	addiu	v1,v1,0
80000698:	00621821 	addu	v1,v1,v0
8000069c:	00052080 	sll	a0,a1,0x2
800006a0:	00641821 	addu	v1,v1,a0
800006a4:	ac660000 	sw	a2,0(v1)
800006a8:	03e00008 	jr	ra
800006ac:	00001021 	move	v0,zero

800006b0 <_timer_read>:
800006b0:	3c020000 	lui	v0,0x0
800006b4:	24420004 	addiu	v0,v0,4
800006b8:	0082102a 	slt	v0,a0,v0
800006bc:	14400003 	bnez	v0,800006cc <_timer_read+0x1c>
800006c0:	00000000 	nop
800006c4:	03e00008 	jr	ra
800006c8:	2402ffff 	li	v0,-1
800006cc:	28a20004 	slti	v0,a1,4
800006d0:	1040fffc 	beqz	v0,800006c4 <_timer_read+0x14>
800006d4:	00042100 	sll	a0,a0,0x4
800006d8:	3c02d000 	lui	v0,0xd000
800006dc:	24420000 	addiu	v0,v0,0
800006e0:	00441021 	addu	v0,v0,a0
800006e4:	00051880 	sll	v1,a1,0x2
800006e8:	00431021 	addu	v0,v0,v1
800006ec:	8c440000 	lw	a0,0(v0)
800006f0:	00001021 	move	v0,zero
800006f4:	03e00008 	jr	ra
800006f8:	acc40000 	sw	a0,0(a2)

800006fc <_tty_write>:
800006fc:	3c020000 	lui	v0,0x0
80000700:	24420004 	addiu	v0,v0,4
80000704:	0082102a 	slt	v0,a0,v0
80000708:	1040000f 	beqz	v0,80000748 <_tty_write+0x4c>
8000070c:	00041900 	sll	v1,a0,0x4
80000710:	3c02c000 	lui	v0,0xc000
80000714:	24420000 	addiu	v0,v0,0
80000718:	18c00009 	blez	a2,80000740 <_tty_write+0x44>
8000071c:	00432021 	addu	a0,v0,v1
80000720:	00003821 	move	a3,zero
80000724:	00a71021 	addu	v0,a1,a3
80000728:	80430000 	lb	v1,0(v0)
8000072c:	24e70001 	addiu	a3,a3,1
80000730:	00e6102a 	slt	v0,a3,a2
80000734:	a0830000 	sb	v1,0(a0)
80000738:	1440fffa 	bnez	v0,80000724 <_tty_write+0x28>
8000073c:	00000000 	nop
80000740:	03e00008 	jr	ra
80000744:	00001021 	move	v0,zero
80000748:	03e00008 	jr	ra
8000074c:	2402ffff 	li	v0,-1

80000750 <_tty_read>:
80000750:	3c020000 	lui	v0,0x0
80000754:	24420004 	addiu	v0,v0,4
80000758:	0082102a 	slt	v0,a0,v0
8000075c:	1040001f 	beqz	v0,800007dc <_tty_read+0x8c>
80000760:	00000000 	nop
80000764:	18c00021 	blez	a2,800007ec <_tty_read+0x9c>
80000768:	00041900 	sll	v1,a0,0x4
8000076c:	3c02c000 	lui	v0,0xc000
80000770:	24420000 	addiu	v0,v0,0
80000774:	00431021 	addu	v0,v0,v1
80000778:	24440008 	addiu	a0,v0,8
8000077c:	24430004 	addiu	v1,v0,4
80000780:	00003821 	move	a3,zero
80000784:	24090008 	li	t1,8
80000788:	240a000a 	li	t2,10
8000078c:	90620000 	lbu	v0,0(v1)
80000790:	1040fffe 	beqz	v0,8000078c <_tty_read+0x3c>
80000794:	00000000 	nop
80000798:	90820000 	lbu	v0,0(a0)
8000079c:	00021600 	sll	v0,v0,0x18
800007a0:	00021603 	sra	v0,v0,0x18
800007a4:	10490009 	beq	v0,t1,800007cc <_tty_read+0x7c>
800007a8:	00a74021 	addu	t0,a1,a3
800007ac:	104a000d 	beq	v0,t2,800007e4 <_tty_read+0x94>
800007b0:	a1020000 	sb	v0,0(t0)
800007b4:	24e70001 	addiu	a3,a3,1
800007b8:	00e6102a 	slt	v0,a3,a2
800007bc:	1440fff3 	bnez	v0,8000078c <_tty_read+0x3c>
800007c0:	24e20001 	addiu	v0,a3,1
800007c4:	03e00008 	jr	ra
800007c8:	00000000 	nop
800007cc:	10e0ffef 	beqz	a3,8000078c <_tty_read+0x3c>
800007d0:	00000000 	nop
800007d4:	080001ed 	j	800007b4 <_tty_read+0x64>
800007d8:	24e7fffe 	addiu	a3,a3,-2
800007dc:	03e00008 	jr	ra
800007e0:	2402ffff 	li	v0,-1
800007e4:	03e00008 	jr	ra
800007e8:	24e20001 	addiu	v0,a3,1
800007ec:	03e00008 	jr	ra
800007f0:	24020001 	li	v0,1

800007f4 <_exit>:
800007f4:	27bdffd8 	addiu	sp,sp,-40
800007f8:	40037801 	mfc0	v1,$15,1
800007fc:	3c020000 	lui	v0,0x0
80000800:	306600ff 	andi	a2,v1,0xff
80000804:	24420004 	addiu	v0,v0,4
80000808:	00c2102a 	slt	v0,a2,v0
8000080c:	10400028 	beqz	v0,800008b0 <_exit+0xbc>
80000810:	3c021000 	lui	v0,0x1000
80000814:	2447006c 	addiu	a3,v0,108
80000818:	03a04021 	move	t0,sp
8000081c:	24e90020 	addiu	t1,a3,32
80000820:	8ce20000 	lw	v0,0(a3)
80000824:	8ce30004 	lw	v1,4(a3)
80000828:	8ce40008 	lw	a0,8(a3)
8000082c:	8ce5000c 	lw	a1,12(a3)
80000830:	24e70010 	addiu	a3,a3,16
80000834:	ad020000 	sw	v0,0(t0)
80000838:	ad030004 	sw	v1,4(t0)
8000083c:	ad040008 	sw	a0,8(t0)
80000840:	ad05000c 	sw	a1,12(t0)
80000844:	14e9fff6 	bne	a3,t1,80000820 <_exit+0x2c>
80000848:	25080010 	addiu	t0,t0,16
8000084c:	90e20004 	lbu	v0,4(a3)
80000850:	8ce30000 	lw	v1,0(a3)
80000854:	00062102 	srl	a0,a2,0x4
80000858:	a1020004 	sb	v0,4(t0)
8000085c:	30c5000f 	andi	a1,a2,0xf
80000860:	3c02c000 	lui	v0,0xc000
80000864:	ad030000 	sw	v1,0(t0)
80000868:	24840030 	addiu	a0,a0,48
8000086c:	24070030 	li	a3,48
80000870:	24030078 	li	v1,120
80000874:	24a50030 	addiu	a1,a1,48
80000878:	00063100 	sll	a2,a2,0x4
8000087c:	24420000 	addiu	v0,v0,0
80000880:	a3a30019 	sb	v1,25(sp)
80000884:	a3a4001b 	sb	a0,27(sp)
80000888:	00463021 	addu	a2,v0,a2
8000088c:	a3a7001a 	sb	a3,26(sp)
80000890:	a3a5001c 	sb	a1,28(sp)
80000894:	a3a70018 	sb	a3,24(sp)
80000898:	03a01821 	move	v1,sp
8000089c:	27a40024 	addiu	a0,sp,36
800008a0:	80620000 	lb	v0,0(v1)
800008a4:	24630001 	addiu	v1,v1,1
800008a8:	1483fffd 	bne	a0,v1,800008a0 <_exit+0xac>
800008ac:	a0c20000 	sb	v0,0(a2)
800008b0:	00000000 	nop
800008b4:	0800022c 	j	800008b0 <_exit+0xbc>
800008b8:	00000000 	nop

800008bc <_dma_write>:
800008bc:	28820005 	slti	v0,a0,5
800008c0:	10400007 	beqz	v0,800008e0 <_dma_write+0x24>
800008c4:	00041880 	sll	v1,a0,0x2
800008c8:	3c02e000 	lui	v0,0xe000
800008cc:	24420000 	addiu	v0,v0,0
800008d0:	00431021 	addu	v0,v0,v1
800008d4:	ac450000 	sw	a1,0(v0)
800008d8:	03e00008 	jr	ra
800008dc:	00001021 	move	v0,zero
800008e0:	03e00008 	jr	ra
800008e4:	2402ffff 	li	v0,-1

800008e8 <_dma_read>:
800008e8:	28820005 	slti	v0,a0,5
800008ec:	10400008 	beqz	v0,80000910 <_dma_read+0x28>
800008f0:	3c03e000 	lui	v1,0xe000
800008f4:	00041080 	sll	v0,a0,0x2
800008f8:	24630000 	addiu	v1,v1,0
800008fc:	00621821 	addu	v1,v1,v0
80000900:	8c640000 	lw	a0,0(v1)
80000904:	00001021 	move	v0,zero
80000908:	03e00008 	jr	ra
8000090c:	aca40000 	sw	a0,0(a1)
80000910:	03e00008 	jr	ra
80000914:	2402ffff 	li	v0,-1

80000918 <_icu_write>:
80000918:	28820004 	slti	v0,a0,4
8000091c:	10400007 	beqz	v0,8000093c <_icu_write+0x24>
80000920:	00041880 	sll	v1,a0,0x2
80000924:	3c02f000 	lui	v0,0xf000
80000928:	24420000 	addiu	v0,v0,0
8000092c:	00431021 	addu	v0,v0,v1
80000930:	ac450000 	sw	a1,0(v0)
80000934:	03e00008 	jr	ra
80000938:	00001021 	move	v0,zero
8000093c:	03e00008 	jr	ra
80000940:	2402ffff 	li	v0,-1

80000944 <_icu_read>:
80000944:	28820004 	slti	v0,a0,4
80000948:	10400008 	beqz	v0,8000096c <_icu_read+0x28>
8000094c:	3c03f000 	lui	v1,0xf000
80000950:	00041080 	sll	v0,a0,0x2
80000954:	24630000 	addiu	v1,v1,0
80000958:	00621821 	addu	v1,v1,v0
8000095c:	8c640000 	lw	a0,0(v1)
80000960:	00001021 	move	v0,zero
80000964:	03e00008 	jr	ra
80000968:	aca40000 	sw	a0,0(a1)
8000096c:	03e00008 	jr	ra
80000970:	2402ffff 	li	v0,-1

80000974 <_gcd_write>:
80000974:	28820004 	slti	v0,a0,4
80000978:	10400007 	beqz	v0,80000998 <_gcd_write+0x24>
8000097c:	00041880 	sll	v1,a0,0x2
80000980:	3c029000 	lui	v0,0x9000
80000984:	24420000 	addiu	v0,v0,0
80000988:	00431021 	addu	v0,v0,v1
8000098c:	ac450000 	sw	a1,0(v0)
80000990:	03e00008 	jr	ra
80000994:	00001021 	move	v0,zero
80000998:	03e00008 	jr	ra
8000099c:	2402ffff 	li	v0,-1

800009a0 <_gcd_read>:
800009a0:	28820004 	slti	v0,a0,4
800009a4:	10400008 	beqz	v0,800009c8 <_gcd_read+0x28>
800009a8:	3c039000 	lui	v1,0x9000
800009ac:	00041080 	sll	v0,a0,0x2
800009b0:	24630000 	addiu	v1,v1,0
800009b4:	00621821 	addu	v1,v1,v0
800009b8:	8c640000 	lw	a0,0(v1)
800009bc:	00001021 	move	v0,zero
800009c0:	03e00008 	jr	ra
800009c4:	aca40000 	sw	a0,0(a1)
800009c8:	03e00008 	jr	ra
800009cc:	2402ffff 	li	v0,-1

800009d0 <_locks_write>:
800009d0:	3c020000 	lui	v0,0x0
800009d4:	24420020 	addiu	v0,v0,32
800009d8:	0082102a 	slt	v0,a0,v0
800009dc:	10400007 	beqz	v0,800009fc <_locks_write+0x2c>
800009e0:	00041880 	sll	v1,a0,0x2
800009e4:	3c02a000 	lui	v0,0xa000
800009e8:	24420000 	addiu	v0,v0,0
800009ec:	00431021 	addu	v0,v0,v1
800009f0:	ac400000 	sw	zero,0(v0)
800009f4:	03e00008 	jr	ra
800009f8:	00001021 	move	v0,zero
800009fc:	03e00008 	jr	ra
80000a00:	2402ffff 	li	v0,-1

80000a04 <_locks_read>:
80000a04:	3c020000 	lui	v0,0x0
80000a08:	24420020 	addiu	v0,v0,32
80000a0c:	0082102a 	slt	v0,a0,v0
80000a10:	10400015 	beqz	v0,80000a68 <_locks_read+0x64>
80000a14:	00041880 	sll	v1,a0,0x2
80000a18:	3c02a000 	lui	v0,0xa000
80000a1c:	24420000 	addiu	v0,v0,0
80000a20:	00431821 	addu	v1,v0,v1
80000a24:	8c620000 	lw	v0,0(v1)
80000a28:	1040000d 	beqz	v0,80000a60 <_locks_read+0x5c>
80000a2c:	00000000 	nop
80000a30:	40024800 	mfc0	v0,c0_count
80000a34:	304500ff 	andi	a1,v0,0xff
80000a38:	10a0fffa 	beqz	a1,80000a24 <_locks_read+0x20>
80000a3c:	00003021 	move	a2,zero
80000a40:	00000000 	nop
80000a44:	24c60001 	addiu	a2,a2,1
80000a48:	00c5102a 	slt	v0,a2,a1
80000a4c:	1440fffc 	bnez	v0,80000a40 <_locks_read+0x3c>
80000a50:	00000000 	nop
80000a54:	8c620000 	lw	v0,0(v1)
80000a58:	1440fff5 	bnez	v0,80000a30 <_locks_read+0x2c>
80000a5c:	00000000 	nop
80000a60:	03e00008 	jr	ra
80000a64:	00000000 	nop
80000a68:	03e00008 	jr	ra
80000a6c:	2402ffff 	li	v0,-1

80000a70 <_isr_dma>:
80000a70:	3c1ae000 	lui	k0,0xe000
80000a74:	275a0000 	addiu	k0,k0,0
80000a78:	af400000 	sw	zero,0(k0)
80000a7c:	3c1a1000 	lui	k0,0x1000
80000a80:	275a00c4 	addiu	k0,k0,196
80000a84:	03e00008 	jr	ra
80000a88:	af400000 	sw	zero,0(k0)

80000a8c <_isr_timer0>:
80000a8c:	27bdfffc 	addiu	sp,sp,-4
80000a90:	afbf0000 	sw	ra,0(sp)
80000a94:	3c04d000 	lui	a0,0xd000
80000a98:	24840000 	addiu	a0,a0,0
80000a9c:	ac80000c 	sw	zero,12(a0)
80000aa0:	40047800 	mfc0	a0,c0_prid
80000aa4:	308400ff 	andi	a0,a0,0xff
80000aa8:	3c058000 	lui	a1,0x8000
80000aac:	24a50ad4 	addiu	a1,a1,2772
80000ab0:	0c0001bf 	jal	800006fc <_tty_write>
80000ab4:	24060028 	li	a2,40
80000ab8:	00000000 	nop
80000abc:	0c00017b 	jal	800005ec <_itoa_print>
80000ac0:	40044800 	mfc0	a0,c0_count
80000ac4:	00000000 	nop
80000ac8:	8fbf0000 	lw	ra,0(sp)
80000acc:	03e00008 	jr	ra
80000ad0:	27bd0004 	addiu	sp,sp,4

80000ad4 <message_timer0>:
80000ad4:	2121210a 	addi	at,t1,8458
80000ad8:	746e6920 	jalx	81b9a480 <_isr_tty3_get+0x1b997a8>
80000adc:	75727265 	jalx	85c9c994 <_isr_tty3_get+0x5c9bcbc>
80000ae0:	74207470 	jalx	8081d1c0 <_isr_tty3_get+0x81c4e8>
80000ae4:	72656d69 	0x72656d69
80000ae8:	65722030 	0x65722030
80000aec:	76696563 	jalx	89a5958c <_isr_tty3_get+0x9a588b4>
80000af0:	61206465 	0x61206465
80000af4:	79632074 	0x79632074
80000af8:	20656c63 	addi	a1,v1,27747
	...

80000afd <_isr_timer1>:
80000afd:	fffc      	daddiu	a3,sp,112
80000aff:	27bd      	beqz	a3,80000a7b <_isr_dma+0xb>
80000b01:	0000      	addiu	s0,sp,0
80000b03:	afbf      	lhu	a1,62(a3)
80000b05:	d000      	sw	s0,0(sp)
80000b07:	3c04      	ld	s0,32(a0)
80000b09:	0000      	addiu	s0,sp,0
80000b0b:	2484      	beqz	a0,80000a15 <_locks_read+0x11>
80000b0d:	001c      	addiu	s0,sp,112
80000b0f:	ac80      	lhu	a0,0(a0)
80000b11:	7800      	sd	s0,0(s0)
80000b13:	4004      	addiu	s0,s0,4
80000b15:	00ff      	addiu	s0,sp,1020
80000b17:	30e4      	sll	s0,a3,1
80000b19:	8000      	lb	s0,0(s0)
80000b1b:	3c05      	ld	s0,40(a0)
80000b1d:	0b45      	la	v1,80000c30 <message_timer3+0x5>
80000b1f:	24a5      	beqz	a0,80000a6b <_locks_read+0x67>
80000b21:	01bf      	addiu	s1,sp,764
80000b23:	0c00      	la	a0,80000b20 <_isr_timer1+0x23>
80000b25:	0028      	addiu	s0,sp,160
80000b27:	2406      	beqz	a0,80000b35 <_isr_timer1+0x38>
80000b29:	0000      	addiu	s0,sp,0
80000b2b:	0000      	addiu	s0,sp,0
80000b2d:	017b      	addiu	s1,sp,492
80000b2f:	0c00      	la	a0,80000b2c <_isr_timer1+0x2f>
80000b31:	4800      	addiu	s0,0
80000b33:	4004      	addiu	s0,s0,4
80000b35:	0000      	addiu	s0,sp,0
80000b37:	0000      	addiu	s0,sp,0
80000b39:	0000      	addiu	s0,sp,0
80000b3b:	8fbf      	lh	a1,62(a3)
80000b3d:	0008      	addiu	s0,sp,32
80000b3f:	03e0      	addiu	v1,sp,896
80000b41:	0004      	addiu	s0,sp,16
80000b43:	27bd      	beqz	a3,80000abf <_isr_timer0+0x33>

80000b45 <message_timer1>:
80000b45:	210a      	beqz	s1,80000b5b <message_timer1+0x16>
80000b47:	2121      	beqz	s1,80000b8b <_isr_timer2+0x1d>
80000b49:	6920      	li	s1,32
80000b4b:	746e      	cmpi	a0,110
80000b4d:	7265      	cmpi	v0,101
80000b4f:	7572      	cmpi	a1,114
80000b51:	7470      	cmpi	a0,112
80000b53:	7420      	cmpi	a0,32
80000b55:	6d69      	li	a1,105
80000b57:	7265      	cmpi	v0,101
80000b59:	2031      	beqz	s0,80000bbd <message_timer2+0x3>
80000b5b:	6572      	move	s3,v0
80000b5d:	6563      	move	v1,v1
80000b5f:	7669      	cmpi	a2,105
80000b61:	6465      	restore	40,ra,s0
80000b63:	6120      	btnez	80000ba5 <_isr_timer2+0x37>
80000b65:	2074      	beqz	s0,80000c4f <message_timer3+0x24>
80000b67:	7963      	sd	v1,24(s1)
80000b69:	6c63      	li	a0,99
80000b6b:	2065      	beqz	s0,80000c37 <message_timer3+0xc>
	...

80000b6e <_isr_timer2>:
80000b6e:	27bdfffc 	addiu	sp,sp,-4
80000b72:	afbf0000 	sw	ra,0(sp)
80000b76:	3c04d000 	lui	a0,0xd000
80000b7a:	24840000 	addiu	a0,a0,0
80000b7e:	ac80002c 	sw	zero,44(a0)
80000b82:	40047800 	mfc0	a0,c0_prid
80000b86:	30e400ff 	andi	a0,a3,0xff
80000b8a:	3c058000 	lui	a1,0x8000
80000b8e:	24a50bba 	addiu	a1,a1,3002
80000b92:	0c0001bf 	jal	800006fc <_tty_write>
80000b96:	24060028 	li	a2,40
80000b9a:	00000000 	nop
80000b9e:	0c00017b 	jal	800005ec <_itoa_print>
80000ba2:	40044800 	mfc0	a0,c0_count
80000ba6:	00000000 	nop
80000baa:	27bd0004 	addiu	sp,sp,4
80000bae:	8fbf0000 	lw	ra,0(sp)
80000bb2:	03e00008 	jr	ra
80000bb6:	27bd0004 	addiu	sp,sp,4

80000bba <message_timer2>:
80000bba:	2121210a 	addi	at,t1,8458
80000bbe:	746e6920 	jalx	81b9a480 <_isr_tty3_get+0x1b997a8>
80000bc2:	75727265 	jalx	85c9c994 <_isr_tty3_get+0x5c9bcbc>
80000bc6:	74207470 	jalx	8081d1c0 <_isr_tty3_get+0x81c4e8>
80000bca:	72656d69 	0x72656d69
80000bce:	65722032 	0x65722032
80000bd2:	76696563 	jalx	89a5958c <_isr_tty3_get+0x9a588b4>
80000bd6:	61206465 	0x61206465
80000bda:	79632074 	0x79632074
80000bde:	20656c63 	addi	a1,v1,27747
	...

80000be3 <_isr_timer3>:
80000be3:	fffc      	daddiu	a3,sp,112
80000be5:	27bd      	beqz	a3,80000b61 <message_timer1+0x1c>
80000be7:	0000      	addiu	s0,sp,0
80000be9:	afbf      	lhu	a1,62(a3)
80000beb:	d000      	sw	s0,0(sp)
80000bed:	3c04      	ld	s0,32(a0)
80000bef:	0000      	addiu	s0,sp,0
80000bf1:	2484      	beqz	a0,80000afb <message_timer0+0x27>
80000bf3:	003c      	addiu	s0,sp,240
80000bf5:	ac80      	lhu	a0,0(a0)
80000bf7:	7800      	sd	s0,0(s0)
80000bf9:	4004      	addiu	s0,s0,4
80000bfb:	00ff      	addiu	s0,sp,1020
80000bfd:	30e4      	sll	s0,a3,1
80000bff:	8000      	lb	s0,0(s0)
80000c01:	3c05      	ld	s0,40(a0)
80000c03:	0c2b      	la	a0,80000cac <_isr_tty2_get>
80000c05:	24a5      	beqz	a0,80000b51 <message_timer1+0xc>
80000c07:	01bf      	addiu	s1,sp,764
80000c09:	0c00      	la	a0,80000c08 <_isr_timer3+0x25>
80000c0b:	0028      	addiu	s0,sp,160
80000c0d:	2406      	beqz	a0,80000c1b <_isr_timer3+0x38>
80000c0f:	0000      	addiu	s0,sp,0
80000c11:	0000      	addiu	s0,sp,0
80000c13:	017b      	addiu	s1,sp,492
80000c15:	0c00      	la	a0,80000c14 <_isr_timer3+0x31>
80000c17:	4800      	addiu	s0,0
80000c19:	4004      	addiu	s0,s0,4
80000c1b:	0000      	addiu	s0,sp,0
80000c1d:	0000      	addiu	s0,sp,0
80000c1f:	0000      	addiu	s0,sp,0
80000c21:	8fbf      	lh	a1,62(a3)
80000c23:	0008      	addiu	s0,sp,32
80000c25:	03e0      	addiu	v1,sp,896
80000c27:	0004      	addiu	s0,sp,16
80000c29:	27bd      	beqz	a3,80000ba5 <_isr_timer2+0x37>

80000c2b <message_timer3>:
80000c2b:	210a      	beqz	s1,80000c41 <message_timer3+0x16>
80000c2d:	2121      	beqz	s1,80000c71 <_isr_tty0_get+0x1d>
80000c2f:	6920      	li	s1,32
80000c31:	746e      	cmpi	a0,110
80000c33:	7265      	cmpi	v0,101
80000c35:	7572      	cmpi	a1,114
80000c37:	7470      	cmpi	a0,112
80000c39:	7420      	cmpi	a0,32
80000c3b:	6d69      	li	a1,105
80000c3d:	7265      	cmpi	v0,101
80000c3f:	2033      	beqz	s0,80000ca7 <_isr_tty1_get+0x27>
80000c41:	6572      	move	s3,v0
80000c43:	6563      	move	v1,v1
80000c45:	7669      	cmpi	a2,105
80000c47:	6465      	restore	40,ra,s0
80000c49:	6120      	btnez	80000c8b <_isr_tty1_get+0xb>
80000c4b:	2074      	beqz	s0,80000d35 <_isr_tty3_get+0x5d>
80000c4d:	7963      	sd	v1,24(s1)
80000c4f:	6c63      	li	a0,99
80000c51:	2065      	beqz	s0,80000d1d <_isr_tty3_get+0x45>
	...

80000c54 <_isr_tty0_get>:
80000c54:	3c1ac000 	lui	k0,0xc000
80000c58:	275a0000 	addiu	k0,k0,0
80000c5c:	835b0008 	lb	k1,8(k0)
80000c60:	3c1a1000 	lui	k0,0x1000
80000c64:	275a00e8 	addiu	k0,k0,232
80000c68:	a35b0000 	sb	k1,0(k0)
80000c6c:	3c1a1000 	lui	k0,0x1000
80000c70:	275a00c8 	addiu	k0,k0,200
80000c74:	241b0001 	li	k1,1
80000c78:	03e00008 	jr	ra
80000c7c:	af5b0000 	sw	k1,0(k0)

80000c80 <_isr_tty1_get>:
80000c80:	3c1ac000 	lui	k0,0xc000
80000c84:	275a0000 	addiu	k0,k0,0
80000c88:	835b0018 	lb	k1,24(k0)
80000c8c:	3c1a1000 	lui	k0,0x1000
80000c90:	275a00e8 	addiu	k0,k0,232
80000c94:	a35b0001 	sb	k1,1(k0)
80000c98:	3c1a1000 	lui	k0,0x1000
80000c9c:	275a00c8 	addiu	k0,k0,200
80000ca0:	241b0001 	li	k1,1
80000ca4:	03e00008 	jr	ra
80000ca8:	af5b0004 	sw	k1,4(k0)

80000cac <_isr_tty2_get>:
80000cac:	3c1ac000 	lui	k0,0xc000
80000cb0:	275a0000 	addiu	k0,k0,0
80000cb4:	835b0028 	lb	k1,40(k0)
80000cb8:	3c1a1000 	lui	k0,0x1000
80000cbc:	275a00e8 	addiu	k0,k0,232
80000cc0:	a35b0002 	sb	k1,2(k0)
80000cc4:	3c1a1000 	lui	k0,0x1000
80000cc8:	275a00c8 	addiu	k0,k0,200
80000ccc:	241b0001 	li	k1,1
80000cd0:	03e00008 	jr	ra
80000cd4:	af5b0008 	sw	k1,8(k0)

80000cd8 <_isr_tty3_get>:
80000cd8:	3c1ac000 	lui	k0,0xc000
80000cdc:	275a0000 	addiu	k0,k0,0
80000ce0:	835b0038 	lb	k1,56(k0)
80000ce4:	3c1a1000 	lui	k0,0x1000
80000ce8:	275a00e8 	addiu	k0,k0,232
80000cec:	a35b0003 	sb	k1,3(k0)
80000cf0:	3c1a1000 	lui	k0,0x1000
80000cf4:	275a00c8 	addiu	k0,k0,200
80000cf8:	241b0001 	li	k1,1
80000cfc:	03e00008 	jr	ra
80000d00:	af5b000c 	sw	k1,12(k0)

Disassembly of section seg_code:

00400000 <user_putc>:
  400000:	27bdffe8 	addiu	sp,sp,-24
  400004:	afb00010 	sw	s0,16(sp)
  400008:	afbf0014 	sw	ra,20(sp)
  40000c:	0c100038 	jal	4000e0 <procid>
  400010:	00048600 	sll	s0,a0,0x18
  400014:	00021880 	sll	v1,v0,0x2
  400018:	00402821 	move	a1,v0
  40001c:	3c021000 	lui	v0,0x1000
  400020:	244200f0 	addiu	v0,v0,240
  400024:	00108603 	sra	s0,s0,0x18
  400028:	00432021 	addu	a0,v0,v1
  40002c:	8c820000 	lw	v0,0(a0)
  400030:	1440fffe 	bnez	v0,40002c <user_putc+0x2c>
  400034:	3c021000 	lui	v0,0x1000
  400038:	24420110 	addiu	v0,v0,272
  40003c:	00a21021 	addu	v0,a1,v0
  400040:	a0500000 	sb	s0,0(v0)
  400044:	8fbf0014 	lw	ra,20(sp)
  400048:	24030001 	li	v1,1
  40004c:	8fb00010 	lw	s0,16(sp)
  400050:	ac830000 	sw	v1,0(a0)
  400054:	03e00008 	jr	ra
  400058:	27bd0018 	addiu	sp,sp,24

0040005c <user_getc>:
  40005c:	27bdffe8 	addiu	sp,sp,-24
  400060:	afb00010 	sw	s0,16(sp)
  400064:	afbf0014 	sw	ra,20(sp)
  400068:	0c100038 	jal	4000e0 <procid>
  40006c:	00808021 	move	s0,a0
  400070:	00021880 	sll	v1,v0,0x2
  400074:	00402821 	move	a1,v0
  400078:	3c021000 	lui	v0,0x1000
  40007c:	244200c8 	addiu	v0,v0,200
  400080:	00432021 	addu	a0,v0,v1
  400084:	8c820000 	lw	v0,0(a0)
  400088:	1040fffe 	beqz	v0,400084 <user_getc+0x28>
  40008c:	3c021000 	lui	v0,0x1000
  400090:	244200e8 	addiu	v0,v0,232
  400094:	00a21021 	addu	v0,a1,v0
  400098:	90430000 	lbu	v1,0(v0)
  40009c:	a2030000 	sb	v1,0(s0)
  4000a0:	8fbf0014 	lw	ra,20(sp)
  4000a4:	8fb00010 	lw	s0,16(sp)
  4000a8:	ac800000 	sw	zero,0(a0)
  4000ac:	03e00008 	jr	ra
  4000b0:	27bd0018 	addiu	sp,sp,24

004000b4 <sys_call>:
  4000b4:	27bdfff8 	addiu	sp,sp,-8
  4000b8:	00801021 	move	v0,a0
  4000bc:	afbf0004 	sw	ra,4(sp)
  4000c0:	00a02021 	move	a0,a1
  4000c4:	00c02821 	move	a1,a2
  4000c8:	00e03021 	move	a2,a3
  4000cc:	8fa70018 	lw	a3,24(sp)
  4000d0:	0000000c 	syscall
  4000d4:	8fbf0004 	lw	ra,4(sp)
  4000d8:	03e00008 	jr	ra
  4000dc:	27bd0008 	addiu	sp,sp,8

004000e0 <procid>:
  4000e0:	27bdfff8 	addiu	sp,sp,-8
  4000e4:	afbf0004 	sw	ra,4(sp)
  4000e8:	00001021 	move	v0,zero
  4000ec:	00002021 	move	a0,zero
  4000f0:	00002821 	move	a1,zero
  4000f4:	00003021 	move	a2,zero
  4000f8:	00003821 	move	a3,zero
  4000fc:	0000000c 	syscall
  400100:	8fbf0004 	lw	ra,4(sp)
  400104:	03e00008 	jr	ra
  400108:	27bd0008 	addiu	sp,sp,8

0040010c <proctime>:
  40010c:	27bdfff8 	addiu	sp,sp,-8
  400110:	afbf0004 	sw	ra,4(sp)
  400114:	24020001 	li	v0,1
  400118:	00002021 	move	a0,zero
  40011c:	00002821 	move	a1,zero
  400120:	00003021 	move	a2,zero
  400124:	00003821 	move	a3,zero
  400128:	0000000c 	syscall
  40012c:	8fbf0004 	lw	ra,4(sp)
  400130:	03e00008 	jr	ra
  400134:	27bd0008 	addiu	sp,sp,8

00400138 <exit>:
  400138:	27bdfff8 	addiu	sp,sp,-8
  40013c:	afbf0004 	sw	ra,4(sp)
  400140:	00001021 	move	v0,zero
  400144:	00002021 	move	a0,zero
  400148:	00002821 	move	a1,zero
  40014c:	00003021 	move	a2,zero
  400150:	00003821 	move	a3,zero
  400154:	0000000c 	syscall
  400158:	00402021 	move	a0,v0
  40015c:	2402000e 	li	v0,14
  400160:	0000000c 	syscall
  400164:	8fbf0004 	lw	ra,4(sp)
  400168:	03e00008 	jr	ra
  40016c:	27bd0008 	addiu	sp,sp,8

00400170 <tty_puts>:
  400170:	27bdfff8 	addiu	sp,sp,-8
  400174:	afb00000 	sw	s0,0(sp)
  400178:	afbf0004 	sw	ra,4(sp)
  40017c:	00808021 	move	s0,a0
  400180:	00001021 	move	v0,zero
  400184:	00002021 	move	a0,zero
  400188:	00002821 	move	a1,zero
  40018c:	00003021 	move	a2,zero
  400190:	00003821 	move	a3,zero
  400194:	0000000c 	syscall
  400198:	82040000 	lb	a0,0(s0)
  40019c:	10800008 	beqz	a0,4001c0 <tty_puts+0x50>
  4001a0:	00402821 	move	a1,v0
  4001a4:	00003021 	move	a2,zero
  4001a8:	24c60001 	addiu	a2,a2,1
  4001ac:	02061021 	addu	v0,s0,a2
  4001b0:	80430000 	lb	v1,0(v0)
  4001b4:	1460fffd 	bnez	v1,4001ac <tty_puts+0x3c>
  4001b8:	24c60001 	addiu	a2,a2,1
  4001bc:	24c6ffff 	addiu	a2,a2,-1
  4001c0:	00a02021 	move	a0,a1
  4001c4:	24020002 	li	v0,2
  4001c8:	02002821 	move	a1,s0
  4001cc:	00003821 	move	a3,zero
  4001d0:	0000000c 	syscall
  4001d4:	8fbf0004 	lw	ra,4(sp)
  4001d8:	8fb00000 	lw	s0,0(sp)
  4001dc:	03e00008 	jr	ra
  4001e0:	27bd0008 	addiu	sp,sp,8

004001e4 <tty_putc>:
  4001e4:	27bdfff8 	addiu	sp,sp,-8
  4001e8:	a3a40008 	sb	a0,8(sp)
  4001ec:	afbf0004 	sw	ra,4(sp)
  4001f0:	00001021 	move	v0,zero
  4001f4:	00002021 	move	a0,zero
  4001f8:	00002821 	move	a1,zero
  4001fc:	00003021 	move	a2,zero
  400200:	00003821 	move	a3,zero
  400204:	0000000c 	syscall
  400208:	24060001 	li	a2,1
  40020c:	00402021 	move	a0,v0
  400210:	27a50008 	addiu	a1,sp,8
  400214:	24020002 	li	v0,2
  400218:	0000000c 	syscall
  40021c:	8fbf0004 	lw	ra,4(sp)
  400220:	03e00008 	jr	ra
  400224:	27bd0008 	addiu	sp,sp,8

00400228 <tty_putw>:
  400228:	27bdffe8 	addiu	sp,sp,-24
  40022c:	afb00010 	sw	s0,16(sp)
  400230:	afbf0014 	sw	ra,20(sp)
  400234:	00808021 	move	s0,a0
  400238:	00001021 	move	v0,zero
  40023c:	00002021 	move	a0,zero
  400240:	00002821 	move	a1,zero
  400244:	00003021 	move	a2,zero
  400248:	00003821 	move	a3,zero
  40024c:	0000000c 	syscall
  400250:	00404821 	move	t1,v0
  400254:	3c026666 	lui	v0,0x6666
  400258:	34486667 	ori	t0,v0,0x6667
  40025c:	27a60009 	addiu	a2,sp,9
  400260:	27a7ffff 	addiu	a3,sp,-1
  400264:	02080018 	mult	s0,t0
  400268:	00102fc3 	sra	a1,s0,0x1f
  40026c:	00001810 	mfhi	v1
  400270:	00032083 	sra	a0,v1,0x2
  400274:	00852023 	subu	a0,a0,a1
  400278:	00041040 	sll	v0,a0,0x1
  40027c:	000418c0 	sll	v1,a0,0x3
  400280:	00431021 	addu	v0,v0,v1
  400284:	02021023 	subu	v0,s0,v0
  400288:	24420030 	addiu	v0,v0,48
  40028c:	a0c20000 	sb	v0,0(a2)
  400290:	24c6ffff 	addiu	a2,a2,-1
  400294:	14e6fff3 	bne	a3,a2,400264 <tty_putw+0x3c>
  400298:	00808021 	move	s0,a0
  40029c:	01202021 	move	a0,t1
  4002a0:	24020002 	li	v0,2
  4002a4:	03a02821 	move	a1,sp
  4002a8:	2406000a 	li	a2,10
  4002ac:	00003821 	move	a3,zero
  4002b0:	0000000c 	syscall
  4002b4:	8fbf0014 	lw	ra,20(sp)
  4002b8:	8fb00010 	lw	s0,16(sp)
  4002bc:	03e00008 	jr	ra
  4002c0:	27bd0018 	addiu	sp,sp,24

004002c4 <tty_gets>:
  4002c4:	27bdfff0 	addiu	sp,sp,-16
  4002c8:	afb10008 	sw	s1,8(sp)
  4002cc:	afb00004 	sw	s0,4(sp)
  4002d0:	00808821 	move	s1,a0
  4002d4:	00a08021 	move	s0,a1
  4002d8:	afbf000c 	sw	ra,12(sp)
  4002dc:	00001021 	move	v0,zero
  4002e0:	00002021 	move	a0,zero
  4002e4:	00002821 	move	a1,zero
  4002e8:	00003021 	move	a2,zero
  4002ec:	00003821 	move	a3,zero
  4002f0:	0000000c 	syscall
  4002f4:	00402021 	move	a0,v0
  4002f8:	2606ffff 	addiu	a2,s0,-1
  4002fc:	24020003 	li	v0,3
  400300:	02202821 	move	a1,s1
  400304:	0000000c 	syscall
  400308:	04400008 	bltz	v0,40032c <tty_gets+0x68>
  40030c:	02221021 	addu	v0,s1,v0
  400310:	a0400000 	sb	zero,0(v0)
  400314:	8fbf000c 	lw	ra,12(sp)
  400318:	00001021 	move	v0,zero
  40031c:	8fb10008 	lw	s1,8(sp)
  400320:	8fb00004 	lw	s0,4(sp)
  400324:	03e00008 	jr	ra
  400328:	27bd0010 	addiu	sp,sp,16
  40032c:	8fbf000c 	lw	ra,12(sp)
  400330:	2402ffff 	li	v0,-1
  400334:	8fb10008 	lw	s1,8(sp)
  400338:	8fb00004 	lw	s0,4(sp)
  40033c:	03e00008 	jr	ra
  400340:	27bd0010 	addiu	sp,sp,16

00400344 <tty_getc>:
  400344:	27bdfff8 	addiu	sp,sp,-8
  400348:	afb00000 	sw	s0,0(sp)
  40034c:	afbf0004 	sw	ra,4(sp)
  400350:	00808021 	move	s0,a0
  400354:	00001021 	move	v0,zero
  400358:	00002021 	move	a0,zero
  40035c:	00002821 	move	a1,zero
  400360:	00003021 	move	a2,zero
  400364:	00003821 	move	a3,zero
  400368:	0000000c 	syscall
  40036c:	24060001 	li	a2,1
  400370:	00402021 	move	a0,v0
  400374:	02002821 	move	a1,s0
  400378:	24020003 	li	v0,3
  40037c:	0000000c 	syscall
  400380:	8fbf0004 	lw	ra,4(sp)
  400384:	8fb00000 	lw	s0,0(sp)
  400388:	03e00008 	jr	ra
  40038c:	27bd0008 	addiu	sp,sp,8

00400390 <tty_getw>:
  400390:	27bdffe0 	addiu	sp,sp,-32
  400394:	afb00018 	sw	s0,24(sp)
  400398:	afbf001c 	sw	ra,28(sp)
  40039c:	00808021 	move	s0,a0
  4003a0:	00001021 	move	v0,zero
  4003a4:	00002021 	move	a0,zero
  4003a8:	00002821 	move	a1,zero
  4003ac:	00003021 	move	a2,zero
  4003b0:	00003821 	move	a3,zero
  4003b4:	0000000c 	syscall
  4003b8:	3c041000 	lui	a0,0x1000
  4003bc:	24830094 	addiu	v1,a0,148
  4003c0:	8c850094 	lw	a1,148(a0)
  4003c4:	8c660004 	lw	a2,4(v1)
  4003c8:	8c640008 	lw	a0,8(v1)
  4003cc:	8c690010 	lw	t1,16(v1)
  4003d0:	8c68000c 	lw	t0,12(v1)
  4003d4:	afa50000 	sw	a1,0(sp)
  4003d8:	afa60004 	sw	a2,4(sp)
  4003dc:	afa40008 	sw	a0,8(sp)
  4003e0:	afa8000c 	sw	t0,12(sp)
  4003e4:	00402021 	move	a0,v0
  4003e8:	afa90010 	sw	t1,16(sp)
  4003ec:	24020003 	li	v0,3
  4003f0:	03a02821 	move	a1,sp
  4003f4:	24060014 	li	a2,20
  4003f8:	0000000c 	syscall
  4003fc:	04400018 	bltz	v0,400460 <tty_getw+0xd0>
  400400:	8fbf001c 	lw	ra,28(sp)
  400404:	10400011 	beqz	v0,40044c <tty_getw+0xbc>
  400408:	00003821 	move	a3,zero
  40040c:	03a24021 	addu	t0,sp,v0
  400410:	03a03021 	move	a2,sp
  400414:	90c50000 	lbu	a1,0(a2)
  400418:	000720c0 	sll	a0,a3,0x3
  40041c:	24a3ffd6 	addiu	v1,a1,-42
  400420:	306300ff 	andi	v1,v1,0xff
  400424:	00071040 	sll	v0,a3,0x1
  400428:	2c630016 	sltiu	v1,v1,22
  40042c:	00441021 	addu	v0,v0,a0
  400430:	24c60001 	addiu	a2,a2,1
  400434:	10600002 	beqz	v1,400440 <tty_getw+0xb0>
  400438:	24a5ffd0 	addiu	a1,a1,-48
  40043c:	00a23821 	addu	a3,a1,v0
  400440:	14c8fff4 	bne	a2,t0,400414 <tty_getw+0x84>
  400444:	00000000 	nop
  400448:	8fbf001c 	lw	ra,28(sp)
  40044c:	ae070000 	sw	a3,0(s0)
  400450:	00001021 	move	v0,zero
  400454:	8fb00018 	lw	s0,24(sp)
  400458:	03e00008 	jr	ra
  40045c:	27bd0020 	addiu	sp,sp,32
  400460:	2402ffff 	li	v0,-1
  400464:	8fb00018 	lw	s0,24(sp)
  400468:	03e00008 	jr	ra
  40046c:	27bd0020 	addiu	sp,sp,32

00400470 <timer_set_mode>:
  400470:	27bdfff8 	addiu	sp,sp,-8
  400474:	00a03021 	move	a2,a1
  400478:	afbf0004 	sw	ra,4(sp)
  40047c:	24020004 	li	v0,4
  400480:	24050001 	li	a1,1
  400484:	00003821 	move	a3,zero
  400488:	0000000c 	syscall
  40048c:	8fbf0004 	lw	ra,4(sp)
  400490:	03e00008 	jr	ra
  400494:	27bd0008 	addiu	sp,sp,8

00400498 <timer_set_period>:
  400498:	27bdfff8 	addiu	sp,sp,-8
  40049c:	00a03021 	move	a2,a1
  4004a0:	afbf0004 	sw	ra,4(sp)
  4004a4:	24020004 	li	v0,4
  4004a8:	24050002 	li	a1,2
  4004ac:	00003821 	move	a3,zero
  4004b0:	0000000c 	syscall
  4004b4:	8fbf0004 	lw	ra,4(sp)
  4004b8:	03e00008 	jr	ra
  4004bc:	27bd0008 	addiu	sp,sp,8

004004c0 <timer_reset_irq>:
  4004c0:	27bdfff8 	addiu	sp,sp,-8
  4004c4:	afbf0004 	sw	ra,4(sp)
  4004c8:	24020004 	li	v0,4
  4004cc:	24050003 	li	a1,3
  4004d0:	00003021 	move	a2,zero
  4004d4:	00003821 	move	a3,zero
  4004d8:	0000000c 	syscall
  4004dc:	8fbf0004 	lw	ra,4(sp)
  4004e0:	03e00008 	jr	ra
  4004e4:	27bd0008 	addiu	sp,sp,8

004004e8 <timer_get_time>:
  4004e8:	27bdfff8 	addiu	sp,sp,-8
  4004ec:	00a03021 	move	a2,a1
  4004f0:	afbf0004 	sw	ra,4(sp)
  4004f4:	24020005 	li	v0,5
  4004f8:	00002821 	move	a1,zero
  4004fc:	00003821 	move	a3,zero
  400500:	0000000c 	syscall
  400504:	8fbf0004 	lw	ra,4(sp)
  400508:	03e00008 	jr	ra
  40050c:	27bd0008 	addiu	sp,sp,8

00400510 <gcd_set_opa>:
  400510:	27bdfff8 	addiu	sp,sp,-8
  400514:	00802821 	move	a1,a0
  400518:	afbf0004 	sw	ra,4(sp)
  40051c:	24020006 	li	v0,6
  400520:	00002021 	move	a0,zero
  400524:	00003021 	move	a2,zero
  400528:	00003821 	move	a3,zero
  40052c:	0000000c 	syscall
  400530:	8fbf0004 	lw	ra,4(sp)
  400534:	03e00008 	jr	ra
  400538:	27bd0008 	addiu	sp,sp,8

0040053c <gcd_set_opb>:
  40053c:	27bdfff8 	addiu	sp,sp,-8
  400540:	00802821 	move	a1,a0
  400544:	afbf0004 	sw	ra,4(sp)
  400548:	24020006 	li	v0,6
  40054c:	24040001 	li	a0,1
  400550:	00003021 	move	a2,zero
  400554:	00003821 	move	a3,zero
  400558:	0000000c 	syscall
  40055c:	8fbf0004 	lw	ra,4(sp)
  400560:	03e00008 	jr	ra
  400564:	27bd0008 	addiu	sp,sp,8

00400568 <gcd_start>:
  400568:	27bdfff8 	addiu	sp,sp,-8
  40056c:	afbf0004 	sw	ra,4(sp)
  400570:	24020006 	li	v0,6
  400574:	24040002 	li	a0,2
  400578:	00002821 	move	a1,zero
  40057c:	00003021 	move	a2,zero
  400580:	00003821 	move	a3,zero
  400584:	0000000c 	syscall
  400588:	8fbf0004 	lw	ra,4(sp)
  40058c:	03e00008 	jr	ra
  400590:	27bd0008 	addiu	sp,sp,8

00400594 <gcd_get_status>:
  400594:	27bdfff8 	addiu	sp,sp,-8
  400598:	00802821 	move	a1,a0
  40059c:	afbf0004 	sw	ra,4(sp)
  4005a0:	24020007 	li	v0,7
  4005a4:	24040003 	li	a0,3
  4005a8:	00003021 	move	a2,zero
  4005ac:	00003821 	move	a3,zero
  4005b0:	0000000c 	syscall
  4005b4:	8fbf0004 	lw	ra,4(sp)
  4005b8:	03e00008 	jr	ra
  4005bc:	27bd0008 	addiu	sp,sp,8

004005c0 <gcd_get_result>:
  4005c0:	27bdfff8 	addiu	sp,sp,-8
  4005c4:	00802821 	move	a1,a0
  4005c8:	afbf0004 	sw	ra,4(sp)
  4005cc:	24020007 	li	v0,7
  4005d0:	00002021 	move	a0,zero
  4005d4:	00003021 	move	a2,zero
  4005d8:	00003821 	move	a3,zero
  4005dc:	0000000c 	syscall
  4005e0:	8fbf0004 	lw	ra,4(sp)
  4005e4:	03e00008 	jr	ra
  4005e8:	27bd0008 	addiu	sp,sp,8

004005ec <icu_set_mask>:
  4005ec:	27bdfff8 	addiu	sp,sp,-8
  4005f0:	00802821 	move	a1,a0
  4005f4:	afbf0004 	sw	ra,4(sp)
  4005f8:	24020008 	li	v0,8
  4005fc:	24040002 	li	a0,2
  400600:	00003021 	move	a2,zero
  400604:	00003821 	move	a3,zero
  400608:	0000000c 	syscall
  40060c:	8fbf0004 	lw	ra,4(sp)
  400610:	03e00008 	jr	ra
  400614:	27bd0008 	addiu	sp,sp,8

00400618 <icu_clear_mask>:
  400618:	27bdfff8 	addiu	sp,sp,-8
  40061c:	00802821 	move	a1,a0
  400620:	afbf0004 	sw	ra,4(sp)
  400624:	24020008 	li	v0,8
  400628:	24040003 	li	a0,3
  40062c:	00003021 	move	a2,zero
  400630:	00003821 	move	a3,zero
  400634:	0000000c 	syscall
  400638:	8fbf0004 	lw	ra,4(sp)
  40063c:	03e00008 	jr	ra
  400640:	27bd0008 	addiu	sp,sp,8

00400644 <icu_get_mask>:
  400644:	27bdfff8 	addiu	sp,sp,-8
  400648:	00802821 	move	a1,a0
  40064c:	afbf0004 	sw	ra,4(sp)
  400650:	24020009 	li	v0,9
  400654:	24040001 	li	a0,1
  400658:	00003021 	move	a2,zero
  40065c:	00003821 	move	a3,zero
  400660:	0000000c 	syscall
  400664:	8fbf0004 	lw	ra,4(sp)
  400668:	03e00008 	jr	ra
  40066c:	27bd0008 	addiu	sp,sp,8

00400670 <icu_get_irqs>:
  400670:	27bdfff8 	addiu	sp,sp,-8
  400674:	00802821 	move	a1,a0
  400678:	afbf0004 	sw	ra,4(sp)
  40067c:	24020009 	li	v0,9
  400680:	00002021 	move	a0,zero
  400684:	00003021 	move	a2,zero
  400688:	00003821 	move	a3,zero
  40068c:	0000000c 	syscall
  400690:	8fbf0004 	lw	ra,4(sp)
  400694:	03e00008 	jr	ra
  400698:	27bd0008 	addiu	sp,sp,8

0040069c <icu_get_index>:
  40069c:	27bdfff8 	addiu	sp,sp,-8
  4006a0:	00802821 	move	a1,a0
  4006a4:	afbf0004 	sw	ra,4(sp)
  4006a8:	24020009 	li	v0,9
  4006ac:	24040004 	li	a0,4
  4006b0:	00003021 	move	a2,zero
  4006b4:	00003821 	move	a3,zero
  4006b8:	0000000c 	syscall
  4006bc:	8fbf0004 	lw	ra,4(sp)
  4006c0:	03e00008 	jr	ra
  4006c4:	27bd0008 	addiu	sp,sp,8

004006c8 <dma_set_source>:
  4006c8:	27bdfff8 	addiu	sp,sp,-8
  4006cc:	00802821 	move	a1,a0
  4006d0:	afbf0004 	sw	ra,4(sp)
  4006d4:	2402000a 	li	v0,10
  4006d8:	00002021 	move	a0,zero
  4006dc:	00003021 	move	a2,zero
  4006e0:	00003821 	move	a3,zero
  4006e4:	0000000c 	syscall
  4006e8:	8fbf0004 	lw	ra,4(sp)
  4006ec:	03e00008 	jr	ra
  4006f0:	27bd0008 	addiu	sp,sp,8

004006f4 <dma_set_dest>:
  4006f4:	27bdfff8 	addiu	sp,sp,-8
  4006f8:	00802821 	move	a1,a0
  4006fc:	afbf0004 	sw	ra,4(sp)
  400700:	2402000a 	li	v0,10
  400704:	24040001 	li	a0,1
  400708:	00003021 	move	a2,zero
  40070c:	00003821 	move	a3,zero
  400710:	0000000c 	syscall
  400714:	8fbf0004 	lw	ra,4(sp)
  400718:	03e00008 	jr	ra
  40071c:	27bd0008 	addiu	sp,sp,8

00400720 <dma_set_length>:
  400720:	27bdfff8 	addiu	sp,sp,-8
  400724:	00802821 	move	a1,a0
  400728:	afbf0004 	sw	ra,4(sp)
  40072c:	2402000a 	li	v0,10
  400730:	24040004 	li	a0,4
  400734:	00003021 	move	a2,zero
  400738:	00003821 	move	a3,zero
  40073c:	0000000c 	syscall
  400740:	8fbf0004 	lw	ra,4(sp)
  400744:	03e00008 	jr	ra
  400748:	27bd0008 	addiu	sp,sp,8

0040074c <dma_reset>:
  40074c:	27bdfff8 	addiu	sp,sp,-8
  400750:	afbf0004 	sw	ra,4(sp)
  400754:	2402000a 	li	v0,10
  400758:	24040003 	li	a0,3
  40075c:	00002821 	move	a1,zero
  400760:	00003021 	move	a2,zero
  400764:	00003821 	move	a3,zero
  400768:	0000000c 	syscall
  40076c:	8fbf0004 	lw	ra,4(sp)
  400770:	03e00008 	jr	ra
  400774:	27bd0008 	addiu	sp,sp,8

00400778 <lock_get>:
  400778:	27bdfff8 	addiu	sp,sp,-8
  40077c:	afbf0004 	sw	ra,4(sp)
  400780:	2402000d 	li	v0,13
  400784:	00002821 	move	a1,zero
  400788:	00003021 	move	a2,zero
  40078c:	00003821 	move	a3,zero
  400790:	0000000c 	syscall
  400794:	8fbf0004 	lw	ra,4(sp)
  400798:	03e00008 	jr	ra
  40079c:	27bd0008 	addiu	sp,sp,8

004007a0 <lock_release>:
  4007a0:	27bdfff8 	addiu	sp,sp,-8
  4007a4:	afbf0004 	sw	ra,4(sp)
  4007a8:	2402000c 	li	v0,12
  4007ac:	00002821 	move	a1,zero
  4007b0:	00003021 	move	a2,zero
  4007b4:	00003821 	move	a3,zero
  4007b8:	0000000c 	syscall
  4007bc:	8fbf0004 	lw	ra,4(sp)
  4007c0:	03e00008 	jr	ra
  4007c4:	27bd0008 	addiu	sp,sp,8

004007c8 <rand>:
  4007c8:	27bdfff8 	addiu	sp,sp,-8
  4007cc:	afbf0004 	sw	ra,4(sp)
  4007d0:	24020001 	li	v0,1
  4007d4:	00002021 	move	a0,zero
  4007d8:	00002821 	move	a1,zero
  4007dc:	00003021 	move	a2,zero
  4007e0:	00003821 	move	a3,zero
  4007e4:	0000000c 	syscall
  4007e8:	00401821 	move	v1,v0
  4007ec:	3042000f 	andi	v0,v0,0xf
  4007f0:	28420008 	slti	v0,v0,8
  4007f4:	10400006 	beqz	v0,400810 <rand+0x48>
  4007f8:	70631002 	mul	v0,v1,v1
  4007fc:	8fbf0004 	lw	ra,4(sp)
  400800:	70431002 	mul	v0,v0,v1
  400804:	27bd0008 	addiu	sp,sp,8
  400808:	03e00008 	jr	ra
  40080c:	3042ffff 	andi	v0,v0,0xffff
  400810:	8fbf0004 	lw	ra,4(sp)
  400814:	3042ffff 	andi	v0,v0,0xffff
  400818:	03e00008 	jr	ra
  40081c:	27bd0008 	addiu	sp,sp,8

00400820 <tty_printf>:
  400820:	27bdffc0 	addiu	sp,sp,-64
  400824:	27a20044 	addiu	v0,sp,68
  400828:	afa20000 	sw	v0,0(sp)
  40082c:	3c021000 	lui	v0,0x1000
  400830:	afbe0038 	sw	s8,56(sp)
  400834:	afb70034 	sw	s7,52(sp)
  400838:	afb60030 	sw	s6,48(sp)
  40083c:	afb5002c 	sw	s5,44(sp)
  400840:	afb40028 	sw	s4,40(sp)
  400844:	afb30024 	sw	s3,36(sp)
  400848:	afb20020 	sw	s2,32(sp)
  40084c:	afbf003c 	sw	ra,60(sp)
  400850:	afb1001c 	sw	s1,28(sp)
  400854:	afb00018 	sw	s0,24(sp)
  400858:	afa50044 	sw	a1,68(sp)
  40085c:	afa60048 	sw	a2,72(sp)
  400860:	afa7004c 	sw	a3,76(sp)
  400864:	00809021 	move	s2,a0
  400868:	24570000 	addiu	s7,v0,0
  40086c:	3c021000 	lui	v0,0x1000
  400870:	3c031000 	lui	v1,0x1000
  400874:	24550058 	addiu	s5,v0,88
  400878:	82440000 	lb	a0,0(s2)
  40087c:	3c026666 	lui	v0,0x6666
  400880:	247e00ac 	addiu	s8,v1,172
  400884:	34566667 	ori	s6,v0,0x6667
  400888:	24130025 	li	s3,37
  40088c:	27b40004 	addiu	s4,sp,4
  400890:	10800013 	beqz	a0,4008e0 <tty_printf+0xc0>
  400894:	8fbf003c 	lw	ra,60(sp)
  400898:	26430001 	addiu	v1,s2,1
  40089c:	02408821 	move	s1,s2
  4008a0:	00801021 	move	v0,a0
  4008a4:	00008021 	move	s0,zero
  4008a8:	10530006 	beq	v0,s3,4008c4 <tty_printf+0xa4>
  4008ac:	00000000 	nop
  4008b0:	80620000 	lb	v0,0(v1)
  4008b4:	00608821 	move	s1,v1
  4008b8:	26100001 	addiu	s0,s0,1
  4008bc:	1440fffa 	bnez	v0,4008a8 <tty_printf+0x88>
  4008c0:	24630001 	addiu	v1,v1,1
  4008c4:	16000012 	bnez	s0,400910 <tty_printf+0xf0>
  4008c8:	00002821 	move	a1,zero
  4008cc:	1093001d 	beq	a0,s3,400944 <tty_printf+0x124>
  4008d0:	02408821 	move	s1,s2
  4008d4:	1480fff0 	bnez	a0,400898 <tty_printf+0x78>
  4008d8:	02209021 	move	s2,s1
  4008dc:	8fbf003c 	lw	ra,60(sp)
  4008e0:	00001021 	move	v0,zero
  4008e4:	8fbe0038 	lw	s8,56(sp)
  4008e8:	8fb70034 	lw	s7,52(sp)
  4008ec:	8fb60030 	lw	s6,48(sp)
  4008f0:	8fb5002c 	lw	s5,44(sp)
  4008f4:	8fb40028 	lw	s4,40(sp)
  4008f8:	8fb30024 	lw	s3,36(sp)
  4008fc:	8fb20020 	lw	s2,32(sp)
  400900:	8fb1001c 	lw	s1,28(sp)
  400904:	8fb00018 	lw	s0,24(sp)
  400908:	03e00008 	jr	ra
  40090c:	27bd0040 	addiu	sp,sp,64
  400910:	00001021 	move	v0,zero
  400914:	00002021 	move	a0,zero
  400918:	00003021 	move	a2,zero
  40091c:	00003821 	move	a3,zero
  400920:	0000000c 	syscall
  400924:	00402021 	move	a0,v0
  400928:	02402821 	move	a1,s2
  40092c:	02003021 	move	a2,s0
  400930:	24020002 	li	v0,2
  400934:	0000000c 	syscall
  400938:	82240000 	lb	a0,0(s1)
  40093c:	1493ffe5 	bne	a0,s3,4008d4 <tty_printf+0xb4>
  400940:	00000000 	nop
  400944:	8fa40000 	lw	a0,0(sp)
  400948:	26320001 	addiu	s2,s1,1
  40094c:	24830004 	addiu	v1,a0,4
  400950:	afa30000 	sw	v1,0(sp)
  400954:	92220001 	lbu	v0,1(s1)
  400958:	2442ff9d 	addiu	v0,v0,-99
  40095c:	304200ff 	andi	v0,v0,0xff
  400960:	2c430016 	sltiu	v1,v0,22
  400964:	10600037 	beqz	v1,400a44 <tty_printf+0x224>
  400968:	8c900000 	lw	s0,0(a0)
  40096c:	00021080 	sll	v0,v0,0x2
  400970:	02e21021 	addu	v0,s7,v0
  400974:	8c430000 	lw	v1,0(v0)
  400978:	00600008 	jr	v1
  40097c:	00000000 	nop
  400980:	0601000e 	bgez	s0,4009bc <tty_printf+0x19c>
  400984:	00003021 	move	a2,zero
  400988:	00108023 	negu	s0,s0
  40098c:	00001021 	move	v0,zero
  400990:	00002021 	move	a0,zero
  400994:	00002821 	move	a1,zero
  400998:	00003821 	move	a3,zero
  40099c:	0000000c 	syscall
  4009a0:	3c051000 	lui	a1,0x1000
  4009a4:	00402021 	move	a0,v0
  4009a8:	24a500a8 	addiu	a1,a1,168
  4009ac:	24020002 	li	v0,2
  4009b0:	24060001 	li	a2,1
  4009b4:	0000000c 	syscall
  4009b8:	00003021 	move	a2,zero
  4009bc:	24050009 	li	a1,9
  4009c0:	2407000a 	li	a3,10
  4009c4:	02160018 	mult	s0,s6
  4009c8:	001027c3 	sra	a0,s0,0x1f
  4009cc:	00001810 	mfhi	v1
  4009d0:	00031883 	sra	v1,v1,0x2
  4009d4:	00641823 	subu	v1,v1,a0
  4009d8:	000320c0 	sll	a0,v1,0x3
  4009dc:	00031040 	sll	v0,v1,0x1
  4009e0:	00441021 	addu	v0,v0,a0
  4009e4:	02021023 	subu	v0,s0,v0
  4009e8:	02a21021 	addu	v0,s5,v0
  4009ec:	90440000 	lbu	a0,0(v0)
  4009f0:	02851021 	addu	v0,s4,a1
  4009f4:	00608021 	move	s0,v1
  4009f8:	10600005 	beqz	v1,400a10 <tty_printf+0x1f0>
  4009fc:	a0440000 	sb	a0,0(v0)
  400a00:	24c60001 	addiu	a2,a2,1
  400a04:	14c7ffef 	bne	a2,a3,4009c4 <tty_printf+0x1a4>
  400a08:	24a5ffff 	addiu	a1,a1,-1
  400a0c:	2405ffff 	li	a1,-1
  400a10:	02858021 	addu	s0,s4,a1
  400a14:	24d10001 	addiu	s1,a2,1
  400a18:	00001021 	move	v0,zero
  400a1c:	00002021 	move	a0,zero
  400a20:	00002821 	move	a1,zero
  400a24:	00003021 	move	a2,zero
  400a28:	00003821 	move	a3,zero
  400a2c:	0000000c 	syscall
  400a30:	00402021 	move	a0,v0
  400a34:	02002821 	move	a1,s0
  400a38:	02203021 	move	a2,s1
  400a3c:	24020002 	li	v0,2
  400a40:	0000000c 	syscall
  400a44:	26520001 	addiu	s2,s2,1
  400a48:	08100224 	j	400890 <tty_printf+0x70>
  400a4c:	82440000 	lb	a0,0(s2)
  400a50:	82020000 	lb	v0,0(s0)
  400a54:	10400041 	beqz	v0,400b5c <tty_printf+0x33c>
  400a58:	00003021 	move	a2,zero
  400a5c:	24c60001 	addiu	a2,a2,1
  400a60:	00d01021 	addu	v0,a2,s0
  400a64:	80430000 	lb	v1,0(v0)
  400a68:	1460fffd 	bnez	v1,400a60 <tty_printf+0x240>
  400a6c:	24c60001 	addiu	a2,a2,1
  400a70:	24c6ffff 	addiu	a2,a2,-1
  400a74:	08100286 	j	400a18 <tty_printf+0x1f8>
  400a78:	00c08821 	move	s1,a2
  400a7c:	00001021 	move	v0,zero
  400a80:	00002021 	move	a0,zero
  400a84:	00002821 	move	a1,zero
  400a88:	00003021 	move	a2,zero
  400a8c:	00003821 	move	a3,zero
  400a90:	0000000c 	syscall
  400a94:	24060002 	li	a2,2
  400a98:	00402021 	move	a0,v0
  400a9c:	03c02821 	move	a1,s8
  400aa0:	24020002 	li	v0,2
  400aa4:	0000000c 	syscall
  400aa8:	00004021 	move	t0,zero
  400aac:	24070007 	li	a3,7
  400ab0:	081002bb 	j	400aec <tty_printf+0x2cc>
  400ab4:	240afff0 	li	t2,-16
  400ab8:	02001021 	move	v0,s0
  400abc:	02a33021 	addu	a2,s5,v1
  400ac0:	2604000f 	addiu	a0,s0,15
  400ac4:	2a030000 	slti	v1,s0,0
  400ac8:	0083100b 	movn	v0,a0,v1
  400acc:	90c50000 	lbu	a1,0(a2)
  400ad0:	00028103 	sra	s0,v0,0x4
  400ad4:	12000016 	beqz	s0,400b30 <tty_printf+0x310>
  400ad8:	a1250000 	sb	a1,0(t1)
  400adc:	25080001 	addiu	t0,t0,1
  400ae0:	24020008 	li	v0,8
  400ae4:	11020019 	beq	t0,v0,400b4c <tty_printf+0x32c>
  400ae8:	24e7ffff 	addiu	a3,a3,-1
  400aec:	3c028000 	lui	v0,0x8000
  400af0:	3442000f 	ori	v0,v0,0xf
  400af4:	02021824 	and	v1,s0,v0
  400af8:	0461ffef 	bgez	v1,400ab8 <tty_printf+0x298>
  400afc:	02874821 	addu	t1,s4,a3
  400b00:	2463ffff 	addiu	v1,v1,-1
  400b04:	006a1825 	or	v1,v1,t2
  400b08:	24630001 	addiu	v1,v1,1
  400b0c:	02001021 	move	v0,s0
  400b10:	02a33021 	addu	a2,s5,v1
  400b14:	2604000f 	addiu	a0,s0,15
  400b18:	2a030000 	slti	v1,s0,0
  400b1c:	0083100b 	movn	v0,a0,v1
  400b20:	90c50000 	lbu	a1,0(a2)
  400b24:	00028103 	sra	s0,v0,0x4
  400b28:	1600ffec 	bnez	s0,400adc <tty_printf+0x2bc>
  400b2c:	a1250000 	sb	a1,0(t1)
  400b30:	02878021 	addu	s0,s4,a3
  400b34:	08100286 	j	400a18 <tty_printf+0x1f8>
  400b38:	25110001 	addiu	s1,t0,1
  400b3c:	a3b00004 	sb	s0,4(sp)
  400b40:	24110001 	li	s1,1
  400b44:	08100286 	j	400a18 <tty_printf+0x1f8>
  400b48:	02808021 	move	s0,s4
  400b4c:	2407ffff 	li	a3,-1
  400b50:	02878021 	addu	s0,s4,a3
  400b54:	08100286 	j	400a18 <tty_printf+0x1f8>
  400b58:	25110001 	addiu	s1,t0,1
  400b5c:	08100286 	j	400a18 <tty_printf+0x1f8>
  400b60:	00008821 	move	s1,zero

00400b64 <main>:
  400b64:	3c031000 	lui	v1,0x1000
  400b68:	246200b0 	addiu	v0,v1,176
  400b6c:	90480010 	lbu	t0,16(v0)
  400b70:	8c6500b0 	lw	a1,176(v1)
  400b74:	8c460004 	lw	a2,4(v0)
  400b78:	8c430008 	lw	v1,8(v0)
  400b7c:	8c47000c 	lw	a3,12(v0)
  400b80:	27bdffc8 	addiu	sp,sp,-56
  400b84:	24040003 	li	a0,3
  400b88:	afbf0034 	sw	ra,52(sp)
  400b8c:	afa60018 	sw	a2,24(sp)
  400b90:	afa3001c 	sw	v1,28(sp)
  400b94:	afa70020 	sw	a3,32(sp)
  400b98:	a3a80024 	sb	t0,36(sp)
  400b9c:	afb10030 	sw	s1,48(sp)
  400ba0:	afb0002c 	sw	s0,44(sp)
  400ba4:	0c10017b 	jal	4005ec <icu_set_mask>
  400ba8:	afa50014 	sw	a1,20(sp)
  400bac:	3c050007 	lui	a1,0x7
  400bb0:	34a5a120 	ori	a1,a1,0xa120
  400bb4:	0c100126 	jal	400498 <timer_set_period>
  400bb8:	00002021 	move	a0,zero
  400bbc:	00002021 	move	a0,zero
  400bc0:	0c10011c 	jal	400470 <timer_set_mode>
  400bc4:	24050003 	li	a1,3
  400bc8:	27b10014 	addiu	s1,sp,20
  400bcc:	27b00010 	addiu	s0,sp,16
  400bd0:	0c100208 	jal	400820 <tty_printf>
  400bd4:	02202021 	move	a0,s1
  400bd8:	0c100017 	jal	40005c <user_getc>
  400bdc:	02002021 	move	a0,s0
  400be0:	081002f4 	j	400bd0 <main+0x6c>
  400be4:	00000000 	nop

Disassembly of section seg_reset:

bfc00000 <reset>:
bfc00000:	3c1d2000 	lui	sp,0x2000
bfc00004:	27bd0000 	addiu	sp,sp,0
bfc00008:	27bd4000 	addiu	sp,sp,16384
bfc0000c:	3c1a8000 	lui	k0,0x8000
bfc00010:	275a02ec 	addiu	k0,k0,748
bfc00014:	3c1b8000 	lui	k1,0x8000
bfc00018:	277b0a8c 	addiu	k1,k1,2700
bfc0001c:	af5b0000 	sw	k1,0(k0)
bfc00020:	3c1b8000 	lui	k1,0x8000
bfc00024:	277b0c54 	addiu	k1,k1,3156
bfc00028:	af5b0004 	sw	k1,4(k0)
bfc0002c:	3c1b8000 	lui	k1,0x8000
bfc00030:	277b0a70 	addiu	k1,k1,2672
bfc00034:	af5b0008 	sw	k1,8(k0)
bfc00038:	341aff13 	li	k0,0xff13
bfc0003c:	409a6000 	mtc0	k0,c0_status
bfc00040:	3c1a0040 	lui	k0,0x40
bfc00044:	275a0b64 	addiu	k0,k0,2916
bfc00048:	409a7000 	mtc0	k0,c0_epc
bfc0004c:	42000018 	eret

Disassembly of section seg_data:

10000000 <HexaTab.996-0x58>:
10000000:	00400b3c 	0x400b3c
10000004:	00400980 	0x400980
10000008:	00400a44 	0x400a44
1000000c:	00400a44 	0x400a44
10000010:	00400a44 	0x400a44
10000014:	00400a44 	0x400a44
10000018:	00400a44 	0x400a44
1000001c:	00400a44 	0x400a44
10000020:	00400a44 	0x400a44
10000024:	00400a44 	0x400a44
10000028:	00400a44 	0x400a44
1000002c:	00400a44 	0x400a44
10000030:	00400a44 	0x400a44
10000034:	00400a44 	0x400a44
10000038:	00400a44 	0x400a44
1000003c:	00400a44 	0x400a44
10000040:	00400a50 	0x400a50
10000044:	00400a44 	0x400a44
10000048:	004009b8 	0x4009b8
1000004c:	00400a44 	0x400a44
10000050:	00400a44 	0x400a44
10000054:	00400a7c 	0x400a7c

10000058 <HexaTab.996>:
10000058:	33323130 	andi	s2,t9,0x3130
1000005c:	37363534 	ori	s6,t9,0x3534
10000060:	42413938 	c0	0x413938
10000064:	46454443 	c1	0x454443
10000068:	00000000 	nop

1000006c <$LC0>:
1000006c:	21210a0a 	addi	at,t1,2570
10000070:	45202021 	0x45202021
10000074:	20746978 	addi	s4,v1,27000
10000078:	6f725020 	0x6f725020
1000007c:	73736563 	0x73736563
10000080:	2020726f 	addi	zero,at,29295
10000084:	20202020 	addi	zero,at,8224
10000088:	20202020 	addi	zero,at,8224
1000008c:	0a212121 	j	18848484 <TTY_PUT_DATA+0x8848374>
10000090:	00000000 	nop

10000094 <$LC0>:
10000094:	64636261 	0x64636261
10000098:	68676665 	0x68676665
1000009c:	6c6c6a69 	0x6c6c6a69
100000a0:	706f6e6d 	0x706f6e6d
100000a4:	00737271 	tgeu	v1,s3,0x1c9

100000a8 <$LC1>:
100000a8:	0000002d 	0x2d

100000ac <$LC2>:
100000ac:	00007830 	tge	zero,zero,0x1e0

100000b0 <$LC0>:
100000b0:	6548200a 	0x6548200a
100000b4:	206f6c6c 	addi	t7,v1,27756
100000b8:	6c726f57 	0x6c726f57
100000bc:	0a202164 	j	18808590 <TTY_PUT_DATA+0x8808480>
100000c0:	00000000 	nop

100000c4 <DMA_SYNC>:
100000c4:	00000000 	nop

100000c8 <TTY_GET_SYNC>:
	...

100000e8 <TTY_GET_DATA>:
	...

100000f0 <TTY_PUT_SYNC>:
	...

10000110 <TTY_PUT_DATA>:
	...

Disassembly of section .reginfo:

00000000 <.reginfo>:
   0:	3c000000 	lui	zero,0x0
	...

Disassembly of section .pdr:

00000000 <.pdr>:
   0:	bfc00000 	cache	0x0,0(s8)
	...
  20:	80000180 	lb	zero,384(zero)
	...
  40:	80000650 	lb	zero,1616(zero)
	...
  58:	0000001d 	0x1d
  5c:	0000001f 	0x1f
  60:	8000065c 	lb	zero,1628(zero)
	...
  78:	0000001d 	0x1d
  7c:	0000001f 	0x1f
  80:	80000668 	lb	zero,1640(zero)
	...
  98:	0000001d 	0x1d
  9c:	0000001f 	0x1f
  a0:	800006b0 	lb	zero,1712(zero)
	...
  b8:	0000001d 	0x1d
  bc:	0000001f 	0x1f
  c0:	800006fc 	lb	zero,1788(zero)
	...
  d8:	0000001d 	0x1d
  dc:	0000001f 	0x1f
  e0:	80000750 	lb	zero,1872(zero)
	...
  f8:	0000001d 	0x1d
  fc:	0000001f 	0x1f
 100:	800007f4 	lb	zero,2036(zero)
	...
 114:	00000028 	0x28
 118:	0000001d 	0x1d
 11c:	0000001f 	0x1f
 120:	800008bc 	lb	zero,2236(zero)
	...
 138:	0000001d 	0x1d
 13c:	0000001f 	0x1f
 140:	800008e8 	lb	zero,2280(zero)
	...
 158:	0000001d 	0x1d
 15c:	0000001f 	0x1f
 160:	80000918 	lb	zero,2328(zero)
	...
 178:	0000001d 	0x1d
 17c:	0000001f 	0x1f
 180:	80000944 	lb	zero,2372(zero)
	...
 198:	0000001d 	0x1d
 19c:	0000001f 	0x1f
 1a0:	80000974 	lb	zero,2420(zero)
	...
 1b8:	0000001d 	0x1d
 1bc:	0000001f 	0x1f
 1c0:	800009a0 	lb	zero,2464(zero)
	...
 1d8:	0000001d 	0x1d
 1dc:	0000001f 	0x1f
 1e0:	800009d0 	lb	zero,2512(zero)
	...
 1f8:	0000001d 	0x1d
 1fc:	0000001f 	0x1f
 200:	80000a04 	lb	zero,2564(zero)
	...
 218:	0000001d 	0x1d
 21c:	0000001f 	0x1f
 220:	00400000 	0x400000
 224:	80010000 	lb	at,0(zero)
 228:	fffffffc 	sdc3	$31,-4(ra)
	...
 234:	00000018 	mult	zero,zero
 238:	0000001d 	0x1d
 23c:	0000001f 	0x1f
 240:	0040005c 	0x40005c
 244:	80010000 	lb	at,0(zero)
 248:	fffffffc 	sdc3	$31,-4(ra)
	...
 254:	00000018 	mult	zero,zero
 258:	0000001d 	0x1d
 25c:	0000001f 	0x1f
 260:	004000b4 	teq	v0,zero,0x2
 264:	80000000 	lb	zero,0(zero)
 268:	fffffffc 	sdc3	$31,-4(ra)
	...
 274:	00000008 	jr	zero
 278:	0000001d 	0x1d
 27c:	0000001f 	0x1f
 280:	004000e0 	0x4000e0
 284:	80000000 	lb	zero,0(zero)
 288:	fffffffc 	sdc3	$31,-4(ra)
	...
 294:	00000008 	jr	zero
 298:	0000001d 	0x1d
 29c:	0000001f 	0x1f
 2a0:	0040010c 	syscall	0x10004
 2a4:	80000000 	lb	zero,0(zero)
 2a8:	fffffffc 	sdc3	$31,-4(ra)
	...
 2b4:	00000008 	jr	zero
 2b8:	0000001d 	0x1d
 2bc:	0000001f 	0x1f
 2c0:	00400138 	0x400138
 2c4:	80000000 	lb	zero,0(zero)
 2c8:	fffffffc 	sdc3	$31,-4(ra)
	...
 2d4:	00000008 	jr	zero
 2d8:	0000001d 	0x1d
 2dc:	0000001f 	0x1f
 2e0:	00400170 	tge	v0,zero,0x5
 2e4:	80010000 	lb	at,0(zero)
 2e8:	fffffffc 	sdc3	$31,-4(ra)
	...
 2f4:	00000008 	jr	zero
 2f8:	0000001d 	0x1d
 2fc:	0000001f 	0x1f
 300:	004001e4 	0x4001e4
 304:	80000000 	lb	zero,0(zero)
 308:	fffffffc 	sdc3	$31,-4(ra)
	...
 314:	00000008 	jr	zero
 318:	0000001d 	0x1d
 31c:	0000001f 	0x1f
 320:	00400228 	0x400228
 324:	80010000 	lb	at,0(zero)
 328:	fffffffc 	sdc3	$31,-4(ra)
	...
 334:	00000018 	mult	zero,zero
 338:	0000001d 	0x1d
 33c:	0000001f 	0x1f
 340:	004002c4 	0x4002c4
 344:	80030000 	lb	v1,0(zero)
 348:	fffffffc 	sdc3	$31,-4(ra)
	...
 354:	00000010 	mfhi	zero
 358:	0000001d 	0x1d
 35c:	0000001f 	0x1f
 360:	00400344 	0x400344
 364:	80010000 	lb	at,0(zero)
 368:	fffffffc 	sdc3	$31,-4(ra)
	...
 374:	00000008 	jr	zero
 378:	0000001d 	0x1d
 37c:	0000001f 	0x1f
 380:	00400390 	0x400390
 384:	80010000 	lb	at,0(zero)
 388:	fffffffc 	sdc3	$31,-4(ra)
	...
 394:	00000020 	add	zero,zero,zero
 398:	0000001d 	0x1d
 39c:	0000001f 	0x1f
 3a0:	00400470 	tge	v0,zero,0x11
 3a4:	80000000 	lb	zero,0(zero)
 3a8:	fffffffc 	sdc3	$31,-4(ra)
	...
 3b4:	00000008 	jr	zero
 3b8:	0000001d 	0x1d
 3bc:	0000001f 	0x1f
 3c0:	00400498 	0x400498
 3c4:	80000000 	lb	zero,0(zero)
 3c8:	fffffffc 	sdc3	$31,-4(ra)
	...
 3d4:	00000008 	jr	zero
 3d8:	0000001d 	0x1d
 3dc:	0000001f 	0x1f
 3e0:	004004c0 	0x4004c0
 3e4:	80000000 	lb	zero,0(zero)
 3e8:	fffffffc 	sdc3	$31,-4(ra)
	...
 3f4:	00000008 	jr	zero
 3f8:	0000001d 	0x1d
 3fc:	0000001f 	0x1f
 400:	004004e8 	0x4004e8
 404:	80000000 	lb	zero,0(zero)
 408:	fffffffc 	sdc3	$31,-4(ra)
	...
 414:	00000008 	jr	zero
 418:	0000001d 	0x1d
 41c:	0000001f 	0x1f
 420:	00400510 	0x400510
 424:	80000000 	lb	zero,0(zero)
 428:	fffffffc 	sdc3	$31,-4(ra)
	...
 434:	00000008 	jr	zero
 438:	0000001d 	0x1d
 43c:	0000001f 	0x1f
 440:	0040053c 	0x40053c
 444:	80000000 	lb	zero,0(zero)
 448:	fffffffc 	sdc3	$31,-4(ra)
	...
 454:	00000008 	jr	zero
 458:	0000001d 	0x1d
 45c:	0000001f 	0x1f
 460:	00400568 	0x400568
 464:	80000000 	lb	zero,0(zero)
 468:	fffffffc 	sdc3	$31,-4(ra)
	...
 474:	00000008 	jr	zero
 478:	0000001d 	0x1d
 47c:	0000001f 	0x1f
 480:	00400594 	0x400594
 484:	80000000 	lb	zero,0(zero)
 488:	fffffffc 	sdc3	$31,-4(ra)
	...
 494:	00000008 	jr	zero
 498:	0000001d 	0x1d
 49c:	0000001f 	0x1f
 4a0:	004005c0 	0x4005c0
 4a4:	80000000 	lb	zero,0(zero)
 4a8:	fffffffc 	sdc3	$31,-4(ra)
	...
 4b4:	00000008 	jr	zero
 4b8:	0000001d 	0x1d
 4bc:	0000001f 	0x1f
 4c0:	004005ec 	0x4005ec
 4c4:	80000000 	lb	zero,0(zero)
 4c8:	fffffffc 	sdc3	$31,-4(ra)
	...
 4d4:	00000008 	jr	zero
 4d8:	0000001d 	0x1d
 4dc:	0000001f 	0x1f
 4e0:	00400618 	0x400618
 4e4:	80000000 	lb	zero,0(zero)
 4e8:	fffffffc 	sdc3	$31,-4(ra)
	...
 4f4:	00000008 	jr	zero
 4f8:	0000001d 	0x1d
 4fc:	0000001f 	0x1f
 500:	00400644 	0x400644
 504:	80000000 	lb	zero,0(zero)
 508:	fffffffc 	sdc3	$31,-4(ra)
	...
 514:	00000008 	jr	zero
 518:	0000001d 	0x1d
 51c:	0000001f 	0x1f
 520:	00400670 	tge	v0,zero,0x19
 524:	80000000 	lb	zero,0(zero)
 528:	fffffffc 	sdc3	$31,-4(ra)
	...
 534:	00000008 	jr	zero
 538:	0000001d 	0x1d
 53c:	0000001f 	0x1f
 540:	0040069c 	0x40069c
 544:	80000000 	lb	zero,0(zero)
 548:	fffffffc 	sdc3	$31,-4(ra)
	...
 554:	00000008 	jr	zero
 558:	0000001d 	0x1d
 55c:	0000001f 	0x1f
 560:	004006c8 	0x4006c8
 564:	80000000 	lb	zero,0(zero)
 568:	fffffffc 	sdc3	$31,-4(ra)
	...
 574:	00000008 	jr	zero
 578:	0000001d 	0x1d
 57c:	0000001f 	0x1f
 580:	004006f4 	teq	v0,zero,0x1b
 584:	80000000 	lb	zero,0(zero)
 588:	fffffffc 	sdc3	$31,-4(ra)
	...
 594:	00000008 	jr	zero
 598:	0000001d 	0x1d
 59c:	0000001f 	0x1f
 5a0:	00400720 	0x400720
 5a4:	80000000 	lb	zero,0(zero)
 5a8:	fffffffc 	sdc3	$31,-4(ra)
	...
 5b4:	00000008 	jr	zero
 5b8:	0000001d 	0x1d
 5bc:	0000001f 	0x1f
 5c0:	0040074c 	syscall	0x1001d
 5c4:	80000000 	lb	zero,0(zero)
 5c8:	fffffffc 	sdc3	$31,-4(ra)
	...
 5d4:	00000008 	jr	zero
 5d8:	0000001d 	0x1d
 5dc:	0000001f 	0x1f
 5e0:	00400778 	0x400778
 5e4:	80000000 	lb	zero,0(zero)
 5e8:	fffffffc 	sdc3	$31,-4(ra)
	...
 5f4:	00000008 	jr	zero
 5f8:	0000001d 	0x1d
 5fc:	0000001f 	0x1f
 600:	004007a0 	0x4007a0
 604:	80000000 	lb	zero,0(zero)
 608:	fffffffc 	sdc3	$31,-4(ra)
	...
 614:	00000008 	jr	zero
 618:	0000001d 	0x1d
 61c:	0000001f 	0x1f
 620:	004007c8 	0x4007c8
 624:	80000000 	lb	zero,0(zero)
 628:	fffffffc 	sdc3	$31,-4(ra)
	...
 634:	00000008 	jr	zero
 638:	0000001d 	0x1d
 63c:	0000001f 	0x1f
 640:	00400820 	add	at,v0,zero
 644:	c0ff0000 	ll	ra,0(a3)
 648:	fffffffc 	sdc3	$31,-4(ra)
	...
 654:	00000040 	ssnop
 658:	0000001d 	0x1d
 65c:	0000001f 	0x1f
 660:	00400b64 	0x400b64
 664:	80030000 	lb	v1,0(zero)
 668:	fffffffc 	sdc3	$31,-4(ra)
	...
 674:	00000038 	0x38
 678:	0000001d 	0x1d
 67c:	0000001f 	0x1f

Disassembly of section .debug_abbrev:

00000000 <.debug_abbrev>:
   0:	25011101 	addiu	at,t0,4353
   4:	030b130e 	0x30b130e
   8:	110e1b0e 	beq	t0,t6,6c44 <max_locks_number+0x6c24>
   c:	55015201 	bnel	t0,at,14814 <max_locks_number+0x147f4>
  10:	00061006 	srlv	v0,a2,zero
  14:	01040200 	0x1040200
  18:	0b0b0e03 	j	c2c380c <main+0xbec2ca8>
  1c:	0b3b0b3a 	j	cec2ce8 <main+0xcac2184>
  20:	00001301 	0x1301
  24:	03002803 	0x3002803
  28:	000d1c0e 	0xd1c0e
  2c:	012e0400 	0x12e0400
  30:	0e030c3f 	jal	80c30fc <main+0x7cc2598>
  34:	0b3b0b3a 	j	cec2ce8 <main+0xcac2184>
  38:	0b201349 	j	c804d24 <main+0xc4041c0>
  3c:	00001301 	0x1301
  40:	03003405 	0x3003405
  44:	3b0b3a08 	xori	t3,t8,0x3a08
  48:	0013490b 	0x13490b
  4c:	00240600 	0x240600
  50:	0b3e0b0b 	j	cf82c2c <main+0xcb820c8>
  54:	00000803 	sra	at,zero,0x0
  58:	3f012e07 	0x3f012e07
  5c:	3a0e030c 	xori	t6,s0,0x30c
  60:	270b3b0b 	addiu	t3,t8,15115
  64:	2013490c 	addi	s3,zero,18700
  68:	0013010b 	0x13010b
  6c:	00050800 	sll	at,a1,0x0
  70:	0b3a0e03 	j	ce8380c <main+0xca82ca8>
  74:	13490b3b 	beq	k0,t1,2d64 <max_locks_number+0x2d44>
  78:	34090000 	li	t1,0x0
  7c:	3a0e0300 	xori	t6,s0,0x300
  80:	490b3b0b 	bc2tl	$cc2,ecb0 <max_locks_number+0xec90>
  84:	0a000013 	j	800004c <main+0x7bff4e8>
  88:	0b0b000f 	j	c2c003c <main+0xbebf4d8>
  8c:	00001349 	0x1349
  90:	0b00240b 	j	c00902c <main+0xbc084c8>
  94:	030b3e0b 	0x30b3e0b
  98:	0c00000e 	jal	38 <.debug_abbrev+0x38>
  9c:	13490035 	beq	k0,t1,174 <.debug_abbrev+0x174>
  a0:	2e0d0000 	sltiu	t5,s0,0
  a4:	11133101 	beq	t0,s3,c4ac <max_locks_number+0xc48c>
  a8:	81011201 	lb	at,4609(t0)
  ac:	0a400640 	j	9001900 <main+0x8c00d9c>
  b0:	00001301 	0x1301
  b4:	3100340e 	andi	zero,t0,0x340e
  b8:	00060213 	0x60213
  bc:	012e0f00 	0x12e0f00
  c0:	0e030c3f 	jal	80c30fc <main+0x7cc2598>
  c4:	0b3b0b3a 	j	cec2ce8 <main+0xcac2184>
  c8:	13490c27 	beq	k0,t1,3168 <max_locks_number+0x3148>
  cc:	01120111 	0x1120111
  d0:	40064081 	0x40064081
  d4:	0013010a 	0x13010a
  d8:	00051000 	sll	v0,a1,0x0
  dc:	0b3a0e03 	j	ce8380c <main+0xca82ca8>
  e0:	13490b3b 	beq	k0,t1,2dd0 <max_locks_number+0x2db0>
  e4:	00000602 	srl	zero,zero,0x18
  e8:	03000511 	0x3000511
  ec:	3b0b3a0e 	xori	t3,t8,0x3a0e
  f0:	0213490b 	0x213490b
  f4:	1200000a 	beqz	s0,120 <.debug_abbrev+0x120>
  f8:	13310005 	beq	t9,s1,110 <.debug_abbrev+0x110>
  fc:	00000602 	srl	zero,zero,0x18
 100:	31000513 	andi	zero,t0,0x513
 104:	000a0213 	0xa0213
 108:	00341400 	0x341400
 10c:	00001331 	tgeu	zero,zero,0x4c
 110:	03003415 	0x3003415
 114:	3b0b3a0e 	xori	t3,t8,0x3a0e
 118:	0213490b 	0x213490b
 11c:	16000006 	bnez	s0,138 <.debug_abbrev+0x138>
 120:	08030034 	j	c00d0 <max_locks_number+0xc00b0>
 124:	0b3b0b3a 	j	cec2ce8 <main+0xcac2184>
 128:	06021349 	bltzl	s0,4e50 <max_locks_number+0x4e30>
 12c:	2e170000 	sltiu	s7,s0,0
 130:	030c3f01 	0x30c3f01
 134:	3b0b3a0e 	xori	t3,t8,0x3a0e
 138:	1113490b 	beq	t0,s3,12568 <max_locks_number+0x12548>
 13c:	81011201 	lb	at,4609(t0)
 140:	06400640 	bltz	s2,1a44 <max_locks_number+0x1a24>
 144:	00001301 	0x1301
 148:	03003418 	0x3003418
 14c:	3b0b3a08 	xori	t3,t8,0x3a08
 150:	0213490b 	0x213490b
 154:	1900000a 	blez	t0,180 <.debug_abbrev+0x180>
 158:	1331011d 	beq	t9,s1,5d0 <.debug_abbrev+0x5d0>
 15c:	0b580655 	j	d601954 <main+0xd200df0>
 160:	13010b59 	beq	t8,at,2ec8 <max_locks_number+0x2ea8>
 164:	0b1a0000 	j	c680000 <main+0xc27f49c>
 168:	00065501 	0x65501
 16c:	011d1b00 	0x11d1b00
 170:	06551331 	0x6551331
 174:	0b590b58 	j	d642d60 <main+0xd2421fc>
 178:	051c0000 	0x51c0000
 17c:	00133100 	sll	a2,s3,0x4
 180:	00341d00 	0x341d00
 184:	0a021331 	j	8084cc4 <main+0x7c84160>
 188:	011e0000 	0x11e0000
 18c:	01134901 	0x1134901
 190:	1f000013 	bgtz	t8,1e0 <.debug_abbrev+0x1e0>
 194:	13490021 	beq	k0,t1,21c <.debug_abbrev+0x21c>
 198:	00000b2f 	0xb2f
 19c:	0b002420 	j	c009080 <main+0xbc0851c>
 1a0:	000b3e0b 	0xb3e0b
 1a4:	012e2100 	0x12e2100
 1a8:	0e030c3f 	jal	80c30fc <main+0x7cc2598>
 1ac:	053b0b3a 	0x53b0b3a
 1b0:	13490c27 	beq	k0,t1,3250 <max_locks_number+0x3230>
 1b4:	01120111 	0x1120111
 1b8:	40064081 	0x40064081
 1bc:	0013010a 	0x13010a
 1c0:	00052200 	sll	a0,a1,0x8
 1c4:	0b3a0e03 	j	ce8380c <main+0xca82ca8>
 1c8:	1349053b 	beq	k0,t1,16b8 <max_locks_number+0x1698>
 1cc:	00000a02 	srl	at,zero,0x8
 1d0:	03003423 	0x3003423
 1d4:	3b0b3a0e 	xori	t3,t8,0x3a0e
 1d8:	00134905 	0x134905
 1dc:	00342400 	0x342400
 1e0:	0b3a0803 	j	ce8200c <main+0xca814a8>
 1e4:	1349053b 	beq	k0,t1,16d4 <max_locks_number+0x16b4>
 1e8:	34250000 	ori	a1,at,0x0
 1ec:	3a0e0300 	xori	t6,s0,0x300
 1f0:	49053b0b 	bc2t	$cc1,ee20 <max_locks_number+0xee00>
 1f4:	00060213 	0x60213
 1f8:	00342600 	0x342600
 1fc:	0b3a0803 	j	ce8200c <main+0xca814a8>
 200:	1349053b 	beq	k0,t1,16f0 <max_locks_number+0x16d0>
 204:	00000602 	srl	zero,zero,0x18
 208:	31011d27 	andi	at,t0,0x1d27
 20c:	12011113 	beq	s0,at,465c <max_locks_number+0x463c>
 210:	590b5801 	0x590b5801
 214:	28000005 	slti	zero,zero,5
 218:	0111010b 	0x111010b
 21c:	00000112 	0x112
 220:	03001329 	0x3001329
 224:	000c3c0e 	0xc3c0e
 228:	00342a00 	0x342a00
 22c:	0b3a0e03 	j	ce8380c <main+0xca82ca8>
 230:	13490b3b 	beq	k0,t1,2f20 <max_locks_number+0x2f00>
 234:	0c3c0c3f 	jal	f030fc <main+0xb02598>
 238:	01000000 	0x1000000
 23c:	0e250111 	jal	8940444 <main+0x853f8e0>
 240:	0e030b13 	jal	80c2c4c <main+0x7cc20e8>
 244:	01110e1b 	0x1110e1b
 248:	06100112 	bltzal	s0,694 <max_locks_number+0x674>
 24c:	2e020000 	sltiu	v0,s0,0
 250:	030c3f01 	0x30c3f01
 254:	3b0b3a0e 	xori	t3,t8,0x3a0e
 258:	110c270b 	beq	t0,t4,9e88 <max_locks_number+0x9e68>
 25c:	81011201 	lb	at,4609(t0)
 260:	06400640 	bltz	s2,1b64 <max_locks_number+0x1b44>
 264:	00001301 	0x1301
 268:	03000503 	0x3000503
 26c:	3b0b3a08 	xori	t3,t8,0x3a08
 270:	0213490b 	0x213490b
 274:	04000006 	bltz	zero,290 <.debug_abbrev+0x290>
 278:	0e030034 	jal	80c00d0 <main+0x7cbf56c>
 27c:	0b3b0b3a 	j	cec2ce8 <main+0xcac2184>
 280:	06021349 	bltzl	s0,4fa8 <max_locks_number+0x4f88>
 284:	24050000 	li	a1,0
 288:	3e0b0b00 	0x3e0b0b00
 28c:	000e030b 	0xe030b
 290:	00240600 	0x240600
 294:	0b3e0b0b 	j	cf82c2c <main+0xcb820c8>
 298:	00000803 	sra	at,zero,0x0
 29c:	0b000f07 	j	c003c1c <main+0xbc030b8>
 2a0:	0013490b 	0x13490b
 2a4:	00340800 	0x340800
 2a8:	0b3a0e03 	j	ce8380c <main+0xca82ca8>
 2ac:	13490b3b 	beq	k0,t1,2f9c <max_locks_number+0x2f7c>
 2b0:	0a020c3f 	j	80830fc <main+0x7c82598>
 2b4:	35090000 	ori	t1,t0,0x0
 2b8:	00134900 	sll	t1,s3,0x4
 2bc:	01010a00 	0x1010a00
 2c0:	13011349 	beq	t8,at,4fe8 <max_locks_number+0x4fc8>
 2c4:	210b0000 	addi	t3,t0,0
 2c8:	2f134900 	sltiu	s3,t8,18688
 2cc:	0c00000b 	jal	2c <.debug_abbrev+0x2c>
 2d0:	0b0b0024 	j	c2c0090 <main+0xbebf52c>
 2d4:	00000b3e 	0xb3e
 2d8:	01110100 	0x1110100
 2dc:	0b130e25 	j	c4c3894 <main+0xc0c2d30>
 2e0:	0e1b0e03 	jal	86c380c <main+0x82c2ca8>
 2e4:	01120111 	0x1120111
 2e8:	00000610 	0x610
 2ec:	03001602 	0x3001602
 2f0:	3b0b3a0e 	xori	t3,t8,0x3a0e
 2f4:	0013490b 	0x13490b
 2f8:	000f0300 	sll	zero,t7,0xc
 2fc:	0e030b0b 	jal	80c2c2c <main+0x7cc20c8>
 300:	04040000 	0x4040000
 304:	0b0e0301 	j	c380c04 <main+0xbf800a0>
 308:	3b0b3a0b 	xori	t3,t8,0x3a0b
 30c:	0013010b 	0x13010b
 310:	00280500 	0x280500
 314:	0d1c0e03 	jal	470380c <main+0x4302ca8>
 318:	2e060000 	sltiu	a2,s0,0
 31c:	030c3f01 	0x30c3f01
 320:	3b0b3a0e 	xori	t3,t8,0x3a0e
 324:	490c270b 	bc2f	$cc3,9f54 <max_locks_number+0x9f34>
 328:	010b2013 	0x10b2013
 32c:	07000013 	bltz	t8,37c <.debug_abbrev+0x37c>
 330:	0e030005 	jal	80c0014 <main+0x7cbf4b0>
 334:	0b3b0b3a 	j	cec2ce8 <main+0xcac2184>
 338:	00001349 	0x1349
 33c:	03003408 	0x3003408
 340:	3b0b3a0e 	xori	t3,t8,0x3a0e
 344:	0013490b 	0x13490b
 348:	00240900 	0x240900
 34c:	0b3e0b0b 	j	cf82c2c <main+0xcb820c8>
 350:	00000803 	sra	at,zero,0x0
 354:	3f012e0a 	0x3f012e0a
 358:	3a0e030c 	xori	t6,s0,0x30c
 35c:	490b3b0b 	bc2tl	$cc2,ef8c <max_locks_number+0xef6c>
 360:	010b2013 	0x10b2013
 364:	0b000013 	j	c00004c <main+0xbbff4e8>
 368:	0000010b 	0x10b
 36c:	3100340c 	andi	zero,t0,0x340c
 370:	0d000013 	jal	400004c <main+0x3bff4e8>
 374:	1331012e 	beq	t9,s1,830 <max_locks_number+0x810>
 378:	01120111 	0x1120111
 37c:	40064081 	0x40064081
 380:	00130106 	0x130106
 384:	00050e00 	sll	at,a1,0x18
 388:	06021331 	bltzl	s0,5050 <max_locks_number+0x5030>
 38c:	050f0000 	0x50f0000
 390:	02133100 	0x2133100
 394:	1000000a 	b	3c0 <.debug_abbrev+0x3c0>
 398:	13310034 	beq	t9,s1,46c <.debug_abbrev+0x46c>
 39c:	00000602 	srl	zero,zero,0x18
 3a0:	31003411 	andi	zero,t0,0x3411
 3a4:	000a0213 	0xa0213
 3a8:	011d1200 	0x11d1200
 3ac:	01111331 	tgeu	t0,s1,0x4c
 3b0:	0b580112 	j	d600448 <main+0xd1ff8e4>
 3b4:	00000b59 	0xb59
 3b8:	31000513 	andi	zero,t0,0x513
 3bc:	14000013 	bnez	zero,40c <.debug_abbrev+0x40c>
 3c0:	0111010b 	0x111010b
 3c4:	00000112 	0x112
 3c8:	3f012e15 	0x3f012e15
 3cc:	3a0e030c 	xori	t6,s0,0x30c
 3d0:	490b3b0b 	bc2tl	$cc2,f000 <max_locks_number+0xefe0>
 3d4:	12011113 	beq	s0,at,4824 <max_locks_number+0x4804>
 3d8:	06408101 	bltz	s2,fffe07e0 <seg_icu_base+0xffe07e0>
 3dc:	13010640 	beq	t8,at,1ce0 <max_locks_number+0x1cc0>
 3e0:	34160000 	li	s6,0x0
 3e4:	3a0e0300 	xori	t6,s0,0x300
 3e8:	490b3b0b 	bc2tl	$cc2,f018 <max_locks_number+0xeff8>
 3ec:	00060213 	0x60213
 3f0:	011d1700 	0x11d1700
 3f4:	01111331 	tgeu	t0,s1,0x4c
 3f8:	0b580112 	j	d600448 <main+0xd1ff8e4>
 3fc:	13010b59 	beq	t8,at,3164 <max_locks_number+0x3144>
 400:	2e180000 	sltiu	t8,s0,0
 404:	030c3f01 	0x30c3f01
 408:	3b0b3a0e 	xori	t3,t8,0x3a0e
 40c:	490c270b 	bc2f	$cc3,a03c <max_locks_number+0xa01c>
 410:	12011113 	beq	s0,at,4860 <max_locks_number+0x4840>
 414:	06408101 	bltz	s2,fffe081c <seg_icu_base+0xffe081c>
 418:	13010640 	beq	t8,at,1d1c <max_locks_number+0x1cfc>
 41c:	05190000 	0x5190000
 420:	3a0e0300 	xori	t6,s0,0x300
 424:	490b3b0b 	bc2tl	$cc2,f054 <max_locks_number+0xf034>
 428:	00060213 	0x60213
 42c:	00341a00 	0x341a00
 430:	0b3a0e03 	j	ce8380c <main+0xca82ca8>
 434:	13490b3b 	beq	k0,t1,3124 <max_locks_number+0x3104>
 438:	00000a02 	srl	at,zero,0x8
 43c:	0b000f1b 	j	c003c6c <main+0xbc03108>
 440:	0013490b 	0x13490b
 444:	00241c00 	0x241c00
 448:	0b3e0b0b 	j	cf82c2c <main+0xcb820c8>
 44c:	00000e03 	sra	at,zero,0x18
 450:	0300051d 	0x300051d
 454:	3b0b3a08 	xori	t3,t8,0x3a08
 458:	0213490b 	0x213490b
 45c:	1e000006 	bgtz	s0,478 <.debug_abbrev+0x478>
 460:	08030034 	j	c00d0 <max_locks_number+0xc00b0>
 464:	0b3b0b3a 	j	cec2ce8 <main+0xcac2184>
 468:	0a021349 	j	8084d24 <main+0x7c841c0>
 46c:	341f0000 	li	ra,0x0
 470:	3a080300 	xori	t0,s0,0x300
 474:	490b3b0b 	bc2tl	$cc2,f0a4 <max_locks_number+0xf084>
 478:	20000013 	addi	zero,zero,19
 47c:	1331011d 	beq	t9,s1,8f4 <max_locks_number+0x8d4>
 480:	0b580655 	j	d601954 <main+0xd200df0>
 484:	13010b59 	beq	t8,at,31ec <max_locks_number+0x31cc>
 488:	1d210000 	0x1d210000
 48c:	55133101 	bnel	t0,s3,c894 <max_locks_number+0xc874>
 490:	590b5806 	0x590b5806
 494:	2200000b 	addi	zero,s0,11
 498:	0655010b 	0x655010b
 49c:	01230000 	0x1230000
 4a0:	01134901 	0x1134901
 4a4:	24000013 	li	zero,19
 4a8:	13490021 	beq	k0,t1,530 <.debug_abbrev+0x530>
 4ac:	00000b2f 	0xb2f
 4b0:	0b002425 	j	c009094 <main+0xbc08530>
 4b4:	000b3e0b 	0xb3e0b
 4b8:	00342600 	0x342600
 4bc:	0b3a0803 	j	ce8200c <main+0xca814a8>
 4c0:	13490b3b 	beq	k0,t1,31b0 <max_locks_number+0x3190>
 4c4:	00000602 	srl	zero,zero,0x18
 4c8:	3f012e27 	0x3f012e27
 4cc:	3a0e030c 	xori	t6,s0,0x30c
 4d0:	27053b0b 	addiu	a1,t8,15115
 4d4:	1113490c 	beq	t0,s3,12908 <max_locks_number+0x128e8>
 4d8:	81011201 	lb	at,4609(t0)
 4dc:	06400640 	bltz	s2,1de0 <max_locks_number+0x1dc0>
 4e0:	00001301 	0x1301
 4e4:	03000528 	0x3000528
 4e8:	3b0b3a0e 	xori	t3,t8,0x3a0e
 4ec:	02134905 	0x2134905
 4f0:	2900000a 	slti	zero,t0,10
 4f4:	08030005 	j	c0014 <max_locks_number+0xbfff4>
 4f8:	053b0b3a 	0x53b0b3a
 4fc:	06021349 	bltzl	s0,5224 <max_locks_number+0x5204>
 500:	1d2a0000 	0x1d2a0000
 504:	55133101 	bnel	t0,s3,c90c <max_locks_number+0xc8ec>
 508:	590b5806 	0x590b5806
 50c:	2b000005 	slti	zero,t8,5
 510:	1331011d 	beq	t9,s1,988 <max_locks_number+0x968>
 514:	01120111 	0x1120111
 518:	05590b58 	0x5590b58
 51c:	052c0000 	teqi	t1,0
 520:	3a0e0300 	xori	t6,s0,0x300
 524:	49053b0b 	bc2t	$cc1,f154 <max_locks_number+0xf134>
 528:	00060213 	0x60213
 52c:	000f2d00 	sll	a1,t7,0x14
 530:	00000b0b 	0xb0b
 534:	3f012e2e 	0x3f012e2e
 538:	3a0e030c 	xori	t6,s0,0x30c
 53c:	49053b0b 	bc2t	$cc1,f16c <max_locks_number+0xf14c>
 540:	12011113 	beq	s0,at,4990 <max_locks_number+0x4970>
 544:	06408101 	bltz	s2,fffe094c <seg_icu_base+0xffe094c>
 548:	13010640 	beq	t8,at,1e4c <max_locks_number+0x1e2c>
 54c:	342f0000 	ori	t7,at,0x0
 550:	3a080300 	xori	t0,s0,0x300
 554:	49053b0b 	bc2t	$cc1,f184 <max_locks_number+0xf164>
 558:	000a0213 	0xa0213
 55c:	00183000 	sll	a2,t8,0x0
 560:	0a310000 	j	8c40000 <main+0x883f49c>
 564:	3a0e0300 	xori	t6,s0,0x300
 568:	00053b0b 	0x53b0b
 56c:	000a3200 	sll	a2,t2,0x8
 570:	0b3a0e03 	j	ce8380c <main+0xca82ca8>
 574:	0111053b 	0x111053b
 578:	0b330000 	j	ccc0000 <main+0xc8bf49c>
 57c:	01065501 	0x1065501
 580:	34000013 	li	zero,0x13
 584:	08030034 	j	c00d0 <max_locks_number+0xc00b0>
 588:	053b0b3a 	0x53b0b3a
 58c:	06021349 	bltzl	s0,52b4 <max_locks_number+0x5294>
 590:	34350000 	ori	s5,at,0x0
 594:	3a0e0300 	xori	t6,s0,0x300
 598:	49053b0b 	bc2t	$cc1,f1c8 <max_locks_number+0xf1a8>
 59c:	00060213 	0x60213
 5a0:	011d3600 	0x11d3600
 5a4:	06551331 	0x6551331
 5a8:	05590b58 	0x5590b58
 5ac:	00001301 	0x1301
 5b0:	31011d37 	andi	at,t0,0x1d37
 5b4:	12011113 	beq	s0,at,4a04 <max_locks_number+0x49e4>
 5b8:	590b5801 	0x590b5801
 5bc:	00130105 	0x130105
 5c0:	010b3800 	0x10b3800
 5c4:	01120111 	0x1120111
 5c8:	00001301 	0x1301
 5cc:	03003439 	0x3003439
 5d0:	3b0b3a08 	xori	t3,t8,0x3a08
 5d4:	00134905 	0x134905
 5d8:	00343a00 	0x343a00
 5dc:	0b3a0e03 	j	ce8380c <main+0xca82ca8>
 5e0:	1349053b 	beq	k0,t1,1ad0 <max_locks_number+0x1ab0>
 5e4:	00000a02 	srl	at,zero,0x8
 5e8:	4900263b 	bc2f	9ed8 <max_locks_number+0x9eb8>
 5ec:	00000013 	mtlo	zero
 5f0:	25011101 	addiu	at,t0,4353
 5f4:	030b130e 	0x30b130e
 5f8:	110e1b0e 	beq	t0,t6,7234 <max_locks_number+0x7214>
 5fc:	10011201 	beq	zero,at,4e04 <max_locks_number+0x4de4>
 600:	02000006 	srlv	zero,zero,s0
 604:	0c3f012e 	jal	fc04b8 <main+0xbbf954>
 608:	0b3a0e03 	j	ce8380c <main+0xca82ca8>
 60c:	13490b3b 	beq	k0,t1,32fc <max_locks_number+0x32dc>
 610:	01120111 	0x1120111
 614:	40064081 	0x40064081
 618:	00130106 	0x130106
 61c:	00340300 	0x340300
 620:	0b3a0803 	j	ce8200c <main+0xca814a8>
 624:	13490b3b 	beq	k0,t1,3314 <max_locks_number+0x32f4>
 628:	00000a02 	srl	at,zero,0x8
 62c:	0b002404 	j	c009010 <main+0xbc084ac>
 630:	030b3e0b 	0x30b3e0b
 634:	05000008 	bltz	t0,658 <.debug_abbrev+0x658>
 638:	13490035 	beq	k0,t1,710 <max_locks_number+0x6f0>
 63c:	24060000 	li	a2,0
 640:	3e0b0b00 	0x3e0b0b00
 644:	000e030b 	0xe030b
 648:	01010700 	0x1010700
 64c:	13011349 	beq	t8,at,5374 <max_locks_number+0x5354>
 650:	21080000 	addi	t0,t0,0
 654:	2f134900 	sltiu	s3,t8,18688
 658:	0900000b 	j	400002c <main+0x3bff4c8>
 65c:	0b0b0024 	j	c2c0090 <main+0xbebf52c>
 660:	00000b3e 	0xb3e
	...

Disassembly of section .debug_info:

00000000 <.debug_info>:
       0:	00000694 	0x694
       4:	00000002 	srl	zero,zero,0x0
       8:	01040000 	0x1040000
       c:	0000024b 	0x24b
      10:	00006a01 	0x6a01
      14:	0000e000 	sll	gp,zero,0x0
	...
      20:	00008000 	sll	s0,zero,0x0
      24:	00000000 	nop
      28:	01b60200 	0x1b60200
      2c:	02040000 	0x2040000
      30:	00004e04 	0x4e04
      34:	00550300 	0x550300
      38:	03000000 	0x3000000
      3c:	0000005f 	0x5f
      40:	014e0301 	0x14e0301
      44:	03020000 	0x3020000
      48:	00000187 	0x187
      4c:	d8020004 	ldc2	$2,4(zero)
      50:	04000001 	bltz	zero,58 <.debug_info+0x58>
      54:	00790403 	0x790403
      58:	14030000 	bne	zero,v1,5c <.debug_info+0x5c>
      5c:	00000002 	srl	zero,zero,0x0
      60:	00027103 	sra	t6,v0,0x4
      64:	3e030100 	0x3e030100
      68:	02000002 	0x2000002
      6c:	00013f03 	sra	a3,at,0x1c
      70:	39030300 	xori	v1,t0,0x300
      74:	04000000 	bltz	zero,78 <.debug_info+0x78>
      78:	20010400 	addi	at,zero,1024
      7c:	01000002 	0x1000002
      80:	00009629 	0x9629
      84:	00960000 	0x960000
      88:	72050000 	madd	s0,a1
      8c:	01007465 	0x1007465
      90:	0000962a 	0x962a
      94:	04060000 	0x4060000
      98:	746e6905 	jalx	1b9a414 <main+0x17998b0>
      9c:	7c010700 	0x7c010700
      a0:	01000001 	movf	zero,t0,$fcc0
      a4:	00960164 	0x960164
      a8:	f0000000 	0xf0000000
      ac:	08000000 	j	0 <.debug_info>
      b0:	000000d0 	0xd0
      b4:	00966101 	0x966101
      b8:	0d080000 	jal	4200000 <main+0x3dff49c>
      bc:	01000002 	0x1000002
      c0:	0000f062 	0xf062
      c4:	03570800 	0x3570800
      c8:	63010000 	0x63010000
      cc:	00000096 	0x96
      d0:	00019b09 	0x19b09
      d4:	fd650100 	sdc3	$5,256(t3)
      d8:	05000000 	bltz	t0,dc <.debug_info+0xdc>
      dc:	0078616d 	0x78616d
      e0:	00966601 	0x966601
      e4:	69050000 	0x69050000
      e8:	96670100 	lhu	a3,256(s3)
      ec:	00000000 	nop
      f0:	00f6040a 	0xf6040a
      f4:	010b0000 	0x10b0000
      f8:	00048606 	0x48606
      fc:	03040a00 	0x3040a00
     100:	0c000001 	jal	4 <.debug_info+0x4>
     104:	000000f6 	tne	zero,zero,0x3
     108:	027c0104 	0x27c0104
     10c:	34010000 	li	at,0x0
     110:	00000096 	0x96
     114:	00012500 	sll	a0,at,0x14
     118:	65720500 	0x65720500
     11c:	35010074 	ori	at,t0,0x74
     120:	00000096 	0x96
     124:	00790d00 	0x790d00
     128:	06500000 	bltzal	s2,12c <.debug_info+0x12c>
     12c:	065c8000 	0x65c8000
     130:	00108000 	sll	s0,s0,0x0
     134:	6d010000 	0x6d010000
     138:	00000146 	0x146
     13c:	00008a0e 	0x8a0e
     140:	00000000 	nop
     144:	080d0000 	j	340000 <max_locks_number+0x33ffe0>
     148:	5c000001 	bgtzl	zero,150 <.debug_info+0x150>
     14c:	68800006 	0x68800006
     150:	20800006 	addi	zero,a0,6
     154:	01000000 	0x1000000
     158:	0001676d 	0x1676d
     15c:	01190e00 	0x1190e00
     160:	00080000 	sll	zero,t0,0x0
     164:	0f000000 	jal	c000000 <main+0xbbff49c>
     168:	0001ed01 	0x1ed01
     16c:	01400100 	0x1400100
     170:	00000096 	0x96
     174:	80000668 	lb	zero,1640(zero)
     178:	800006b0 	lb	zero,1712(zero)
     17c:	00000030 	tge	zero,zero
     180:	01c66d01 	0x1c66d01
     184:	1e100000 	0x1e100000
     188:	01000000 	0x1000000
     18c:	0000963d 	0x963d
     190:	00001b00 	sll	v1,zero,0xc
     194:	01a71100 	0x1a71100
     198:	3e010000 	0x3e010000
     19c:	00000096 	0x96
     1a0:	4f115501 	c3	0x1115501
     1a4:	01000000 	0x1000000
     1a8:	0000963f 	0x963f
     1ac:	09560100 	j	5580400 <main+0x517f89c>
     1b0:	000001fa 	0x1fa
     1b4:	01c64101 	0x1c64101
     1b8:	6d050000 	0x6d050000
     1bc:	01007861 	0x1007861
     1c0:	00009642 	srl	s2,zero,0x19
     1c4:	040a0000 	tlti	zero,0
     1c8:	000001cc 	syscall	0x7
     1cc:	0000960c 	syscall	0x258
     1d0:	9b010f00 	lwr	at,3840(t8)
     1d4:	01000000 	0x1000000
     1d8:	00960152 	0x960152
     1dc:	06b00000 	bltzal	s5,1e0 <.debug_info+0x1e0>
     1e0:	06fc8000 	0x6fc8000
     1e4:	00408000 	0x408000
     1e8:	6d010000 	0x6d010000
     1ec:	00000230 	tge	zero,zero,0x8
     1f0:	00001e10 	0x1e10
     1f4:	964f0100 	lhu	t7,256(s2)
     1f8:	2e000000 	sltiu	zero,s0,0
     1fc:	11000000 	beqz	t0,200 <.debug_info+0x200>
     200:	000001a7 	0x1a7
     204:	00965001 	0x965001
     208:	55010000 	bnel	t0,at,20c <.debug_info+0x20c>
     20c:	00020d11 	0x20d11
     210:	30510100 	andi	s1,v0,0x100
     214:	01000002 	0x1000002
     218:	01fa0956 	0x1fa0956
     21c:	53010000 	beql	t8,at,220 <.debug_info+0x220>
     220:	000001c6 	0x1c6
     224:	78616d05 	0x78616d05
     228:	96540100 	lhu	s4,256(s2)
     22c:	00000000 	nop
     230:	0096040a 	0x96040a
     234:	9d0d0000 	0x9d0d0000
     238:	fc000000 	sdc3	$0,0(zero)
     23c:	50800006 	beqzl	a0,258 <.debug_info+0x258>
     240:	50800007 	beqzl	a0,260 <.debug_info+0x260>
     244:	01000000 	0x1000000
     248:	00027c6d 	0x27c6d
     24c:	00af1200 	0xaf1200
     250:	00410000 	0x410000
     254:	ba130000 	swr	s3,0(s0)
     258:	01000000 	0x1000000
     25c:	00c51355 	0xc51355
     260:	56010000 	bnel	s0,at,264 <.debug_info+0x264>
     264:	0000d00e 	0xd00e
     268:	00005f00 	sll	t3,zero,0x1c
     26c:	00db1400 	0xdb1400
     270:	e60e0000 	swc1	$f14,0(s0)
     274:	72000000 	madd	s0,zero
     278:	00000000 	nop
     27c:	0157010f 	0x157010f
     280:	7e010000 	0x7e010000
     284:	00009601 	0x9601
     288:	00075000 	sll	t2,a3,0x0
     28c:	0007f480 	sll	s8,a3,0x12
     290:	00006080 	sll	t4,zero,0x2
     294:	fb6d0100 	sdc2	$13,256(k1)
     298:	10000002 	b	2a4 <.debug_info+0x2a4>
     29c:	000000d0 	0xd0
     2a0:	00967b01 	0x967b01
     2a4:	00850000 	0x850000
     2a8:	0d110000 	jal	4440000 <main+0x403f49c>
     2ac:	01000002 	0x1000002
     2b0:	0000f07c 	0xf07c
     2b4:	11550100 	beq	t2,s5,6b8 <.debug_info+0x6b8>
     2b8:	00000357 	0x357
     2bc:	00967d01 	0x967d01
     2c0:	56010000 	bnel	s0,at,2c4 <.debug_info+0x2c4>
     2c4:	00019b15 	0x19b15
     2c8:	fd7f0100 	sdc3	$31,256(t3)
     2cc:	ae000000 	sw	zero,0(s0)
     2d0:	05000000 	bltz	t0,2d4 <.debug_info+0x2d4>
     2d4:	0078616d 	0x78616d
     2d8:	00968001 	0x968001
     2dc:	69160000 	0x69160000
     2e0:	96810100 	lhu	at,256(s4)
     2e4:	c1000000 	ll	zero,0(t0)
     2e8:	15000000 	bnez	t0,2ec <.debug_info+0x2ec>
     2ec:	00000208 	0x208
     2f0:	00f68201 	0xf68201
     2f4:	00df0000 	0xdf0000
     2f8:	17000000 	bnez	t8,2fc <.debug_info+0x2fc>
     2fc:	00011001 	movt	v0,zero,$fcc0
     300:	969c0100 	lhu	gp,256(s4)
     304:	f4000000 	sdc1	$f0,0(zero)
     308:	bc800007 	cache	0x0,7(a0)
     30c:	70800008 	0x70800008
     310:	13000000 	beqz	t8,314 <.debug_info+0x314>
     314:	95000001 	lhu	zero,1(t0)
     318:	18000003 	blez	zero,328 <.debug_info+0x328>
     31c:	00667562 	0x667562
     320:	03959d01 	0x3959d01
     324:	91020000 	lbu	v0,0(t0)
     328:	69701658 	0x69701658
     32c:	9e010064 	0x9e010064
     330:	00000096 	0x96
     334:	00000132 	tlt	zero,zero,0x4
     338:	78616d05 	0x78616d05
     33c:	969f0100 	lhu	ra,256(s4)
     340:	19000000 	blez	t0,344 <.debug_info+0x344>
     344:	00000079 	0x79
     348:	00000000 	nop
     34c:	03629e01 	0x3629e01
     350:	181a0000 	0x181a0000
     354:	0e000000 	jal	8000000 <main+0x7bff49c>
     358:	0000008a 	0x8a
     35c:	00000150 	0x150
     360:	9d1b0000 	0x9d1b0000
     364:	30000000 	andi	zero,zero,0x0
     368:	01000000 	0x1000000
     36c:	025d1ca7 	0x25d1ca7
     370:	561c0000 	bnel	s0,gp,374 <.debug_info+0x374>
     374:	1c000002 	bgtz	zero,380 <.debug_info+0x380>
     378:	0000024d 	break	0x0,0x9
     37c:	0000581a 	0x581a
     380:	00d01d00 	0xd01d00
     384:	56010000 	bnel	s0,at,388 <.debug_info+0x388>
     388:	0000db14 	0xdb14
     38c:	00e61400 	0xe61400
     390:	00000000 	nop
     394:	00f61e00 	0xf61e00
     398:	03a50000 	0x3a50000
     39c:	a51f0000 	sh	ra,0(t0)
     3a0:	24000003 	li	zero,3
     3a4:	07042000 	0x7042000
     3a8:	0190010f 	0x190010f
     3ac:	b4010000 	0xb4010000
     3b0:	00009601 	0x9601
     3b4:	0008bc00 	sll	s7,t0,0x10
     3b8:	0008e880 	sll	sp,t0,0x2
     3bc:	00008480 	sll	s0,zero,0x12
     3c0:	ed6d0100 	swc3	$13,256(t3)
     3c4:	11000003 	beqz	t0,3d4 <.debug_info+0x3d4>
     3c8:	000001a7 	0x1a7
     3cc:	0096b201 	0x96b201
     3d0:	54010000 	bnel	zero,at,3d4 <.debug_info+0x3d4>
     3d4:	00004f11 	0x4f11
     3d8:	96b30100 	lhu	s3,256(s5)
     3dc:	01000000 	0x1000000
     3e0:	00b40955 	0xb40955
     3e4:	b5010000 	0xb5010000
     3e8:	000001c6 	0x1c6
     3ec:	c0010f00 	ll	at,3840(zero)
     3f0:	01000000 	0x1000000
     3f4:	009601c2 	0x9601c2
     3f8:	08e80000 	j	3a00000 <main+0x35ff49c>
     3fc:	09188000 	j	4620000 <main+0x421f49c>
     400:	00948000 	0x948000
     404:	6d010000 	0x6d010000
     408:	00000434 	teq	zero,zero,0x10
     40c:	0001a710 	0x1a710
     410:	96c00100 	lhu	zero,256(s6)
     414:	6e000000 	0x6e000000
     418:	11000001 	beqz	t0,420 <.debug_info+0x420>
     41c:	0000020d 	break	0x0,0x8
     420:	0230c101 	0x230c101
     424:	55010000 	bnel	t0,at,428 <.debug_info+0x428>
     428:	0000b409 	jalr.hb	s6,zero
     42c:	c6c30100 	lwc1	$f3,256(s6)
     430:	00000001 	movf	zero,zero,$fcc0
     434:	0086010f 	0x86010f
     438:	d0010000 	0xd0010000
     43c:	00009601 	0x9601
     440:	00091800 	sll	v1,t1,0x0
     444:	00094480 	sll	t0,t1,0x12
     448:	0000a480 	sll	s4,zero,0x12
     44c:	796d0100 	0x796d0100
     450:	11000004 	beqz	t0,464 <.debug_info+0x464>
     454:	000001a7 	0x1a7
     458:	0096ce01 	0x96ce01
     45c:	54010000 	bnel	zero,at,460 <.debug_info+0x460>
     460:	00004f11 	0x4f11
     464:	96cf0100 	lhu	t7,256(s6)
     468:	01000000 	0x1000000
     46c:	02320955 	0x2320955
     470:	d1010000 	0xd1010000
     474:	000001c6 	0x1c6
     478:	91010f00 	lbu	at,3840(t0)
     47c:	01000000 	0x1000000
     480:	009601de 	0x9601de
     484:	09440000 	j	5100000 <main+0x4cff49c>
     488:	09748000 	j	5d20000 <main+0x591f49c>
     48c:	00b48000 	0xb48000
     490:	6d010000 	0x6d010000
     494:	000004c0 	sll	zero,zero,0x13
     498:	0001a710 	0x1a710
     49c:	96dc0100 	lhu	gp,256(s6)
     4a0:	8c000000 	lw	zero,0(zero)
     4a4:	11000001 	beqz	t0,4ac <.debug_info+0x4ac>
     4a8:	0000020d 	break	0x0,0x8
     4ac:	0230dd01 	0x230dd01
     4b0:	55010000 	bnel	t0,at,4b4 <.debug_info+0x4b4>
     4b4:	00023209 	0x23209
     4b8:	c6df0100 	lwc1	$f31,256(s6)
     4bc:	00000001 	movf	zero,zero,$fcc0
     4c0:	025a010f 	0x25a010f
     4c4:	ec010000 	swc3	$1,0(zero)
     4c8:	00009601 	0x9601
     4cc:	00097400 	sll	t6,t1,0x10
     4d0:	0009a080 	sll	s4,t1,0x2
     4d4:	0000c480 	sll	t8,zero,0x12
     4d8:	056d0100 	0x56d0100
     4dc:	11000005 	beqz	t0,4f4 <.debug_info+0x4f4>
     4e0:	000001a7 	0x1a7
     4e4:	0096ea01 	0x96ea01
     4e8:	54010000 	bnel	zero,at,4ec <.debug_info+0x4ec>
     4ec:	00004f11 	0x4f11
     4f0:	96eb0100 	lhu	t3,256(s7)
     4f4:	01000000 	0x1000000
     4f8:	02650955 	0x2650955
     4fc:	ed010000 	swc3	$1,0(t0)
     500:	000001c6 	0x1c6
     504:	28010f00 	slti	at,zero,3840
     508:	01000002 	0x1000002
     50c:	009601fa 	0x9601fa
     510:	09a00000 	j	6800000 <main+0x63ff49c>
     514:	09d08000 	j	7420000 <main+0x701f49c>
     518:	00d48000 	0xd48000
     51c:	6d010000 	0x6d010000
     520:	0000054c 	syscall	0x15
     524:	0001a710 	0x1a710
     528:	96f80100 	lhu	t8,256(s7)
     52c:	aa000000 	swl	zero,0(s0)
     530:	11000001 	beqz	t0,538 <.debug_info+0x538>
     534:	0000020d 	break	0x0,0x8
     538:	0230f901 	0x230f901
     53c:	55010000 	bnel	t0,at,540 <.debug_info+0x540>
     540:	00026509 	0x26509
     544:	c6fb0100 	lwc1	$f27,256(s7)
     548:	00000001 	movf	zero,zero,$fcc0
     54c:	01320121 	0x1320121
     550:	08010000 	j	40000 <max_locks_number+0x3ffe0>
     554:	00960101 	0x960101
     558:	09d00000 	j	7400000 <main+0x6fff49c>
     55c:	0a048000 	j	8120000 <main+0x7d1f49c>
     560:	00e48000 	0xe48000
     564:	6d010000 	0x6d010000
     568:	00000593 	0x593
     56c:	00004422 	0x4422
     570:	01060100 	0x1060100
     574:	00000096 	0x96
     578:	6e235401 	0x6e235401
     57c:	01000001 	movf	zero,t0,$fcc0
     580:	01c60109 	0x1c60109
     584:	6d240000 	0x6d240000
     588:	01007861 	0x1007861
     58c:	0096010a 	0x96010a
     590:	21000000 	addi	zero,t0,0
     594:	00010401 	0x10401
     598:	011c0100 	0x11c0100
     59c:	00009601 	0x9601
     5a0:	000a0400 	sll	zero,t2,0x10
     5a4:	000a7080 	sll	t6,t2,0x2
     5a8:	0000f480 	sll	s8,zero,0x12
     5ac:	1c6d0100 	0x1c6d0100
     5b0:	22000006 	addi	zero,s0,6
     5b4:	00000044 	0x44
     5b8:	96011b01 	lhu	at,6913(s0)
     5bc:	01000000 	0x1000000
     5c0:	016e2354 	0x16e2354
     5c4:	1d010000 	0x1d010000
     5c8:	0001c601 	0x1c601
     5cc:	616d2400 	0x616d2400
     5d0:	1e010078 	0x1e010078
     5d4:	00009601 	0x9601
     5d8:	00da2500 	0xda2500
     5dc:	1f010000 	0x1f010000
     5e0:	00009601 	0x9601
     5e4:	0001c800 	sll	t9,at,0x0
     5e8:	00692600 	0x692600
     5ec:	96012001 	lhu	at,8193(s0)
     5f0:	db000000 	ldc2	$0,0(t8)
     5f4:	27000001 	addiu	zero,t8,1
     5f8:	00000108 	0x108
     5fc:	80000a30 	lb	zero,2608(zero)
     600:	80000a34 	lb	zero,2612(zero)
     604:	28012801 	slti	at,zero,10241
     608:	80000a30 	lb	zero,2608(zero)
     60c:	80000a34 	lb	zero,2612(zero)
     610:	0001190e 	0x1190e
     614:	0001ee00 	sll	sp,at,0x18
     618:	00000000 	nop
     61c:	0000ca29 	0xca29
     620:	232a0100 	addi	t2,t9,256
     624:	01000001 	movf	zero,t0,$fcc0
     628:	00061c17 	0x61c17
     62c:	2a010100 	slti	at,s0,256
     630:	00000161 	0x161
     634:	061c1801 	0x61c1801
     638:	01010000 	0x1010000
     63c:	0000a72a 	0xa72a
     640:	1c190100 	0x1c190100
     644:	01000006 	srlv	zero,zero,t0
     648:	00112a01 	0x112a01
     64c:	1a010000 	0x1a010000
     650:	0000061c 	0x61c
     654:	2a2a0101 	slti	t2,s1,257
     658:	01000000 	0x1000000
     65c:	00061c1b 	0x61c1b
     660:	2a010100 	slti	at,s0,256
     664:	00000116 	0x116
     668:	061c1c01 	0x61c1c01
     66c:	01010000 	0x1010000
     670:	0000752a 	0x752a
     674:	1c1e0100 	0x1c1e0100
     678:	01000006 	srlv	zero,zero,t0
     67c:	01c92a01 	0x1c92a01
     680:	1f010000 	0x1f010000
     684:	0000061c 	0x61c
     688:	002a0101 	0x2a0101
     68c:	01000000 	0x1000000
     690:	00061c20 	0x61c20
     694:	00010100 	sll	zero,at,0x4
     698:	00000144 	0x144
     69c:	023b0002 	0x23b0002
     6a0:	01040000 	0x1040000
     6a4:	0000024b 	0x24b
     6a8:	0002ce01 	0x2ce01
     6ac:	0000e000 	sll	gp,zero,0x0
     6b0:	40000000 	mfc0	zero,c0_index
     6b4:	4000b400 	0x4000b400
     6b8:	00011e00 	sll	v1,at,0x18
     6bc:	aa010200 	swl	at,512(s0)
     6c0:	01000002 	0x1000002
     6c4:	0000012e 	0x12e
     6c8:	005c0040 	0x5c0040
     6cc:	01140040 	0x1140040
     6d0:	020c0000 	0x20c0000
     6d4:	00610000 	0x610000
     6d8:	76030000 	jalx	80c0000 <main+0x7cbf49c>
     6dc:	01006c61 	0x1006c61
     6e0:	0000612d 	0x612d
     6e4:	00022b00 	sll	a1,v0,0xc
     6e8:	00d00400 	0xd00400
     6ec:	2f010000 	sltiu	at,t8,0
     6f0:	00000068 	0x68
     6f4:	00000249 	0x249
     6f8:	06010500 	bgez	s0,1afc <.debug_info+0x1afc>
     6fc:	00000486 	0x486
     700:	69050406 	0x69050406
     704:	0200746e 	0x200746e
     708:	00029301 	0x29301
     70c:	011d0100 	0x11d0100
     710:	0040005c 	0x40005c
     714:	004000b4 	teq	v0,zero,0x2
     718:	0000012c 	0x12c
     71c:	0000025c 	0x25c
     720:	000000ab 	0xab
     724:	66756203 	0x66756203
     728:	ab1c0100 	swl	gp,256(t8)
     72c:	7b000000 	0x7b000000
     730:	04000002 	bltz	zero,73c <.debug_info+0x73c>
     734:	000000d0 	0xd0
     738:	00681e01 	0x681e01
     73c:	02990000 	0x2990000
     740:	07000000 	bltz	t8,744 <.debug_info+0x744>
     744:	00006104 	0x6104
     748:	02d70800 	0x2d70800
     74c:	0b010000 	j	c040000 <main+0xbc3f49c>
     750:	000000c3 	sra	zero,zero,0x3
     754:	c4030501 	lwc1	$f3,1281(zero)
     758:	09100000 	j	4400000 <main+0x3fff49c>
     75c:	00000068 	0x68
     760:	0000680a 	movz	t5,zero,zero
     764:	0000d800 	sll	k1,zero,0x0
     768:	00d80b00 	0xd80b00
     76c:	00070000 	sll	zero,a3,0x0
     770:	0807040c 	j	1c1030 <max_locks_number+0x1c1010>
     774:	0000029d 	0x29d
     778:	00ed0d01 	0xed0d01
     77c:	05010000 	bgez	t0,780 <.debug_info+0x780>
     780:	0000c803 	sra	t9,zero,0x0
     784:	00c80910 	0xc80910
     788:	610a0000 	0x610a0000
     78c:	02000000 	0x2000000
     790:	0b000001 	j	c000004 <main+0xbbff4a0>
     794:	000000d8 	0xd8
     798:	b4080007 	0xb4080007
     79c:	01000002 	0x1000002
     7a0:	0001140e 	0x1140e
     7a4:	03050100 	0x3050100
     7a8:	100000e8 	b	b4c <.debug_info+0xb4c>
     7ac:	0000f209 	0xf209
     7b0:	02860800 	0x2860800
     7b4:	10010000 	beq	zero,at,7b8 <.debug_info+0x7b8>
     7b8:	0000012b 	0x12b
     7bc:	f0030501 	0xf0030501
     7c0:	09100000 	j	4400000 <main+0x3fff49c>
     7c4:	000000c8 	0xc8
     7c8:	0002c108 	0x2c108
     7cc:	42110100 	c0	0x110100
     7d0:	01000001 	movf	zero,t0,$fcc0
     7d4:	01100305 	0x1100305
     7d8:	f2091000 	0xf2091000
     7dc:	00000000 	nop
     7e0:	00001894 	0x1894
     7e4:	02d90002 	0x2d90002
     7e8:	01040000 	0x1040000
     7ec:	0000024b 	0x24b
     7f0:	0004f701 	0x4f701
     7f4:	0000e000 	sll	gp,zero,0x0
     7f8:	4000b400 	0x4000b400
     7fc:	400b6400 	0x400b6400
     800:	00016a00 	sll	t5,at,0x8
     804:	05790200 	0x5790200
     808:	2b020000 	slti	v0,t8,0
     80c:	00000030 	tge	zero,zero
     810:	051f0403 	0x51f0403
     814:	80020000 	lb	v0,0(zero)
     818:	02000005 	0x2000005
     81c:	00002569 	0x2569
     820:	01d80400 	0x1d80400
     824:	03040000 	0x3040000
     828:	00006c04 	0x6c04
     82c:	02140500 	0x2140500
     830:	05000000 	bltz	t0,834 <.debug_info+0x834>
     834:	00000271 	tgeu	zero,zero,0x9
     838:	023e0501 	0x23e0501
     83c:	05020000 	bltzl	t0,840 <.debug_info+0x840>
     840:	0000013f 	0x13f
     844:	00390503 	0x390503
     848:	00040000 	sll	zero,a0,0x0
     84c:	00044e04 	0x44e04
     850:	04040400 	0x4040400
     854:	00000097 	0x97
     858:	0002ef05 	0x2ef05
     85c:	f7050000 	sdc1	$f5,0(t8)
     860:	01000002 	0x1000002
     864:	0002e505 	0x2e505
     868:	31050200 	andi	a1,t0,0x200
     86c:	03000003 	0x3000003
     870:	0004df05 	0x4df05
     874:	04000400 	bltz	zero,1878 <.debug_info+0x1878>
     878:	0000033c 	0x33c
     87c:	c2040504 	ll	a0,1284(s0)
     880:	05000000 	bltz	t0,884 <.debug_info+0x884>
     884:	000003f9 	0x3f9
     888:	050e0500 	tnei	t0,1280
     88c:	05010000 	bgez	t0,890 <.debug_info+0x890>
     890:	00000324 	0x324
     894:	04010502 	b	1ca0 <.debug_info+0x1ca0>
     898:	05030000 	bgezl	t0,89c <.debug_info+0x89c>
     89c:	000004a7 	0x4a7
     8a0:	61040004 	0x61040004
     8a4:	04000004 	bltz	zero,8b8 <.debug_info+0x8b8>
     8a8:	00ed0406 	0xed0406
     8ac:	62050000 	0x62050000
     8b0:	00000005 	0x5
     8b4:	00059a05 	0x59a05
     8b8:	a9050100 	swl	a1,256(t0)
     8bc:	02000003 	0x2000003
     8c0:	0005cd05 	0x5cd05
     8c4:	c4050300 	lwc1	$f5,768(zero)
     8c8:	04000005 	bltz	zero,8e0 <.debug_info+0x8e0>
     8cc:	0e010600 	jal	8041800 <main+0x7c40c9c>
     8d0:	01000003 	0x1000003
     8d4:	016e011b 	0x16e011b
     8d8:	6e030000 	0x6e030000
     8dc:	07000001 	bltz	t8,8e4 <.debug_info+0x8e4>
     8e0:	00000517 	0x517
     8e4:	016e1601 	0x16e1601
     8e8:	b1070000 	0xb1070000
     8ec:	01000003 	0x1000003
     8f0:	00016e17 	0x16e17
     8f4:	03b70700 	0x3b70700
     8f8:	18010000 	0x18010000
     8fc:	0000016e 	0x16e
     900:	0003bd07 	0x3bd07
     904:	6e190100 	0x6e190100
     908:	07000001 	bltz	t8,910 <.debug_info+0x910>
     90c:	000003c3 	sra	zero,zero,0xf
     910:	016e1a01 	0x16e1a01
     914:	8a080000 	lwl	t0,0(s0)
     918:	01000003 	0x1000003
     91c:	00016e1c 	0x16e1c
     920:	03830800 	0x3830800
     924:	1d010000 	0x1d010000
     928:	0000016e 	0x16e
     92c:	0003c908 	0x3c908
     930:	6e1e0100 	0x6e1e0100
     934:	08000001 	j	4 <.debug_info+0x4>
     938:	000003d0 	0x3d0
     93c:	016e1f01 	0x16e1f01
     940:	d7080000 	ldc1	$f8,0(t8)
     944:	01000003 	0x1000003
     948:	00016e20 	0x16e20
     94c:	04090000 	tgeiu	zero,0
     950:	746e6905 	jalx	1b9a414 <main+0x17998b0>
     954:	21010a00 	addi	at,t0,2560
     958:	01000002 	0x1000002
     95c:	00016e41 	0x16e41
     960:	01a40000 	0x1a40000
     964:	0b0b0000 	j	c2c0000 <main+0xbebf49c>
     968:	0001360c 	syscall	0x4d8
     96c:	01410c00 	0x1410c00
     970:	4c0c0000 	mfc3	t4,$0
     974:	0c000001 	jal	4 <.debug_info+0x4>
     978:	00000157 	0x157
     97c:	0001620c 	syscall	0x588
     980:	00000000 	nop
     984:	0000ed0d 	break	0x0,0x3b4
     988:	4000b400 	0x4000b400
     98c:	4000e000 	mfc0	zero,c0_taglo
     990:	00015400 	sll	t2,at,0x10
     994:	0002ac00 	sll	s5,v0,0x10
     998:	00020f00 	sll	at,v0,0x1c
     99c:	00ff0e00 	0xff0e00
     9a0:	02cb0000 	0x2cb0000
     9a4:	0a0e0000 	j	8380000 <main+0x7f7f49c>
     9a8:	de000001 	ldc3	$0,1(s0)
     9ac:	0e000002 	jal	8000008 <main+0x7bff4a4>
     9b0:	00000115 	0x115
     9b4:	000002f1 	tgeu	zero,zero,0xb
     9b8:	0001200e 	0x1200e
     9bc:	00030400 	sll	zero,v1,0x10
     9c0:	012b0f00 	0x12b0f00
     9c4:	91020000 	lbu	v0,0(t0)
     9c8:	01361010 	0x1361010
     9cc:	03170000 	0x3170000
     9d0:	41110000 	0x41110000
     9d4:	01000001 	movf	zero,t0,$fcc0
     9d8:	014c1154 	0x14c1154
     9dc:	55010000 	bnel	t0,at,9e0 <.debug_info+0x9e0>
     9e0:	00015711 	0x15711
     9e4:	11560100 	beq	t2,s6,de8 <.debug_info+0xde8>
     9e8:	00000162 	0x162
     9ec:	0d005701 	jal	4015c04 <main+0x3c150a0>
     9f0:	00000175 	0x175
     9f4:	004000e0 	0x4000e0
     9f8:	0040010c 	syscall	0x10004
     9fc:	0000016c 	0x16c
     a00:	0000032a 	0x32a
     a04:	00000281 	0x281
     a08:	0000ed12 	0xed12
     a0c:	4000e800 	mfc0	zero,c0_taghi
     a10:	40010000 	mfc0	at,c0_index
     a14:	13420100 	beq	k0,v0,e18 <.debug_info+0xe18>
     a18:	000001e1 	0x1e1
     a1c:	0001d813 	0x1d813
     a20:	01cf1300 	0x1cf1300
     a24:	c6130000 	lwc1	$f19,0(s0)
     a28:	13000001 	beqz	t8,a30 <.debug_info+0xa30>
     a2c:	000001bd 	0x1bd
     a30:	4000e814 	0x4000e814
     a34:	40010000 	mfc0	at,c0_index
     a38:	01361000 	0x1361000
     a3c:	03490000 	0x3490000
     a40:	41110000 	0x41110000
     a44:	01000001 	movf	zero,t0,$fcc0
     a48:	014c1154 	0x14c1154
     a4c:	55010000 	bnel	t0,at,a50 <.debug_info+0xa50>
     a50:	00015711 	0x15711
     a54:	11560100 	beq	t2,s6,e58 <.debug_info+0xe58>
     a58:	00000162 	0x162
     a5c:	00005701 	0x5701
     a60:	7d011500 	0x7d011500
     a64:	01000002 	0x1000002
     a68:	00016e4a 	0x16e4a
     a6c:	40010c00 	0x40010c00
     a70:	40013800 	mfc0	at,$7
     a74:	00018400 	sll	s0,at,0x10
     a78:	00035c00 	sll	t3,v1,0x10
     a7c:	0002fa00 	sll	ra,v0,0x8
     a80:	00ed1200 	0xed1200
     a84:	01140000 	0x1140000
     a88:	012c0040 	0x12c0040
     a8c:	4b010040 	c2	0x1010040
     a90:	0001e113 	0x1e113
     a94:	01d81300 	0x1d81300
     a98:	cf130000 	pref	0x13,0(t8)
     a9c:	13000001 	beqz	t8,aa4 <.debug_info+0xaa4>
     aa0:	000001c6 	0x1c6
     aa4:	0001bd13 	0x1bd13
     aa8:	01141400 	0x1141400
     aac:	012c0040 	0x12c0040
     ab0:	36100040 	ori	s0,s0,0x40
     ab4:	7b000001 	0x7b000001
     ab8:	11000003 	beqz	t0,ac8 <.debug_info+0xac8>
     abc:	00000141 	0x141
     ac0:	4c115401 	0x4c115401
     ac4:	01000001 	movf	zero,t0,$fcc0
     ac8:	01571155 	0x1571155
     acc:	56010000 	bnel	s0,at,ad0 <.debug_info+0xad0>
     ad0:	00016211 	0x16211
     ad4:	00570100 	0x570100
     ad8:	01150000 	0x1150000
     adc:	00000111 	0x111
     ae0:	016e5301 	0x16e5301
     ae4:	01380000 	0x1380000
     ae8:	01700040 	0x1700040
     aec:	019c0040 	0x19c0040
     af0:	038e0000 	0x38e0000
     af4:	03d70000 	0x3d70000
     af8:	d0160000 	0xd0160000
     afc:	01000000 	0x1000000
     b00:	00016e54 	0x16e54
     b04:	0003ad00 	sll	s5,v1,0x14
     b08:	01751700 	0x1751700
     b0c:	01400000 	0x1400000
     b10:	01580040 	0x1580040
     b14:	54010040 	bnel	zero,at,c18 <.debug_info+0xc18>
     b18:	0000037e 	0x37e
     b1c:	0000ed12 	0xed12
     b20:	40014000 	mfc0	at,c0_badvaddr
     b24:	40015800 	mfc0	at,c0_compare
     b28:	14420100 	bne	v0,v0,f2c <.debug_info+0xf2c>
     b2c:	00400140 	0x400140
     b30:	00400158 	0x400158
     b34:	00013610 	0x13610
     b38:	0003c000 	sll	t8,v1,0x0
     b3c:	01411000 	0x1411000
     b40:	03d30000 	0x3d30000
     b44:	4c110000 	mfc3	s1,$0
     b48:	01000001 	movf	zero,t0,$fcc0
     b4c:	01571155 	0x1571155
     b50:	56010000 	bnel	s0,at,b54 <.debug_info+0xb54>
     b54:	00016211 	0x16211
     b58:	00570100 	0x570100
     b5c:	ed120000 	swc3	$18,0(t0)
     b60:	58000000 	blezl	zero,b64 <.debug_info+0xb64>
     b64:	64004001 	0x64004001
     b68:	01004001 	movf	t0,t0,$fcc0
     b6c:	01e11355 	0x1e11355
     b70:	d8130000 	ldc2	$19,0(zero)
     b74:	13000001 	beqz	t8,b7c <.debug_info+0xb7c>
     b78:	000001cf 	0x1cf
     b7c:	0001c613 	0x1c613
     b80:	01bd1300 	0x1bd1300
     b84:	58140000 	0x58140000
     b88:	64004001 	0x64004001
     b8c:	10004001 	b	10b94 <max_locks_number+0x10b74>
     b90:	00000136 	tne	zero,zero,0x4
     b94:	000003e6 	0x3e6
     b98:	00014111 	0x14111
     b9c:	11540100 	beq	t2,s4,fa0 <.debug_info+0xfa0>
     ba0:	0000014c 	syscall	0x5
     ba4:	57115501 	bnel	t8,s1,15fac <max_locks_number+0x15f8c>
     ba8:	01000001 	movf	zero,t0,$fcc0
     bac:	01621156 	0x1621156
     bb0:	57010000 	bnel	t8,at,bb4 <.debug_info+0xbb4>
     bb4:	18000000 	blez	zero,bb8 <.debug_info+0xbb8>
     bb8:	00042501 	0x42501
     bbc:	01660100 	0x1660100
     bc0:	0000016e 	0x16e
     bc4:	00400170 	tge	v0,zero,0x5
     bc8:	004001e4 	0x4001e4
     bcc:	000001b4 	teq	zero,zero,0x6
     bd0:	000003f9 	0x3f9
     bd4:	000004d7 	0x4d7
     bd8:	00042e19 	0x42e19
     bdc:	d7650100 	ldc1	$f5,256(k1)
     be0:	18000004 	blez	zero,bf4 <.debug_info+0xbf4>
     be4:	16000004 	bnez	s0,bf8 <.debug_info+0xbf8>
     be8:	000000d0 	0xd0
     bec:	016e6701 	0x16e6701
     bf0:	04360000 	0x4360000
     bf4:	571a0000 	bnel	t8,k0,bf8 <.debug_info+0xbf8>
     bf8:	01000003 	0x1000003
     bfc:	00016e68 	0x16e68
     c00:	17560100 	bne	k0,s6,1004 <.debug_info+0x1004>
     c04:	00000175 	0x175
     c08:	00400180 	0x400180
     c0c:	00400198 	0x400198
     c10:	047e6701 	0x47e6701
     c14:	ed120000 	swc3	$18,0(t0)
     c18:	80000000 	lb	zero,0(zero)
     c1c:	98004001 	lwr	zero,16385(zero)
     c20:	01004001 	movf	t0,t0,$fcc0
     c24:	01801442 	0x1801442
     c28:	01980040 	0x1980040
     c2c:	36100040 	ori	s0,s0,0x40
     c30:	49000001 	bc2f	c38 <.debug_info+0xc38>
     c34:	10000004 	b	c48 <.debug_info+0xc48>
     c38:	00000141 	0x141
     c3c:	00000467 	0x467
     c40:	00014c10 	0x14c10
     c44:	00047a00 	sll	t7,a0,0x8
     c48:	01571000 	0x1571000
     c4c:	048d0000 	0x48d0000
     c50:	62100000 	0x62100000
     c54:	ab000001 	swl	zero,1(t8)
     c58:	00000004 	sllv	zero,zero,zero
     c5c:	ed120000 	swc3	$18,0(t0)
     c60:	c0000000 	ll	zero,0(zero)
     c64:	d4004001 	ldc1	$f0,16385(zero)
     c68:	01004001 	movf	t0,t0,$fcc0
     c6c:	01e1136c 	0x1e1136c
     c70:	d8130000 	ldc2	$19,0(zero)
     c74:	13000001 	beqz	t8,c7c <.debug_info+0xc7c>
     c78:	000001cf 	0x1cf
     c7c:	0001c613 	0x1c613
     c80:	01bd1300 	0x1bd1300
     c84:	c0140000 	ll	s4,0(zero)
     c88:	d4004001 	ldc1	$f0,16385(zero)
     c8c:	10004001 	b	10c94 <max_locks_number+0x10c74>
     c90:	00000136 	tne	zero,zero,0x4
     c94:	000004be 	0x4be
     c98:	00014111 	0x14111
     c9c:	11540100 	beq	t2,s4,10a0 <.debug_info+0x10a0>
     ca0:	0000014c 	syscall	0x5
     ca4:	57115501 	bnel	t8,s1,160ac <max_locks_number+0x1608c>
     ca8:	01000001 	movf	zero,t0,$fcc0
     cac:	01621156 	0x1621156
     cb0:	57010000 	bnel	t8,at,cb4 <.debug_info+0xcb4>
     cb4:	1b000000 	blez	t8,cb8 <.debug_info+0xcb8>
     cb8:	0004dd04 	0x4dd04
     cbc:	06011c00 	bgez	s0,7cc0 <max_locks_number+0x7ca0>
     cc0:	00000486 	0x486
     cc4:	04100118 	bltzal	zero,1128 <.debug_info+0x1128>
     cc8:	79010000 	0x79010000
     ccc:	00016e01 	0x16e01
     cd0:	4001e400 	0x4001e400
     cd4:	40022800 	mfc0	v0,c0_pagemask
     cd8:	0001cc00 	sll	t9,at,0x10
     cdc:	0004d100 	sll	k0,a0,0x4
     ce0:	0005d500 	sll	k0,a1,0x14
     ce4:	02081900 	0x2081900
     ce8:	78010000 	0x78010000
     cec:	000004dd 	0x4dd
     cf0:	000004f0 	tge	zero,zero,0x13
     cf4:	0000d016 	0xd016
     cf8:	6e7a0100 	0x6e7a0100
     cfc:	0f000001 	jal	c000004 <main+0xbbff4a0>
     d00:	17000005 	bnez	t8,d18 <.debug_info+0xd18>
     d04:	00000175 	0x175
     d08:	004001f0 	tge	v0,zero,0x7
     d0c:	00400208 	0x400208
     d10:	057c7a01 	0x57c7a01
     d14:	ed120000 	swc3	$18,0(t0)
     d18:	f0000000 	0xf0000000
     d1c:	08004001 	j	10004 <max_locks_number+0xffe4>
     d20:	01004002 	0x1004002
     d24:	01f01442 	0x1f01442
     d28:	02080040 	0x2080040
     d2c:	36100040 	ori	s0,s0,0x40
     d30:	22000001 	addi	zero,s0,1
     d34:	10000005 	b	d4c <.debug_info+0xd4c>
     d38:	00000141 	0x141
     d3c:	00000535 	0x535
     d40:	00014c10 	0x14c10
     d44:	00054800 	sll	t1,a1,0x0
     d48:	01571000 	0x1571000
     d4c:	055b0000 	0x55b0000
     d50:	62110000 	0x62110000
     d54:	01000001 	movf	zero,t0,$fcc0
     d58:	00000057 	0x57
     d5c:	0000ed12 	0xed12
     d60:	40020800 	mfc0	v0,c0_random
     d64:	40021c00 	0x40021c00
     d68:	137b0100 	beq	k1,k1,116c <.debug_info+0x116c>
     d6c:	000001e1 	0x1e1
     d70:	0001d813 	0x1d813
     d74:	01cf1300 	0x1cf1300
     d78:	c6130000 	lwc1	$f19,0(s0)
     d7c:	13000001 	beqz	t8,d84 <.debug_info+0xd84>
     d80:	000001bd 	0x1bd
     d84:	40020814 	0x40020814
     d88:	40021c00 	0x40021c00
     d8c:	01361000 	0x1361000
     d90:	056e0000 	tnei	t3,0
     d94:	41110000 	0x41110000
     d98:	01000001 	movf	zero,t0,$fcc0
     d9c:	014c1154 	0x14c1154
     da0:	55010000 	bnel	t0,at,da4 <.debug_info+0xda4>
     da4:	00015711 	0x15711
     da8:	11560100 	beq	t2,s6,11ac <.debug_info+0x11ac>
     dac:	00000162 	0x162
     db0:	00005701 	0x5701
     db4:	ce011800 	pref	0x1,6144(s0)
     db8:	01000004 	sllv	zero,zero,t0
     dbc:	016e0188 	0x16e0188
     dc0:	02280000 	0x2280000
     dc4:	02c40040 	0x2c40040
     dc8:	01e40040 	0x1e40040
     dcc:	05810000 	bgez	t4,dd0 <.debug_info+0xdd0>
     dd0:	06d30000 	bgezall	s6,dd4 <.debug_info+0xdd4>
     dd4:	761d0000 	jalx	8740000 <main+0x833f49c>
     dd8:	01006c61 	0x1006c61
     ddc:	00016e87 	0x16e87
     de0:	0005a000 	sll	s4,a1,0x0
     de4:	00d01600 	0xd01600
     de8:	89010000 	lwl	at,0(t0)
     dec:	0000016e 	0x16e
     df0:	000005be 	0x5be
     df4:	6675621e 	0x6675621e
     df8:	d38a0100 	0xd38a0100
     dfc:	02000006 	srlv	zero,zero,s0
     e00:	691f6891 	0x691f6891
     e04:	6e8b0100 	0x6e8b0100
     e08:	20000001 	addi	zero,zero,1
     e0c:	00000175 	0x175
     e10:	00000108 	0x108
     e14:	067a8901 	0x67a8901
     e18:	ed210000 	swc3	$1,0(t1)
     e1c:	20000000 	addi	zero,zero,0
     e20:	01000001 	movf	zero,t0,$fcc0
     e24:	01382242 	0x1382242
     e28:	36100000 	ori	s0,s0,0x0
     e2c:	d1000001 	0xd1000001
     e30:	10000005 	b	e48 <.debug_info+0xe48>
     e34:	00000141 	0x141
     e38:	000005e4 	0x5e4
     e3c:	00014c10 	0x14c10
     e40:	0005f700 	sll	s8,a1,0x1c
     e44:	01571000 	0x1571000
     e48:	060a0000 	tlti	s0,0
     e4c:	62100000 	0x62100000
     e50:	1d000001 	bgtz	t0,e58 <.debug_info+0xe58>
     e54:	00000006 	srlv	zero,zero,zero
     e58:	ed120000 	swc3	$18,0(t0)
     e5c:	9c000000 	0x9c000000
     e60:	b4004002 	0xb4004002
     e64:	01004002 	0x1004002
     e68:	01e11390 	0x1e11390
     e6c:	d8130000 	ldc2	$19,0(zero)
     e70:	13000001 	beqz	t8,e78 <.debug_info+0xe78>
     e74:	000001cf 	0x1cf
     e78:	0001c613 	0x1c613
     e7c:	01bd1300 	0x1bd1300
     e80:	9c140000 	0x9c140000
     e84:	b4004002 	0xb4004002
     e88:	10004002 	b	10e94 <max_locks_number+0x10e74>
     e8c:	00000136 	tne	zero,zero,0x4
     e90:	00000630 	tge	zero,zero,0x18
     e94:	00014111 	0x14111
     e98:	11540100 	beq	t2,s4,129c <.debug_info+0x129c>
     e9c:	0000014c 	syscall	0x5
     ea0:	57115501 	bnel	t8,s1,162a8 <max_locks_number+0x16288>
     ea4:	01000001 	movf	zero,t0,$fcc0
     ea8:	01621156 	0x1621156
     eac:	57010000 	bnel	t8,at,eb0 <.debug_info+0xeb0>
     eb0:	23000000 	addi	zero,t8,0
     eb4:	000004dd 	0x4dd
     eb8:	000006e3 	0x6e3
     ebc:	0006e324 	0x6e324
     ec0:	25000900 	addiu	zero,t0,2304
     ec4:	01180704 	0x1180704
     ec8:	00000588 	0x588
     ecc:	6e01a101 	0x6e01a101
     ed0:	c4000001 	lwc1	$f0,1(zero)
     ed4:	44004002 	0x44004002
     ed8:	fc004003 	sdc3	$0,16387(zero)
     edc:	43000001 	c0	0x1000001
     ee0:	dc000006 	ldc3	$0,6(zero)
     ee4:	1d000007 	bgtz	t0,f04 <.debug_info+0xf04>
     ee8:	00667562 	0x667562
     eec:	04d7a001 	0x4d7a001
     ef0:	06620000 	bltzl	s3,ef4 <.debug_info+0xef4>
     ef4:	31190000 	andi	t9,t0,0x0
     ef8:	01000005 	0x1000005
     efc:	00016ea0 	0x16ea0
     f00:	00068b00 	sll	s1,a2,0xc
     f04:	00d01600 	0xd01600
     f08:	a2010000 	sb	at,0(s0)
     f0c:	0000016e 	0x16e
     f10:	000006b4 	teq	zero,zero,0x1a
     f14:	74657226 	jalx	195c898 <main+0x155bd34>
     f18:	6ea30100 	0x6ea30100
     f1c:	c7000001 	lwc1	$f0,1(t8)
     f20:	17000006 	bnez	t8,f3c <.debug_info+0xf3c>
     f24:	00000175 	0x175
     f28:	004002dc 	0x4002dc
     f2c:	004002f4 	teq	v0,zero,0xb
     f30:	079ca201 	0x79ca201
     f34:	ed120000 	swc3	$18,0(t0)
     f38:	dc000000 	ldc3	$0,0(zero)
     f3c:	f4004002 	sdc1	$f0,16386(zero)
     f40:	01004002 	0x1004002
     f44:	02dc1442 	0x2dc1442
     f48:	02f40040 	0x2f40040
     f4c:	36100040 	ori	s0,s0,0x40
     f50:	e5000001 	swc1	$f0,1(t0)
     f54:	10000006 	b	f70 <.debug_info+0xf70>
     f58:	00000141 	0x141
     f5c:	000006f8 	0x6f8
     f60:	00014c10 	0x14c10
     f64:	00070b00 	sll	at,a3,0xc
     f68:	01571000 	0x1571000
     f6c:	071e0000 	0x71e0000
     f70:	62110000 	0x62110000
     f74:	01000001 	movf	zero,t0,$fcc0
     f78:	00000057 	0x57
     f7c:	0000ed12 	0xed12
     f80:	4002f400 	0x4002f400
     f84:	40030800 	mfc0	v1,c0_random
     f88:	14a70100 	bne	a1,a3,138c <.debug_info+0x138c>
     f8c:	004002f4 	teq	v0,zero,0xb
     f90:	00400308 	0x400308
     f94:	00013610 	0x13610
     f98:	00073100 	sll	a2,a3,0x4
     f9c:	01411100 	0x1411100
     fa0:	54010000 	bnel	zero,at,fa4 <.debug_info+0xfa4>
     fa4:	00014c11 	0x14c11
     fa8:	11550100 	beq	t2,s5,13ac <.debug_info+0x13ac>
     fac:	00000157 	0x157
     fb0:	62115601 	0x62115601
     fb4:	01000001 	movf	zero,t0,$fcc0
     fb8:	00000057 	0x57
     fbc:	05540118 	0x5540118
     fc0:	b6010000 	0xb6010000
     fc4:	00016e01 	0x16e01
     fc8:	40034400 	0x40034400
     fcc:	40039000 	mfc0	v1,c0_watchlo
     fd0:	00021800 	sll	v1,v0,0x0
     fd4:	00074f00 	sll	t1,a3,0x1c
     fd8:	0008cd00 	sll	t9,t0,0x14
     fdc:	75621d00 	jalx	5887400 <main+0x548689c>
     fe0:	b5010066 	0xb5010066
     fe4:	000004d7 	0x4d7
     fe8:	0000076e 	0x76e
     fec:	0000d016 	0xd016
     ff0:	6eb70100 	0x6eb70100
     ff4:	8c000001 	lw	zero,1(zero)
     ff8:	17000007 	bnez	t8,1018 <.debug_info+0x1018>
     ffc:	00000175 	0x175
    1000:	00400354 	0x400354
    1004:	0040036c 	0x40036c
    1008:	0874b701 	j	1d2dc04 <main+0x192d0a0>
    100c:	ed120000 	swc3	$18,0(t0)
    1010:	54000000 	bnezl	zero,1014 <.debug_info+0x1014>
    1014:	6c004003 	0x6c004003
    1018:	01004003 	0x1004003
    101c:	03541442 	0x3541442
    1020:	036c0040 	0x36c0040
    1024:	36100040 	ori	s0,s0,0x40
    1028:	9f000001 	0x9f000001
    102c:	10000007 	b	104c <.debug_info+0x104c>
    1030:	00000141 	0x141
    1034:	000007b2 	tlt	zero,zero,0x1e
    1038:	00014c10 	0x14c10
    103c:	0007c500 	sll	t8,a3,0x14
    1040:	01571000 	0x1571000
    1044:	07d80000 	0x7d80000
    1048:	62110000 	0x62110000
    104c:	01000001 	movf	zero,t0,$fcc0
    1050:	00000057 	0x57
    1054:	0000ed12 	0xed12
    1058:	40036c00 	0x40036c00
    105c:	40038000 	mfc0	v1,c0_config
    1060:	13b80100 	beq	sp,t8,1464 <.debug_info+0x1464>
    1064:	000001e1 	0x1e1
    1068:	0001d813 	0x1d813
    106c:	01cf1300 	0x1cf1300
    1070:	c6130000 	lwc1	$f19,0(s0)
    1074:	13000001 	beqz	t8,107c <.debug_info+0x107c>
    1078:	000001bd 	0x1bd
    107c:	40036c14 	0x40036c14
    1080:	40038000 	mfc0	v1,c0_config
    1084:	01361000 	0x1361000
    1088:	07eb0000 	tltiu	ra,0
    108c:	41110000 	0x41110000
    1090:	01000001 	movf	zero,t0,$fcc0
    1094:	014c1154 	0x14c1154
    1098:	55010000 	bnel	t0,at,109c <.debug_info+0x109c>
    109c:	00015711 	0x15711
    10a0:	11560100 	beq	t2,s6,14a4 <.debug_info+0x14a4>
    10a4:	00000162 	0x162
    10a8:	00005701 	0x5701
    10ac:	91011800 	lbu	at,6144(t0)
    10b0:	01000005 	0x1000005
    10b4:	016e01c9 	0x16e01c9
    10b8:	03900000 	0x3900000
    10bc:	04700040 	bltzal	v1,11c0 <.debug_info+0x11c0>
    10c0:	02300040 	0x2300040
    10c4:	07fe0000 	0x7fe0000
    10c8:	09dc0000 	j	7700000 <main+0x72ff49c>
    10cc:	e0190000 	sc	t9,0(zero)
    10d0:	01000002 	0x1000002
    10d4:	0009dcc8 	0x9dcc8
    10d8:	00081d00 	sll	v1,t0,0x14
    10dc:	00d01600 	0xd01600
    10e0:	ca010000 	lwc2	$1,0(s0)
    10e4:	0000016e 	0x16e
    10e8:	00000851 	0x851
    10ec:	6675621e 	0x6675621e
    10f0:	e2cb0100 	sc	t3,256(s6)
    10f4:	02000009 	jalr	zero,s0
    10f8:	76266091 	jalx	8998244 <main+0x85976e0>
    10fc:	01006c61 	0x1006c61
    1100:	00016ecc 	syscall	0x5bb
    1104:	00086400 	sll	t4,t0,0x10
    1108:	00691f00 	0x691f00
    110c:	016ecd01 	0x16ecd01
    1110:	72260000 	madd	s1,a2
    1114:	01007465 	0x1007465
    1118:	00016ece 	0x16ece
    111c:	00088200 	sll	s0,t0,0x8
    1120:	01751700 	0x1751700
    1124:	03a00000 	0x3a00000
    1128:	03b80040 	0x3b80040
    112c:	ca010040 	lwc2	$1,64(s0)
    1130:	0000099c 	0x99c
    1134:	0000ed12 	0xed12
    1138:	4003a000 	mfc0	v1,c0_xcontext
    113c:	4003b800 	mfc0	v1,c0_debug
    1140:	14420100 	bne	v0,v0,1544 <.debug_info+0x1544>
    1144:	004003a0 	0x4003a0
    1148:	004003b8 	0x4003b8
    114c:	00013610 	0x13610
    1150:	0008b600 	sll	s6,t0,0x18
    1154:	01411000 	0x1411000
    1158:	08c90000 	j	3240000 <main+0x2e3f49c>
    115c:	4c100000 	mfc3	s0,$0
    1160:	dc000001 	ldc3	$0,1(zero)
    1164:	10000008 	b	1188 <.debug_info+0x1188>
    1168:	00000157 	0x157
    116c:	000008ef 	0x8ef
    1170:	00016210 	0x16210
    1174:	00090200 	sll	zero,t1,0x8
    1178:	00000000 	nop
    117c:	0000ed21 	0xed21
    1180:	00015000 	sll	t2,at,0x0
    1184:	22d20100 	addi	s2,s6,256
    1188:	00000168 	0x168
    118c:	00013610 	0x13610
    1190:	00092000 	sll	a0,t1,0x0
    1194:	01411000 	0x1411000
    1198:	09540000 	j	5500000 <main+0x50ff49c>
    119c:	4c100000 	mfc3	s0,$0
    11a0:	72000001 	maddu	s0,zero
    11a4:	10000009 	b	11cc <.debug_info+0x11cc>
    11a8:	00000157 	0x157
    11ac:	00000990 	0x990
    11b0:	00016210 	0x16210
    11b4:	0009ae00 	sll	s5,t1,0x18
    11b8:	00000000 	nop
    11bc:	016e041b 	0x16e041b
    11c0:	f2230000 	0xf2230000
    11c4:	f2000009 	0xf2000009
    11c8:	24000009 	li	zero,9
    11cc:	000006e3 	0x6e3
    11d0:	011c0013 	0x11c0013
    11d4:	00047d08 	0x47d08
    11d8:	ff012700 	sdc3	$1,9984(t8)
    11dc:	01000004 	sllv	zero,zero,t0
    11e0:	6e01014c 	0x6e01014c
    11e4:	70000001 	maddu	zero,zero
    11e8:	98004004 	lwr	zero,16388(zero)
    11ec:	48004004 	mfc2	zero,$8,4
    11f0:	cc000002 	pref	0x0,2(zero)
    11f4:	8b000009 	lwl	zero,9(t8)
    11f8:	2800000a 	slti	zero,zero,10
    11fc:	0000001e 	0x1e
    1200:	6e014b01 	0x6e014b01
    1204:	01000001 	movf	zero,t0,$fcc0
    1208:	61762954 	0x61762954
    120c:	4b01006c 	c2	0x101006c
    1210:	00016e01 	0x16e01
    1214:	0009eb00 	sll	sp,t1,0xc
    1218:	00ed2a00 	0xed2a00
    121c:	01800000 	0x1800000
    1220:	4d010000 	bc3t	1224 <.debug_info+0x1224>
    1224:	01e11301 	0x1e11301
    1228:	d8130000 	ldc2	$19,0(zero)
    122c:	13000001 	beqz	t8,1234 <.debug_info+0x1234>
    1230:	000001cf 	0x1cf
    1234:	0001c613 	0x1c613
    1238:	01bd1300 	0x1bd1300
    123c:	98220000 	lwr	v0,0(at)
    1240:	10000001 	b	1248 <.debug_info+0x1248>
    1244:	00000136 	tne	zero,zero,0x4
    1248:	000009fe 	0x9fe
    124c:	00014111 	0x14111
    1250:	11540100 	beq	t2,s4,1654 <.debug_info+0x1654>
    1254:	0000014c 	syscall	0x5
    1258:	57115501 	bnel	t8,s1,16660 <max_locks_number+0x16640>
    125c:	01000001 	movf	zero,t0,$fcc0
    1260:	01621156 	0x1621156
    1264:	57010000 	bnel	t8,at,1268 <.debug_info+0x1268>
    1268:	27000000 	addiu	zero,t8,0
    126c:	0005a201 	0x5a201
    1270:	01570100 	0x1570100
    1274:	00016e01 	0x16e01
    1278:	40049800 	mfc0	a0,c0_watchhi
    127c:	4004c000 	mfc0	a0,c0_depc
    1280:	00026000 	sll	t4,v0,0x0
    1284:	000a1100 	sll	v0,t2,0x4
    1288:	000b1d00 	sll	v1,t3,0x14
    128c:	001e2800 	sll	a1,s8,0x0
    1290:	56010000 	bnel	s0,at,1294 <.debug_info+0x1294>
    1294:	00016e01 	0x16e01
    1298:	29540100 	slti	s4,t2,256
    129c:	006c6176 	tne	v1,t4,0x185
    12a0:	6e015601 	0x6e015601
    12a4:	30000001 	andi	zero,zero,0x1
    12a8:	2a00000a 	slti	zero,s0,10
    12ac:	000000ed 	0xed
    12b0:	000001b0 	tge	zero,zero,0x6
    12b4:	13015801 	beq	t8,at,172bc <max_locks_number+0x1729c>
    12b8:	000001e1 	0x1e1
    12bc:	0001d813 	0x1d813
    12c0:	01cf1300 	0x1cf1300
    12c4:	c6130000 	lwc1	$f19,0(s0)
    12c8:	13000001 	beqz	t8,12d0 <.debug_info+0x12d0>
    12cc:	000001bd 	0x1bd
    12d0:	0001c822 	neg	t9,at
    12d4:	01361000 	0x1361000
    12d8:	0a430000 	j	90c0000 <main+0x8cbf49c>
    12dc:	41110000 	0x41110000
    12e0:	01000001 	movf	zero,t0,$fcc0
    12e4:	014c1154 	0x14c1154
    12e8:	55010000 	bnel	t0,at,12ec <.debug_info+0x12ec>
    12ec:	00015711 	0x15711
    12f0:	11560100 	beq	t2,s6,16f4 <.debug_info+0x16f4>
    12f4:	00000162 	0x162
    12f8:	00005701 	0x5701
    12fc:	39012700 	xori	at,t0,0x2700
    1300:	01000005 	0x1000005
    1304:	6e010162 	0x6e010162
    1308:	c0000001 	ll	zero,1(zero)
    130c:	e8004004 	swc2	$0,16388(zero)
    1310:	78004004 	0x78004004
    1314:	56000002 	bnezl	s0,1320 <.debug_info+0x1320>
    1318:	a700000a 	sh	zero,10(t8)
    131c:	2800000b 	slti	zero,zero,11
    1320:	0000001e 	0x1e
    1324:	6e016101 	0x6e016101
    1328:	01000001 	movf	zero,t0,$fcc0
    132c:	00ed2b54 	0xed2b54
    1330:	04c80000 	tgei	a2,0
    1334:	04dc0040 	0x4dc0040
    1338:	63010040 	0x63010040
    133c:	01e11301 	0x1e11301
    1340:	d8130000 	ldc2	$19,0(zero)
    1344:	13000001 	beqz	t8,134c <.debug_info+0x134c>
    1348:	000001cf 	0x1cf
    134c:	0001c613 	0x1c613
    1350:	01bd1300 	0x1bd1300
    1354:	c8140000 	lwc2	$20,0(zero)
    1358:	dc004004 	ldc3	$0,16388(zero)
    135c:	10004004 	b	11370 <max_locks_number+0x11350>
    1360:	00000136 	tne	zero,zero,0x4
    1364:	00000a75 	0xa75
    1368:	00014111 	0x14111
    136c:	11540100 	beq	t2,s4,1770 <.debug_info+0x1770>
    1370:	0000014c 	syscall	0x5
    1374:	57115501 	bnel	t8,s1,1677c <max_locks_number+0x1675c>
    1378:	01000001 	movf	zero,t0,$fcc0
    137c:	01621156 	0x1621156
    1380:	57010000 	bnel	t8,at,1384 <.debug_info+0x1384>
    1384:	27000000 	addiu	zero,t8,0
    1388:	00049801 	movf	s3,zero,$fcc1
    138c:	016c0100 	0x16c0100
    1390:	00016e01 	0x16e01
    1394:	4004e800 	mfc0	a0,c0_taghi
    1398:	40051000 	mfc0	a1,c0_entrylo0
    139c:	00029000 	sll	s2,v0,0x0
    13a0:	000a8800 	sll	s1,t2,0x0
    13a4:	000c3900 	sll	a3,t4,0x4
    13a8:	001e2800 	sll	a1,s8,0x0
    13ac:	6b010000 	0x6b010000
    13b0:	00016e01 	0x16e01
    13b4:	2c540100 	sltiu	s4,v0,256
    13b8:	000004a2 	0x4a2
    13bc:	dc016b01 	ldc3	$1,27393(zero)
    13c0:	a7000009 	sh	zero,9(t8)
    13c4:	2a00000a 	slti	zero,s0,10
    13c8:	000000ed 	0xed
    13cc:	000001e0 	0x1e0
    13d0:	13016d01 	beq	t8,at,1c7d8 <max_locks_number+0x1c7b8>
    13d4:	000001e1 	0x1e1
    13d8:	0001d813 	0x1d813
    13dc:	01cf1300 	0x1cf1300
    13e0:	c6130000 	lwc1	$f19,0(s0)
    13e4:	13000001 	beqz	t8,13ec <.debug_info+0x13ec>
    13e8:	000001bd 	0x1bd
    13ec:	0001f822 	neg	ra,at
    13f0:	01361000 	0x1361000
    13f4:	0aba0000 	j	ae80000 <main+0xaa7f49c>
    13f8:	41110000 	0x41110000
    13fc:	01000001 	movf	zero,t0,$fcc0
    1400:	014c1154 	0x14c1154
    1404:	55010000 	bnel	t0,at,1408 <.debug_info+0x1408>
    1408:	00015711 	0x15711
    140c:	11560100 	beq	t2,s6,1810 <.debug_info+0x1810>
    1410:	00000162 	0x162
    1414:	00005701 	0x5701
    1418:	6b012700 	0x6b012700
    141c:	01000003 	0x1000003
    1420:	6e01017d 	0x6e01017d
    1424:	10000001 	b	142c <.debug_info+0x142c>
    1428:	3c004005 	lui	zero,0x4005
    142c:	a8004005 	swl	zero,16389(zero)
    1430:	cd000002 	pref	0x0,2(t0)
    1434:	bd00000a 	cache	0x0,10(t0)
    1438:	2900000c 	slti	zero,t0,12
    143c:	006c6176 	tne	v1,t4,0x185
    1440:	6e017c01 	0x6e017c01
    1444:	ec000001 	swc3	$0,1(zero)
    1448:	2a00000a 	slti	zero,s0,10
    144c:	000000ed 	0xed
    1450:	00000210 	0x210
    1454:	13017e01 	beq	t8,at,20c5c <max_locks_number+0x20c3c>
    1458:	000001e1 	0x1e1
    145c:	0001d813 	0x1d813
    1460:	01cf1300 	0x1cf1300
    1464:	c6130000 	lwc1	$f19,0(s0)
    1468:	13000001 	beqz	t8,1470 <.debug_info+0x1470>
    146c:	000001bd 	0x1bd
    1470:	00022822 	neg	a1,v0
    1474:	01361000 	0x1361000
    1478:	0aff0000 	j	bfc0000 <main+0xbbbf49c>
    147c:	41110000 	0x41110000
    1480:	01000001 	movf	zero,t0,$fcc0
    1484:	014c1154 	0x14c1154
    1488:	55010000 	bnel	t0,at,148c <.debug_info+0x148c>
    148c:	00015711 	0x15711
    1490:	11560100 	beq	t2,s6,1894 <.debug_info+0x1894>
    1494:	00000162 	0x162
    1498:	00005701 	0x5701
    149c:	77012700 	jalx	c049c00 <main+0xbc4909c>
    14a0:	01000003 	0x1000003
    14a4:	6e010188 	0x6e010188
    14a8:	3c000001 	lui	zero,0x1
    14ac:	68004005 	0x68004005
    14b0:	c0004005 	ll	zero,16389(zero)
    14b4:	12000002 	beqz	s0,14c0 <.debug_info+0x14c0>
    14b8:	4100000b 	bc0f	14e8 <.debug_info+0x14e8>
    14bc:	2900000d 	slti	zero,t0,13
    14c0:	006c6176 	tne	v1,t4,0x185
    14c4:	6e018701 	0x6e018701
    14c8:	31000001 	andi	zero,t0,0x1
    14cc:	2a00000b 	slti	zero,s0,11
    14d0:	000000ed 	0xed
    14d4:	00000240 	sll	zero,zero,0x9
    14d8:	13018901 	beq	t8,at,fffe38e0 <seg_icu_base+0xffe38e0>
    14dc:	000001e1 	0x1e1
    14e0:	0001d813 	0x1d813
    14e4:	01cf1300 	0x1cf1300
    14e8:	c6130000 	lwc1	$f19,0(s0)
    14ec:	13000001 	beqz	t8,14f4 <.debug_info+0x14f4>
    14f0:	000001bd 	0x1bd
    14f4:	00025822 	neg	t3,v0
    14f8:	01361000 	0x1361000
    14fc:	0b440000 	j	d100000 <main+0xccff49c>
    1500:	41110000 	0x41110000
    1504:	01000001 	movf	zero,t0,$fcc0
    1508:	014c1154 	0x14c1154
    150c:	55010000 	bnel	t0,at,1510 <.debug_info+0x1510>
    1510:	00015711 	0x15711
    1514:	11560100 	beq	t2,s6,1918 <.debug_info+0x1918>
    1518:	00000162 	0x162
    151c:	00005701 	0x5701
    1520:	d7012700 	ldc1	$f1,9984(t8)
    1524:	01000005 	0x1000005
    1528:	6e010193 	0x6e010193
    152c:	68000001 	0x68000001
    1530:	94004005 	lhu	zero,16389(zero)
    1534:	d8004005 	ldc2	$0,16389(zero)
    1538:	57000002 	bnezl	t8,1544 <.debug_info+0x1544>
    153c:	cd00000b 	pref	0x0,11(t0)
    1540:	2900000d 	slti	zero,t0,13
    1544:	006c6176 	tne	v1,t4,0x185
    1548:	6e019201 	0x6e019201
    154c:	76000001 	jalx	8000004 <main+0x7bff4a0>
    1550:	2b00000b 	slti	zero,t8,11
    1554:	000000ed 	0xed
    1558:	00400570 	tge	v0,zero,0x15
    155c:	00400588 	0x400588
    1560:	13019401 	beq	t8,at,fffe6568 <seg_icu_base+0xffe6568>
    1564:	000001e1 	0x1e1
    1568:	0001d813 	0x1d813
    156c:	01cf1300 	0x1cf1300
    1570:	c6130000 	lwc1	$f19,0(s0)
    1574:	13000001 	beqz	t8,157c <.debug_info+0x157c>
    1578:	000001bd 	0x1bd
    157c:	40057014 	0x40057014
    1580:	40058800 	mfc0	a1,c0_lladdr
    1584:	01361000 	0x1361000
    1588:	0b890000 	j	e240000 <main+0xde3f49c>
    158c:	41110000 	0x41110000
    1590:	01000001 	movf	zero,t0,$fcc0
    1594:	014c1154 	0x14c1154
    1598:	55010000 	bnel	t0,at,159c <.debug_info+0x159c>
    159c:	00015711 	0x15711
    15a0:	11560100 	beq	t2,s6,19a4 <.debug_info+0x19a4>
    15a4:	00000162 	0x162
    15a8:	00005701 	0x5701
    15ac:	ff012700 	sdc3	$1,9984(t8)
    15b0:	01000002 	0x1000002
    15b4:	6e01019e 	0x6e01019e
    15b8:	94000001 	lhu	zero,1(zero)
    15bc:	c0004005 	ll	zero,16389(zero)
    15c0:	f0004005 	0xf0004005
    15c4:	9c000002 	0x9c000002
    15c8:	5100000b 	beqzl	t0,15f8 <.debug_info+0x15f8>
    15cc:	2900000e 	slti	zero,t0,14
    15d0:	006c6176 	tne	v1,t4,0x185
    15d4:	dc019d01 	ldc3	$1,-25343(zero)
    15d8:	bb000009 	swr	zero,9(t8)
    15dc:	2a00000b 	slti	zero,s0,11
    15e0:	000000ed 	0xed
    15e4:	00000270 	tge	zero,zero,0x9
    15e8:	13019f01 	beq	t8,at,fffe91f0 <seg_icu_base+0xffe91f0>
    15ec:	000001e1 	0x1e1
    15f0:	0001d813 	0x1d813
    15f4:	01cf1300 	0x1cf1300
    15f8:	c6130000 	lwc1	$f19,0(s0)
    15fc:	13000001 	beqz	t8,1604 <.debug_info+0x1604>
    1600:	000001bd 	0x1bd
    1604:	00028822 	neg	s1,v0
    1608:	01361000 	0x1361000
    160c:	0bce0000 	j	f380000 <main+0xef7f49c>
    1610:	41110000 	0x41110000
    1614:	01000001 	movf	zero,t0,$fcc0
    1618:	014c1154 	0x14c1154
    161c:	55010000 	bnel	t0,at,1620 <.debug_info+0x1620>
    1620:	00015711 	0x15711
    1624:	11560100 	beq	t2,s6,1a28 <.debug_info+0x1a28>
    1628:	00000162 	0x162
    162c:	00005701 	0x5701
    1630:	6a012700 	0x6a012700
    1634:	01000005 	0x1000005
    1638:	6e0101a9 	0x6e0101a9
    163c:	c0000001 	ll	zero,1(zero)
    1640:	ec004005 	swc3	$0,16389(zero)
    1644:	08004005 	j	10014 <max_locks_number+0xfff4>
    1648:	e1000003 	sc	zero,3(t0)
    164c:	d500000b 	ldc1	$f0,11(t0)
    1650:	2900000e 	slti	zero,t0,14
    1654:	006c6176 	tne	v1,t4,0x185
    1658:	dc01a801 	ldc3	$1,-22527(zero)
    165c:	00000009 	jalr	zero,zero
    1660:	2a00000c 	slti	zero,s0,12
    1664:	000000ed 	0xed
    1668:	000002a0 	0x2a0
    166c:	1301aa01 	beq	t8,at,fffebe74 <seg_icu_base+0xffebe74>
    1670:	000001e1 	0x1e1
    1674:	0001d813 	0x1d813
    1678:	01cf1300 	0x1cf1300
    167c:	c6130000 	lwc1	$f19,0(s0)
    1680:	13000001 	beqz	t8,1688 <.debug_info+0x1688>
    1684:	000001bd 	0x1bd
    1688:	0002b822 	neg	s7,v0
    168c:	01361000 	0x1361000
    1690:	0c130000 	jal	4c0000 <main+0xbf49c>
    1694:	41110000 	0x41110000
    1698:	01000001 	movf	zero,t0,$fcc0
    169c:	014c1154 	0x14c1154
    16a0:	55010000 	bnel	t0,at,16a4 <.debug_info+0x16a4>
    16a4:	00015711 	0x15711
    16a8:	11560100 	beq	t2,s6,1aac <.debug_info+0x1aac>
    16ac:	00000162 	0x162
    16b0:	00005701 	0x5701
    16b4:	9c012700 	0x9c012700
    16b8:	01000003 	0x1000003
    16bc:	6e0101b9 	0x6e0101b9
    16c0:	ec000001 	swc3	$0,1(zero)
    16c4:	18004005 	blez	zero,116dc <max_locks_number+0x116bc>
    16c8:	20004006 	addi	zero,zero,16390
    16cc:	26000003 	addiu	zero,s0,3
    16d0:	5900000c 	blezl	t0,1704 <.debug_info+0x1704>
    16d4:	2900000f 	slti	zero,t0,15
    16d8:	006c6176 	tne	v1,t4,0x185
    16dc:	6e01b801 	0x6e01b801
    16e0:	45000001 	bc1f	16e8 <.debug_info+0x16e8>
    16e4:	2a00000c 	slti	zero,s0,12
    16e8:	000000ed 	0xed
    16ec:	000002d0 	0x2d0
    16f0:	1301ba01 	beq	t8,at,fffefef8 <seg_icu_base+0xffefef8>
    16f4:	000001e1 	0x1e1
    16f8:	0001d813 	0x1d813
    16fc:	01cf1300 	0x1cf1300
    1700:	c6130000 	lwc1	$f19,0(s0)
    1704:	13000001 	beqz	t8,170c <.debug_info+0x170c>
    1708:	000001bd 	0x1bd
    170c:	0002e822 	neg	sp,v0
    1710:	01361000 	0x1361000
    1714:	0c580000 	jal	1600000 <main+0x11ff49c>
    1718:	41110000 	0x41110000
    171c:	01000001 	movf	zero,t0,$fcc0
    1720:	014c1154 	0x14c1154
    1724:	55010000 	bnel	t0,at,1728 <.debug_info+0x1728>
    1728:	00015711 	0x15711
    172c:	11560100 	beq	t2,s6,1b30 <.debug_info+0x1b30>
    1730:	00000162 	0x162
    1734:	00005701 	0x5701
    1738:	e8012700 	swc2	$1,9984(zero)
    173c:	01000004 	sllv	zero,zero,t0
    1740:	6e0101c5 	0x6e0101c5
    1744:	18000001 	blez	zero,174c <.debug_info+0x174c>
    1748:	44004006 	0x44004006
    174c:	38004006 	xori	zero,zero,0x4006
    1750:	6b000003 	0x6b000003
    1754:	dd00000c 	ldc3	$0,12(t0)
    1758:	2900000f 	slti	zero,t0,15
    175c:	006c6176 	tne	v1,t4,0x185
    1760:	6e01c401 	0x6e01c401
    1764:	8a000001 	lwl	zero,1(s0)
    1768:	2a00000c 	slti	zero,s0,12
    176c:	000000ed 	0xed
    1770:	00000300 	sll	zero,zero,0xc
    1774:	1301c601 	beq	t8,at,ffff2f7c <seg_icu_base+0xfff2f7c>
    1778:	000001e1 	0x1e1
    177c:	0001d813 	0x1d813
    1780:	01cf1300 	0x1cf1300
    1784:	c6130000 	lwc1	$f19,0(s0)
    1788:	13000001 	beqz	t8,1790 <.debug_info+0x1790>
    178c:	000001bd 	0x1bd
    1790:	00031822 	neg	v1,v1
    1794:	01361000 	0x1361000
    1798:	0c9d0000 	jal	2740000 <main+0x233f49c>
    179c:	41110000 	0x41110000
    17a0:	01000001 	movf	zero,t0,$fcc0
    17a4:	014c1154 	0x14c1154
    17a8:	55010000 	bnel	t0,at,17ac <.debug_info+0x17ac>
    17ac:	00015711 	0x15711
    17b0:	11560100 	beq	t2,s6,1bb4 <.debug_info+0x1bb4>
    17b4:	00000162 	0x162
    17b8:	00005701 	0x5701
    17bc:	17012700 	bne	t8,at,b3c0 <max_locks_number+0xb3a0>
    17c0:	01000003 	0x1000003
    17c4:	6e0101d0 	0x6e0101d0
    17c8:	44000001 	0x44000001
    17cc:	70004006 	0x70004006
    17d0:	50004006 	beqzl	zero,117ec <max_locks_number+0x117cc>
    17d4:	b0000003 	0xb0000003
    17d8:	6100000c 	0x6100000c
    17dc:	2c000010 	sltiu	zero,zero,16
    17e0:	0000020d 	break	0x0,0x8
    17e4:	dc01cf01 	ldc3	$1,-12543(zero)
    17e8:	cf000009 	pref	0x0,9(t8)
    17ec:	2a00000c 	slti	zero,s0,12
    17f0:	000000ed 	0xed
    17f4:	00000330 	tge	zero,zero,0xc
    17f8:	1301d101 	beq	t8,at,ffff5c00 <seg_icu_base+0xfff5c00>
    17fc:	000001e1 	0x1e1
    1800:	0001d813 	0x1d813
    1804:	01cf1300 	0x1cf1300
    1808:	c6130000 	lwc1	$f19,0(s0)
    180c:	13000001 	beqz	t8,1814 <.debug_info+0x1814>
    1810:	000001bd 	0x1bd
    1814:	00034822 	neg	t1,v1
    1818:	01361000 	0x1361000
    181c:	0ce20000 	jal	3880000 <main+0x347f49c>
    1820:	41110000 	0x41110000
    1824:	01000001 	movf	zero,t0,$fcc0
    1828:	014c1154 	0x14c1154
    182c:	55010000 	bnel	t0,at,1830 <.debug_info+0x1830>
    1830:	00015711 	0x15711
    1834:	11560100 	beq	t2,s6,1c38 <.debug_info+0x1c38>
    1838:	00000162 	0x162
    183c:	00005701 	0x5701
    1840:	5e012700 	0x5e012700
    1844:	01000003 	0x1000003
    1848:	6e0101db 	0x6e0101db
    184c:	70000001 	maddu	zero,zero
    1850:	9c004006 	0x9c004006
    1854:	68004006 	0x68004006
    1858:	f5000003 	sdc1	$f0,3(t0)
    185c:	e500000c 	swc1	$f0,12(t0)
    1860:	2c000010 	sltiu	zero,zero,16
    1864:	0000020d 	break	0x0,0x8
    1868:	dc01da01 	ldc3	$1,-9727(zero)
    186c:	14000009 	bnez	zero,1894 <.debug_info+0x1894>
    1870:	2a00000d 	slti	zero,s0,13
    1874:	000000ed 	0xed
    1878:	00000360 	0x360
    187c:	1301dc01 	beq	t8,at,ffff8884 <seg_icu_base+0xfff8884>
    1880:	000001e1 	0x1e1
    1884:	0001d813 	0x1d813
    1888:	01cf1300 	0x1cf1300
    188c:	c6130000 	lwc1	$f19,0(s0)
    1890:	13000001 	beqz	t8,1898 <.debug_info+0x1898>
    1894:	000001bd 	0x1bd
    1898:	00037822 	neg	t7,v1
    189c:	01361000 	0x1361000
    18a0:	0d270000 	jal	49c0000 <main+0x45bf49c>
    18a4:	41110000 	0x41110000
    18a8:	01000001 	movf	zero,t0,$fcc0
    18ac:	014c1154 	0x14c1154
    18b0:	55010000 	bnel	t0,at,18b4 <.debug_info+0x18b4>
    18b4:	00015711 	0x15711
    18b8:	11560100 	beq	t2,s6,1cbc <.debug_info+0x1cbc>
    18bc:	00000162 	0x162
    18c0:	00005701 	0x5701
    18c4:	de012700 	ldc3	$1,9984(s0)
    18c8:	01000003 	0x1000003
    18cc:	6e0101e7 	0x6e0101e7
    18d0:	9c000001 	0x9c000001
    18d4:	c8004006 	lwc2	$0,16390(zero)
    18d8:	80004006 	lb	zero,16390(zero)
    18dc:	3a000003 	xori	zero,s0,0x3
    18e0:	6900000d 	0x6900000d
    18e4:	2c000011 	sltiu	zero,zero,17
    18e8:	0000020d 	break	0x0,0x8
    18ec:	dc01e601 	ldc3	$1,-6655(zero)
    18f0:	59000009 	blezl	t0,1918 <.debug_info+0x1918>
    18f4:	2a00000d 	slti	zero,s0,13
    18f8:	000000ed 	0xed
    18fc:	00000390 	0x390
    1900:	1301e801 	beq	t8,at,ffffb908 <seg_icu_base+0xfffb908>
    1904:	000001e1 	0x1e1
    1908:	0001d813 	0x1d813
    190c:	01cf1300 	0x1cf1300
    1910:	c6130000 	lwc1	$f19,0(s0)
    1914:	13000001 	beqz	t8,191c <.debug_info+0x191c>
    1918:	000001bd 	0x1bd
    191c:	0003a822 	neg	s5,v1
    1920:	01361000 	0x1361000
    1924:	0d6c0000 	jal	5b00000 <main+0x56ff49c>
    1928:	41110000 	0x41110000
    192c:	01000001 	movf	zero,t0,$fcc0
    1930:	014c1154 	0x14c1154
    1934:	55010000 	bnel	t0,at,1938 <.debug_info+0x1938>
    1938:	00015711 	0x15711
    193c:	11560100 	beq	t2,s6,1d40 <.debug_info+0x1d40>
    1940:	00000162 	0x162
    1944:	00005701 	0x5701
    1948:	3f012700 	0x3f012700
    194c:	01000004 	sllv	zero,zero,t0
    1950:	6e0101f7 	0x6e0101f7
    1954:	c8000001 	lwc2	$0,1(zero)
    1958:	f4004006 	sdc1	$f0,16390(zero)
    195c:	98004006 	lwr	zero,16390(zero)
    1960:	7f000003 	0x7f000003
    1964:	eb00000d 	swc2	$0,13(t8)
    1968:	29000011 	slti	zero,t0,17
    196c:	f6010070 	sdc1	$f1,112(s0)
    1970:	0011eb01 	0x11eb01
    1974:	000d9e00 	sll	s3,t5,0x18
    1978:	00ed2a00 	0xed2a00
    197c:	03c00000 	0x3c00000
    1980:	f8010000 	sdc2	$1,0(zero)
    1984:	01e11301 	0x1e11301
    1988:	d8130000 	ldc2	$19,0(zero)
    198c:	13000001 	beqz	t8,1994 <.debug_info+0x1994>
    1990:	000001cf 	0x1cf
    1994:	0001c613 	0x1c613
    1998:	01bd1300 	0x1bd1300
    199c:	d8220000 	ldc2	$2,0(at)
    19a0:	10000003 	b	19b0 <.debug_info+0x19b0>
    19a4:	00000136 	tne	zero,zero,0x4
    19a8:	00000db1 	tgeu	zero,zero,0x36
    19ac:	00014111 	0x14111
    19b0:	11540100 	beq	t2,s4,1db4 <.debug_info+0x1db4>
    19b4:	0000014c 	syscall	0x5
    19b8:	57115501 	bnel	t8,s1,16dc0 <max_locks_number+0x16da0>
    19bc:	01000001 	movf	zero,t0,$fcc0
    19c0:	01621156 	0x1621156
    19c4:	57010000 	bnel	t8,at,19c8 <.debug_info+0x19c8>
    19c8:	2d000000 	sltiu	zero,t0,0
    19cc:	ec012704 	swc3	$1,9988(zero)
    19d0:	01000003 	0x1000003
    19d4:	6e010202 	0x6e010202
    19d8:	f4000001 	sdc1	$f0,1(zero)
    19dc:	20004006 	addi	zero,zero,16390
    19e0:	b0004007 	0xb0004007
    19e4:	c4000003 	lwc1	$f0,3(zero)
    19e8:	6f00000d 	0x6f00000d
    19ec:	29000012 	slti	zero,t0,18
    19f0:	01010070 	tge	t0,at,0x1
    19f4:	0011eb02 	srl	sp,s1,0xc
    19f8:	000de300 	sll	gp,t5,0xc
    19fc:	00ed2a00 	0xed2a00
    1a00:	03f00000 	0x3f00000
    1a04:	03010000 	0x3010000
    1a08:	01e11302 	0x1e11302
    1a0c:	d8130000 	ldc2	$19,0(zero)
    1a10:	13000001 	beqz	t8,1a18 <.debug_info+0x1a18>
    1a14:	000001cf 	0x1cf
    1a18:	0001c613 	0x1c613
    1a1c:	01bd1300 	0x1bd1300
    1a20:	08220000 	j	880000 <main+0x47f49c>
    1a24:	10000004 	b	1a38 <.debug_info+0x1a38>
    1a28:	00000136 	tne	zero,zero,0x4
    1a2c:	00000df6 	tne	zero,zero,0x37
    1a30:	00014111 	0x14111
    1a34:	11540100 	beq	t2,s4,1e38 <.debug_info+0x1e38>
    1a38:	0000014c 	syscall	0x5
    1a3c:	57115501 	bnel	t8,s1,16e44 <max_locks_number+0x16e24>
    1a40:	01000001 	movf	zero,t0,$fcc0
    1a44:	01621156 	0x1621156
    1a48:	57010000 	bnel	t8,at,1a4c <.debug_info+0x1a4c>
    1a4c:	27000000 	addiu	zero,t8,0
    1a50:	00034f01 	0x34f01
    1a54:	020d0100 	0x20d0100
    1a58:	00016e01 	0x16e01
    1a5c:	40072000 	mfc0	a3,c0_context
    1a60:	40074c00 	0x40074c00
    1a64:	0003c800 	sll	t9,v1,0x0
    1a68:	000e0900 	sll	at,t6,0x4
    1a6c:	0012f300 	sll	s8,s2,0xc
    1a70:	61762900 	0x61762900
    1a74:	0c01006c 	jal	401b0 <max_locks_number+0x40190>
    1a78:	00016e02 	srl	t5,at,0x18
    1a7c:	000e2800 	sll	a1,t6,0x0
    1a80:	00ed2a00 	0xed2a00
    1a84:	04200000 	bltz	at,1a88 <.debug_info+0x1a88>
    1a88:	0e010000 	jal	8040000 <main+0x7c3f49c>
    1a8c:	01e11302 	0x1e11302
    1a90:	d8130000 	ldc2	$19,0(zero)
    1a94:	13000001 	beqz	t8,1a9c <.debug_info+0x1a9c>
    1a98:	000001cf 	0x1cf
    1a9c:	0001c613 	0x1c613
    1aa0:	01bd1300 	0x1bd1300
    1aa4:	38220000 	xori	v0,at,0x0
    1aa8:	10000004 	b	1abc <.debug_info+0x1abc>
    1aac:	00000136 	tne	zero,zero,0x4
    1ab0:	00000e3b 	0xe3b
    1ab4:	00014111 	0x14111
    1ab8:	11540100 	beq	t2,s4,1ebc <.debug_info+0x1ebc>
    1abc:	0000014c 	syscall	0x5
    1ac0:	57115501 	bnel	t8,s1,16ec8 <max_locks_number+0x16ea8>
    1ac4:	01000001 	movf	zero,t0,$fcc0
    1ac8:	01621156 	0x1621156
    1acc:	57010000 	bnel	t8,at,1ad0 <.debug_info+0x1ad0>
    1ad0:	2e000000 	sltiu	zero,s0,0
    1ad4:	00043501 	0x43501
    1ad8:	02180100 	0x2180100
    1adc:	0000016e 	0x16e
    1ae0:	0040074c 	syscall	0x1001d
    1ae4:	00400778 	0x400778
    1ae8:	000003e0 	0x3e0
    1aec:	00000e4e 	0xe4e
    1af0:	0000136e 	0x136e
    1af4:	0000ed2b 	0xed2b
    1af8:	40075400 	0x40075400
    1afc:	40076c00 	0x40076c00
    1b00:	02190100 	0x2190100
    1b04:	0001e113 	0x1e113
    1b08:	01d81300 	0x1d81300
    1b0c:	cf130000 	pref	0x13,0(t8)
    1b10:	13000001 	beqz	t8,1b18 <.debug_info+0x1b18>
    1b14:	000001c6 	0x1c6
    1b18:	0001bd13 	0x1bd13
    1b1c:	07541400 	0x7541400
    1b20:	076c0040 	teqi	k1,64
    1b24:	36100040 	ori	s0,s0,0x40
    1b28:	6d000001 	0x6d000001
    1b2c:	1100000e 	beqz	t0,1b68 <.debug_info+0x1b68>
    1b30:	00000141 	0x141
    1b34:	4c115401 	0x4c115401
    1b38:	01000001 	movf	zero,t0,$fcc0
    1b3c:	01571155 	0x1571155
    1b40:	56010000 	bnel	s0,at,1b44 <.debug_info+0x1b44>
    1b44:	00016211 	0x16211
    1b48:	00570100 	0x570100
    1b4c:	01270000 	0x1270000
    1b50:	00000474 	teq	zero,zero,0x11
    1b54:	01022b01 	0x1022b01
    1b58:	0000016e 	0x16e
    1b5c:	00400778 	0x400778
    1b60:	004007a0 	0x4007a0
    1b64:	000003f8 	0x3f8
    1b68:	00000e80 	sll	at,zero,0x1a
    1b6c:	000013f8 	0x13f8
    1b70:	00004428 	0x4428
    1b74:	022a0100 	0x22a0100
    1b78:	0000016e 	0x16e
    1b7c:	ed2b5401 	swc3	$11,21505(t1)
    1b80:	80000000 	lb	zero,0(zero)
    1b84:	94004007 	lhu	zero,16391(zero)
    1b88:	01004007 	srav	t0,zero,t0
    1b8c:	e113022c 	sc	s3,556(t0)
    1b90:	13000001 	beqz	t8,1b98 <.debug_info+0x1b98>
    1b94:	000001d8 	0x1d8
    1b98:	0001cf13 	0x1cf13
    1b9c:	01c61300 	0x1c61300
    1ba0:	bd130000 	cache	0x13,0(t0)
    1ba4:	14000001 	bnez	zero,1bac <.debug_info+0x1bac>
    1ba8:	00400780 	0x400780
    1bac:	00400794 	0x400794
    1bb0:	00013610 	0x13610
    1bb4:	000e9f00 	sll	s3,t6,0x1c
    1bb8:	01411100 	0x1411100
    1bbc:	54010000 	bnel	zero,at,1bc0 <.debug_info+0x1bc0>
    1bc0:	00014c11 	0x14c11
    1bc4:	11550100 	beq	t2,s5,1fc8 <.debug_info+0x1fc8>
    1bc8:	00000157 	0x157
    1bcc:	62115601 	0x62115601
    1bd0:	01000001 	movf	zero,t0,$fcc0
    1bd4:	00000057 	0x57
    1bd8:	04b50127 	0x4b50127
    1bdc:	37010000 	ori	at,t8,0x0
    1be0:	016e0102 	0x16e0102
    1be4:	07a00000 	bltz	sp,1be8 <.debug_info+0x1be8>
    1be8:	07c80040 	tgei	s8,64
    1bec:	04100040 	bltzal	zero,1cf0 <.debug_info+0x1cf0>
    1bf0:	0eb20000 	jal	ac80000 <main+0xa87f49c>
    1bf4:	14820000 	bne	a0,v0,1bf8 <.debug_info+0x1bf8>
    1bf8:	44280000 	0x44280000
    1bfc:	01000000 	0x1000000
    1c00:	016e0236 	tne	t3,t6,0x8
    1c04:	54010000 	bnel	zero,at,1c08 <.debug_info+0x1c08>
    1c08:	0000ed2b 	0xed2b
    1c0c:	4007a800 	mfc0	a3,$21
    1c10:	4007bc00 	0x4007bc00
    1c14:	02380100 	0x2380100
    1c18:	0001e113 	0x1e113
    1c1c:	01d81300 	0x1d81300
    1c20:	cf130000 	pref	0x13,0(t8)
    1c24:	13000001 	beqz	t8,1c2c <.debug_info+0x1c2c>
    1c28:	000001c6 	0x1c6
    1c2c:	0001bd13 	0x1bd13
    1c30:	07a81400 	tgei	sp,5120
    1c34:	07bc0040 	0x7bc0040
    1c38:	36100040 	ori	s0,s0,0x40
    1c3c:	d1000001 	0xd1000001
    1c40:	1100000e 	beqz	t0,1c7c <.debug_info+0x1c7c>
    1c44:	00000141 	0x141
    1c48:	4c115401 	0x4c115401
    1c4c:	01000001 	movf	zero,t0,$fcc0
    1c50:	01571155 	0x1571155
    1c54:	56010000 	bnel	s0,at,1c58 <.debug_info+0x1c58>
    1c58:	00016211 	0x16211
    1c5c:	00570100 	0x570100
    1c60:	012e0000 	0x12e0000
    1c64:	0000055d 	0x55d
    1c68:	6e024101 	0x6e024101
    1c6c:	c8000001 	lwc2	$0,1(zero)
    1c70:	20004007 	addi	zero,zero,16391
    1c74:	28004008 	slti	zero,zero,16392
    1c78:	e4000004 	swc1	$f0,4(zero)
    1c7c:	f000000e 	0xf000000e
    1c80:	2f000014 	sltiu	zero,t8,20
    1c84:	42010078 	c0	0x10078
    1c88:	00016e02 	srl	t5,at,0x18
    1c8c:	2b530100 	slti	s3,k0,256
    1c90:	000000ed 	0xed
    1c94:	004007d0 	0x4007d0
    1c98:	004007ec 	0x4007ec
    1c9c:	14024301 	bne	zero,v0,128a4 <max_locks_number+0x12884>
    1ca0:	004007d0 	0x4007d0
    1ca4:	004007ec 	0x4007ec
    1ca8:	00013610 	0x13610
    1cac:	000f0300 	sll	zero,t7,0xc
    1cb0:	01411100 	0x1411100
    1cb4:	54010000 	bnel	zero,at,1cb8 <.debug_info+0x1cb8>
    1cb8:	00014c11 	0x14c11
    1cbc:	11550100 	beq	t2,s5,20c0 <.debug_info+0x20c0>
    1cc0:	00000157 	0x157
    1cc4:	62115601 	0x62115601
    1cc8:	01000001 	movf	zero,t0,$fcc0
    1ccc:	00000057 	0x57
    1cd0:	05490118 	tgeiu	t2,280
    1cd4:	eb010000 	swc2	$1,0(t8)
    1cd8:	00016e01 	0x16e01
    1cdc:	40082000 	mfc0	t0,c0_context
    1ce0:	400b6400 	0x400b6400
    1ce4:	00044000 	sll	t0,a0,0x0
    1ce8:	000f1600 	sll	v0,t7,0x18
    1cec:	00186b00 	sll	t5,t8,0xc
    1cf0:	04191900 	0x4191900
    1cf4:	ea010000 	swc2	$1,0(s0)
    1cf8:	000004d7 	0x4d7
    1cfc:	00000f36 	tne	zero,zero,0x3c
    1d00:	70611e30 	0x70611e30
    1d04:	36ec0100 	ori	t4,s7,0x100
    1d08:	02000000 	0x2000000
    1d0c:	c231008d 	ll	s1,141(s1)
    1d10:	01000004 	sllv	zero,zero,t0
    1d14:	b3320139 	0xb3320139
    1d18:	01000005 	0x1000005
    1d1c:	09440105 	j	5100414 <main+0x4cff8b0>
    1d20:	50330040 	beql	at,s3,1e24 <.debug_info+0x1e24>
    1d24:	9f000004 	0x9f000004
    1d28:	34000017 	li	zero,0x17
    1d2c:	006c6176 	tne	v1,t4,0x185
    1d30:	6e010801 	0x6e010801
    1d34:	0f000001 	jal	c000004 <main+0xbbff4a0>
    1d38:	2f000010 	sltiu	zero,t8,16
    1d3c:	00667562 	0x667562
    1d40:	6b010901 	0x6b010901
    1d44:	02000018 	mult	s0,zero
    1d48:	20354491 	addi	s5,at,17553
    1d4c:	01000004 	sllv	zero,zero,t0
    1d50:	04d7010a 	0x4d7010a
    1d54:	109b0000 	beq	a0,k1,1d58 <.debug_info+0x1d58>
    1d58:	6c340000 	0x6c340000
    1d5c:	01006e65 	0x1006e65
    1d60:	187b010b 	0x187b010b
    1d64:	10e50000 	beq	a3,a1,1d68 <.debug_info+0x1d68>
    1d68:	69340000 	0x69340000
    1d6c:	010d0100 	0x10d0100
    1d70:	0000187b 	0x187b
    1d74:	00001103 	sra	v0,zero,0x4
    1d78:	0000ed36 	tne	zero,zero,0x3b4
    1d7c:	00047800 	sll	t7,a0,0x0
    1d80:	01260100 	0x1260100
    1d84:	000015dc 	0x15dc
    1d88:	00049822 	neg	s3,a0
    1d8c:	01361000 	0x1361000
    1d90:	11370000 	beq	t1,s7,1d94 <.debug_info+0x1d94>
    1d94:	41100000 	0x41100000
    1d98:	55000001 	bnezl	t0,1da0 <.debug_info+0x1da0>
    1d9c:	10000011 	b	1de4 <.debug_info+0x1de4>
    1da0:	0000014c 	syscall	0x5
    1da4:	00001173 	tltu	zero,zero,0x45
    1da8:	00015710 	0x15710
    1dac:	0011bd00 	sll	s7,s1,0x14
    1db0:	01621000 	0x1621000
    1db4:	11db0000 	beq	t6,k1,1db8 <.debug_info+0x1db8>
    1db8:	00000000 	nop
    1dbc:	00017537 	0x17537
    1dc0:	40098c00 	0x40098c00
    1dc4:	4009a000 	mfc0	t1,c0_xcontext
    1dc8:	01180100 	0x1180100
    1dcc:	00001638 	0x1638
    1dd0:	0000ed12 	0xed12
    1dd4:	40098c00 	0x40098c00
    1dd8:	4009a000 	mfc0	t1,c0_xcontext
    1ddc:	14420100 	bne	v0,v0,21e0 <max_locks_number+0x21c0>
    1de0:	0040098c 	syscall	0x10026
    1de4:	004009a0 	0x4009a0
    1de8:	00013610 	0x13610
    1dec:	0011ee00 	sll	sp,s1,0x18
    1df0:	01411000 	0x1411000
    1df4:	12010000 	beq	s0,at,1df8 <.debug_info+0x1df8>
    1df8:	4c100000 	mfc3	s0,$0
    1dfc:	14000001 	bnez	zero,1e04 <.debug_info+0x1e04>
    1e00:	10000012 	b	1e4c <.debug_info+0x1e4c>
    1e04:	00000157 	0x157
    1e08:	00001227 	0x1227
    1e0c:	00016210 	0x16210
    1e10:	00123a00 	sll	a3,s2,0x8
    1e14:	00000000 	nop
    1e18:	0000ed37 	0xed37
    1e1c:	4009a000 	mfc0	t1,c0_xcontext
    1e20:	4009c000 	mfc0	t1,c0_depc
    1e24:	01180100 	0x1180100
    1e28:	00001684 	0x1684
    1e2c:	4009a014 	0x4009a014
    1e30:	4009c000 	mfc0	t1,c0_depc
    1e34:	01361000 	0x1361000
    1e38:	124d0000 	beq	s2,t5,1e3c <.debug_info+0x1e3c>
    1e3c:	41100000 	0x41100000
    1e40:	60000001 	0x60000001
    1e44:	10000012 	b	1e90 <.debug_info+0x1e90>
    1e48:	0000014c 	syscall	0x5
    1e4c:	00001273 	tltu	zero,zero,0x49
    1e50:	00015710 	0x15710
    1e54:	00128600 	sll	s0,s2,0x18
    1e58:	01621000 	0x1621000
    1e5c:	12990000 	beq	s4,t9,1e60 <.debug_info+0x1e60>
    1e60:	00000000 	nop
    1e64:	00017537 	0x17537
    1e68:	400a1800 	mfc0	t2,c0_entrylo1
    1e6c:	400a3000 	mfc0	t2,c0_wired
    1e70:	013c0100 	0x13c0100
    1e74:	000016e0 	0x16e0
    1e78:	0000ed12 	0xed12
    1e7c:	400a1800 	mfc0	t2,c0_entrylo1
    1e80:	400a3000 	mfc0	t2,c0_wired
    1e84:	14420100 	bne	v0,v0,2288 <max_locks_number+0x2268>
    1e88:	00400a18 	0x400a18
    1e8c:	00400a30 	tge	v0,zero,0x28
    1e90:	00013610 	0x13610
    1e94:	0012ac00 	sll	s5,s2,0x10
    1e98:	01411000 	0x1411000
    1e9c:	12bf0000 	beq	s5,ra,1ea0 <.debug_info+0x1ea0>
    1ea0:	4c100000 	mfc3	s0,$0
    1ea4:	d2000001 	0xd2000001
    1ea8:	10000012 	b	1ef4 <.debug_info+0x1ef4>
    1eac:	00000157 	0x157
    1eb0:	000012e5 	0x12e5
    1eb4:	00016210 	0x16210
    1eb8:	0012f800 	sll	ra,s2,0x0
    1ebc:	00000000 	nop
    1ec0:	0000ed37 	0xed37
    1ec4:	400a3000 	mfc0	t2,c0_wired
    1ec8:	400a4400 	0x400a4400
    1ecc:	013c0100 	0x13c0100
    1ed0:	0000172c 	0x172c
    1ed4:	400a3014 	0x400a3014
    1ed8:	400a4400 	0x400a4400
    1edc:	01361000 	0x1361000
    1ee0:	13420000 	beq	k0,v0,1ee4 <.debug_info+0x1ee4>
    1ee4:	41100000 	0x41100000
    1ee8:	6b000001 	0x6b000001
    1eec:	10000013 	b	1f3c <.debug_info+0x1f3c>
    1ef0:	0000014c 	syscall	0x5
    1ef4:	0000137e 	0x137e
    1ef8:	00015710 	0x15710
    1efc:	0013d300 	sll	k0,s3,0xc
    1f00:	01621000 	0x1621000
    1f04:	14330000 	bne	at,s3,1f08 <.debug_info+0x1f08>
    1f08:	00000000 	nop
    1f0c:	400a5038 	0x400a5038
    1f10:	400a7c00 	0x400a7c00
    1f14:	00174600 	sll	t0,s7,0x18
    1f18:	74733900 	jalx	1cce400 <main+0x18cd89c>
    1f1c:	33010072 	andi	at,t8,0x72
    1f20:	0004d701 	0x4d701
    1f24:	752b0000 	jalx	4ac0000 <main+0x46bf49c>
    1f28:	7c000001 	0x7c000001
    1f2c:	9400400a 	lhu	zero,16394(zero)
    1f30:	0100400a 	movz	t0,t0,zero
    1f34:	ed120126 	swc3	$18,294(t0)
    1f38:	7c000000 	0x7c000000
    1f3c:	9400400a 	lhu	zero,16394(zero)
    1f40:	0100400a 	movz	t0,t0,zero
    1f44:	0a7c1442 	j	9f05108 <main+0x9b045a4>
    1f48:	0a940040 	j	a500100 <main+0xa0ff59c>
    1f4c:	36100040 	ori	s0,s0,0x40
    1f50:	88000001 	lwl	zero,1(zero)
    1f54:	10000014 	b	1fa8 <.debug_info+0x1fa8>
    1f58:	00000141 	0x141
    1f5c:	0000149b 	0x149b
    1f60:	00014c10 	0x14c10
    1f64:	0014ae00 	sll	s5,s4,0x18
    1f68:	01571000 	0x1571000
    1f6c:	14c10000 	bne	a2,at,1f70 <.debug_info+0x1f70>
    1f70:	62100000 	0x62100000
    1f74:	d4000001 	ldc1	$f0,1(zero)
    1f78:	00000014 	0x14
    1f7c:	33000000 	andi	zero,t8,0x0
    1f80:	000004b8 	0x4b8
    1f84:	00001858 	0x1858
    1f88:	01006926 	0x1006926
    1f8c:	00187bf2 	tlt	zero,t8,0x1ef
    1f90:	0014e700 	sll	gp,s4,0x1c
    1f94:	00ed1700 	0xed1700
    1f98:	09240000 	j	4900000 <main+0x44ff49c>
    1f9c:	093c0040 	j	4f00100 <main+0x4aff59c>
    1fa0:	f6010040 	sdc1	$f1,64(s0)
    1fa4:	00001800 	sll	v1,zero,0x0
    1fa8:	40092414 	0x40092414
    1fac:	40093c00 	0x40093c00
    1fb0:	01361000 	0x1361000
    1fb4:	15050000 	bne	t0,a1,1fb8 <.debug_info+0x1fb8>
    1fb8:	41100000 	0x41100000
    1fbc:	2e000001 	sltiu	zero,s0,1
    1fc0:	10000015 	b	2018 <.debug_info+0x2018>
    1fc4:	0000014c 	syscall	0x5
    1fc8:	00001541 	0x1541
    1fcc:	00015710 	0x15710
    1fd0:	00159600 	sll	s2,s5,0x18
    1fd4:	01621000 	0x1621000
    1fd8:	15f60000 	bne	t7,s6,1fdc <.debug_info+0x1fdc>
    1fdc:	00000000 	nop
    1fe0:	00017512 	0x17512
    1fe4:	40091000 	mfc0	t1,c0_entrylo0
    1fe8:	40092400 	0x40092400
    1fec:	12f60100 	beq	s7,s6,23f0 <max_locks_number+0x23d0>
    1ff0:	000000ed 	0xed
    1ff4:	00400910 	0x400910
    1ff8:	00400924 	0x400924
    1ffc:	10144201 	beq	zero,s4,12804 <max_locks_number+0x127e4>
    2000:	24004009 	li	zero,16393
    2004:	10004009 	b	1202c <max_locks_number+0x1200c>
    2008:	00000136 	tne	zero,zero,0x4
    200c:	0000164b 	0x164b
    2010:	00014110 	0x14110
    2014:	00165e00 	sll	t3,s6,0x18
    2018:	014c1000 	0x14c1000
    201c:	16710000 	bne	s3,s1,2020 <.debug_info+0x2020>
    2020:	57100000 	bnel	t8,s0,2024 <.debug_info+0x2024>
    2024:	84000001 	lh	zero,1(zero)
    2028:	10000016 	b	2084 <.debug_info+0x2084>
    202c:	00000162 	0x162
    2030:	00001697 	0x1697
    2034:	00000000 	nop
    2038:	0004d73a 	0x4d73a
    203c:	010c0100 	0x10c0100
    2040:	00001892 	0x1892
    2044:	00580305 	0x580305
    2048:	23001000 	addi	zero,t8,4096
    204c:	000004dd 	0x4dd
    2050:	0000187b 	0x187b
    2054:	0006e324 	0x6e324
    2058:	1c001300 	bgtz	zero,6c5c <max_locks_number+0x6c3c>
    205c:	048b0704 	tltiu	a0,1796
    2060:	dd230000 	ldc3	$3,0(t1)
    2064:	92000004 	lbu	zero,4(s0)
    2068:	24000018 	li	zero,24
    206c:	000006e3 	0x6e3
    2070:	823b0010 	lb	k1,16(s1)
    2074:	00000018 	mult	zero,zero
    2078:	00000081 	0x81
    207c:	05f00002 	bltzal	t7,2088 <.debug_info+0x2088>
    2080:	01040000 	0x1040000
    2084:	0000024b 	0x24b
    2088:	0005e101 	0x5e101
    208c:	0000e000 	sll	gp,zero,0x0
    2090:	400b6400 	0x400b6400
    2094:	400be800 	mfc0	t3,c0_taghi
    2098:	00055f00 	sll	t3,a1,0x1c
    209c:	e8010200 	swc2	$1,512(zero)
    20a0:	01000005 	0x1000005
    20a4:	00005e05 	0x5e05
    20a8:	400b6400 	0x400b6400
    20ac:	400be800 	mfc0	t3,c0_taghi
    20b0:	00047800 	sll	t7,a0,0x0
    20b4:	0016e100 	sll	gp,s6,0x4
    20b8:	00005e00 	sll	t3,zero,0x18
    20bc:	00630300 	0x630300
    20c0:	00650601 	0x650601
    20c4:	91020000 	lbu	v0,0(t0)
    20c8:	00730358 	0x730358
    20cc:	00710701 	0x710701
    20d0:	91020000 	lbu	v0,0(t0)
    20d4:	0404005c 	0x404005c
    20d8:	746e6905 	jalx	1b9a414 <main+0x17998b0>
    20dc:	006a0500 	0x6a0500
    20e0:	01060000 	0x1060000
    20e4:	00048606 	0x48606
    20e8:	006a0700 	0x6a0700
    20ec:	00810000 	0x810000
    20f0:	81080000 	lb	t0,0(t0)
    20f4:	10000000 	b	20f8 <.debug_info+0x20f8>
    20f8:	07040900 	0x7040900
	...

Disassembly of section .debug_line:

00000000 <.debug_line>:
   0:	0000011a 	0x11a
   4:	00350002 	ror	zero,s5,0x0
   8:	01010000 	0x1010000
   c:	000d0efb 	0xd0efb
  10:	01010101 	0x1010101
  14:	01000000 	0x1000000
  18:	00010000 	sll	zero,at,0x0
  1c:	63737973 	0x63737973
  20:	736c6c61 	0x736c6c61
  24:	0000632e 	0x632e
  28:	74740000 	jalx	1d00000 <main+0x18ff49c>
  2c:	00682e79 	0x682e79
  30:	74000000 	jalx	0 <.debug_line>
  34:	72656d69 	0x72656d69
  38:	0000682e 	0x682e
  3c:	00000000 	nop
  40:	06500205 	bltzal	s2,858 <max_locks_number+0x838>
  44:	28038000 	slti	v1,zero,-32768
  48:	894c1401 	lwl	t4,5121(t2)
  4c:	178a4c14 	bne	gp,t2,130a0 <max_locks_number+0x13080>
  50:	bd7d4108 	cache	0x1d,16648(t3)
  54:	e4080a03 	swc1	$f8,2563(zero)
  58:	7d410817 	0x7d410817
  5c:	020a03bd 	0x20a03bd
  60:	08180124 	j	600490 <main+0x1ff92c>
  64:	81bb833e 	lb	k1,-31938(t5)
  68:	03864983 	0x3864983
  6c:	14038279 	bne	zero,v1,fffe0a54 <seg_icu_base+0xffe0a54>
  70:	3f081982 	0x3f081982
  74:	4f7a0881 	c3	0x17a0881
  78:	bd4a7703 	cache	0xa,30467(t2)
  7c:	760387bb 	jalx	80e1eec <main+0x7ce1388>
  80:	f20e0382 	0xf20e0382
  84:	03827803 	0x3827803
  88:	0d03f277 	jal	40fc9dc <main+0x3cfbe78>
  8c:	82760382 	lb	s6,898(s3)
  90:	03821403 	0x3821403
  94:	034a7f8f 	0x34a7f8f
  98:	034a00f6 	tne	k0,t2,0x3
  9c:	034a7f8b 	0x34a7f8b
  a0:	ee4a00f5 	swc3	$10,245(s2)
  a4:	031a4002 	0x31a4002
  a8:	09034a78 	j	40d29e0 <main+0x3cd1e7c>
  ac:	4a46034a 	c2	0x46034a
  b0:	524a3103 	beql	s2,t2,c4c0 <max_locks_number+0xc4a0>
  b4:	034d4b47 	0x34d4b47
  b8:	37034a46 	ori	v1,t8,0x4a46
  bc:	47034c82 	c1	0x1034c82
  c0:	4a38034a 	c2	0x38034a
  c4:	4a03464c 	c2	0x3464c
  c8:	03b9844a 	0x3b9844a
  cc:	09034a3e 	j	40d28f8 <main+0x3cd1d94>
  d0:	f4bd14ba 	sdc1	$f29,5306(a1)
  d4:	820c037d 	lb	t4,893(s0)
  d8:	3e08bd14 	0x3e08bd14
  dc:	820c037d 	lb	t4,893(s0)
  e0:	7df4bd14 	0x7df4bd14
  e4:	14820c03 	bne	a0,v0,30f4 <max_locks_number+0x30d4>
  e8:	7d3e08bd 	0x7d3e08bd
  ec:	14820c03 	bne	a0,v0,30fc <max_locks_number+0x30dc>
  f0:	037df4bd 	0x37df4bd
  f4:	bd14820c 	cache	0x14,-32244(t0)
  f8:	037d3e08 	0x37d3e08
  fc:	0817820c 	j	5e0830 <main+0x1dfccc>
 100:	037df43f 	0x37df43f
 104:	0819820f 	j	66083c <main+0x25fcd8>
 108:	7e8f03e8 	0x7e8f03e8
 10c:	01f203ba 	0x1f203ba
 110:	49834b4a 	0x49834b4a
 114:	7503c1f0 	jalx	40f07c0 <main+0x3cefc5c>
 118:	00080282 	srl	zero,t0,0xa
 11c:	00480101 	0x480101
 120:	00020000 	sll	zero,v0,0x0
 124:	0000001f 	0x1f
 128:	0efb0101 	jal	bec0404 <main+0xbabf8a0>
 12c:	0101000d 	break	0x101
 130:	00000101 	0x101
 134:	00000100 	sll	zero,zero,0x4
 138:	73750001 	maddu	k1,s5
 13c:	6f697265 	0x6f697265
 140:	0000632e 	0x632e
 144:	00000000 	nop
 148:	00000205 	0x205
 14c:	2d030040 	sltiu	v1,t0,64
 150:	80f3bb01 	lb	s3,-17663(a3)
 154:	48bdf34c 	0x48bdf34c
 158:	034c484c 	syscall	0xd3121
 15c:	f3bb8269 	0xf3bb8269
 160:	80f57508 	lb	s5,29960(a3)
 164:	0008024c 	syscall	0x2009
 168:	03f10101 	0x3f10101
 16c:	00020000 	sll	zero,v0,0x0
 170:	00000097 	0x97
 174:	0efb0101 	jal	bec0404 <main+0xbabf8a0>
 178:	0101000d 	break	0x101
 17c:	00000101 	0x101
 180:	00000100 	sll	zero,zero,0x4
 184:	706f2f01 	0x706f2f01
 188:	63672f74 	0x63672f74
 18c:	72632d63 	0x72632d63
 190:	2d73736f 	sltiu	s3,t3,29551
 194:	7370696d 	0x7370696d
 198:	342f6c65 	ori	t7,at,0x6c65
 19c:	332e332e 	andi	t6,t9,0x332e
 1a0:	62696c2f 	0x62696c2f
 1a4:	672f3436 	0x672f3436
 1a8:	6d2f6363 	0x6d2f6363
 1ac:	65737069 	0x65737069
 1b0:	6e752d6c 	0x6e752d6c
 1b4:	776f6e6b 	jalx	dbdb9ac <main+0xd7dae48>
 1b8:	6c652d6e 	0x6c652d6e
 1bc:	2e342f66 	sltiu	s4,s1,12134
 1c0:	2f332e33 	sltiu	s3,t9,11827
 1c4:	6c636e69 	0x6c636e69
 1c8:	00656475 	0x656475
 1cc:	64747300 	0x64747300
 1d0:	632e6f69 	0x632e6f69
 1d4:	00000000 	nop
 1d8:	61647473 	0x61647473
 1dc:	682e6772 	0x682e6772
 1e0:	00000100 	sll	zero,zero,0x4
 1e4:	656d6974 	0x656d6974
 1e8:	00682e72 	tlt	v1,t0,0xb9
 1ec:	67000000 	0x67000000
 1f0:	682e6463 	0x682e6463
 1f4:	00000000 	nop
 1f8:	2e756369 	sltiu	s5,s3,25449
 1fc:	00000068 	0x68
 200:	616d6400 	0x616d6400
 204:	0000682e 	0x682e
 208:	00000000 	nop
 20c:	00b40205 	0xb40205
 210:	1a030040 	0x1a030040
 214:	4c494b01 	0x4c494b01
 218:	4c4b4b4b 	0x4c4b4b4b
 21c:	c14a1803 	ll	t2,6147(t2)
 220:	4b825b03 	c2	0x1825b03
 224:	4c4b4b4b 	0x4c4b4b4b
 228:	c04a2203 	ll	t2,8707(v0)
 22c:	4b825203 	c2	0x1825203
 230:	4c4b4b4b 	0x4c4b4b4b
 234:	c04a2b03 	ll	t2,11011(v0)
 238:	4b824903 	c2	0x1824903
 23c:	4c4b4b4b 	0x4c4b4b4b
 240:	03504945 	0x3504945
 244:	0e034a36 	jal	80d28d8 <main+0x7cd1d74>
 248:	b603baba 	0xb603baba
 24c:	4b4b4a7f 	c2	0x14b4a7f
 250:	034c4b4b 	0x34c4b4b
 254:	f34a00c7 	0xf34a00c7
 258:	7fb40349 	0x7fb40349
 25c:	4c493c08 	0x4c493c08
 260:	cf034c4c 	pref	0x3,19532(t8)
 264:	03fa4a00 	0x3fa4a00
 268:	4bba7fa3 	c2	0x1ba7fa3
 26c:	4c4b4b4b 	0x4c4b4b4b
 270:	484b4847 	0x484b4847
 274:	00de0350 	0xde0350
 278:	03bac24a 	0x3bac24a
 27c:	4b4a7f94 	c2	0x14a7f94
 280:	4c4b4b4b 	0x4c4b4b4b
 284:	034a1703 	0x34a1703
 288:	034a00d4 	0x34a00d4
 28c:	03827fac 	0x3827fac
 290:	028200d4 	0x28200d4
 294:	0348132c 	0x348132c
 298:	49827f91 	0x49827f91
 29c:	4c4b4b4c 	0x4c4b4b4c
 2a0:	4a00f303 	c2	0xf303
 2a4:	03f20c03 	0x3f20c03
 2a8:	74087efb 	jalx	21fbec <max_locks_number+0x21fbcc>
 2ac:	4b4b4b4b 	c2	0x14b4b4b
 2b0:	474c454c 	c1	0x14c454c
 2b4:	86034e4c 	lh	v1,20044(s0)
 2b8:	4f834a01 	c3	0x1834a01
 2bc:	7a034f45 	0x7a034f45
 2c0:	fa503c08 	sdc2	$16,15368(s2)
 2c4:	7ee603ba 	0x7ee603ba
 2c8:	4b4b4b4a 	c2	0x14b4b4a
 2cc:	48474c4b 	0x48474c4b
 2d0:	0350484b 	0x350484b
 2d4:	034a019b 	0x34a019b
 2d8:	03baf20c 	syscall	0xeebc8
 2dc:	4b4a7ed3 	c2	0x14a7ed3
 2e0:	4c4b4b4b 	0x4c4b4b4b
 2e4:	4a01a903 	c2	0x1a903
 2e8:	027ed203 	0x27ed203
 2ec:	ae03012c 	sw	v1,300(s0)
 2f0:	d1034a01 	0xd1034a01
 2f4:	4b4c4a7e 	c2	0x14c4a7e
 2f8:	01b1034d 	break	0x1b1,0xd
 2fc:	4bf3834a 	c2	0x1f3834a
 300:	4b498349 	c2	0x1498349
 304:	03488381 	0x3488381
 308:	8745820a 	lh	a1,-32246(k0)
 30c:	03ba7503 	0x3ba7503
 310:	ee034a0b 	swc3	$3,18955(s0)
 314:	d303ba00 	0xd303ba00
 318:	ad034a7d 	sw	v1,19069(t0)
 31c:	d0034a02 	0xd0034a02
 320:	4c4c4a7d 	0x4c4c4a7d
 324:	02b0034c 	syscall	0xac00d
 328:	c803bf4a 	lwc2	$3,-16566(zero)
 32c:	b8034a7d 	swr	v1,19069(zero)
 330:	c5034a02 	lwc1	$f3,18946(t0)
 334:	4c4c4a7d 	0x4c4c4a7d
 338:	02bb034c 	syscall	0xaec0d
 33c:	ba03bf4a 	swr	v1,-16566(s0)
 340:	4b4c827d 	c2	0x14c827d
 344:	c5034c4b 	lwc1	$f3,19531(t0)
 348:	03bf4a02 	0x3bf4a02
 34c:	034a7db3 	tltu	k0,t2,0x1f6
 350:	034a02cd 	break	0x34a,0xb
 354:	4c4a7db0 	0x4c4a7db0
 358:	d0034c4c 	0xd0034c4c
 35c:	0b034a02 	j	c0d2808 <main+0xbcd1ca4>
 360:	7da103ba 	0x7da103ba
 364:	02df034a 	0x2df034a
 368:	7d9f034a 	0x7d9f034a
 36c:	4b4c4b4a 	c2	0x14c4b4a
 370:	02e0034c 	syscall	0xb800d
 374:	9603c04a 	lhu	v1,-16310(s0)
 378:	ea034a7d 	swc2	$3,19069(s0)
 37c:	94034a02 	lhu	v1,18946(zero)
 380:	4c4b4a7d 	0x4c4b4a7d
 384:	eb034c4b 	swc2	$3,19531(t8)
 388:	03c04a02 	0x3c04a02
 38c:	4b827d89 	c2	0x1827d89
 390:	4c4b4b4b 	0x4c4b4b4b
 394:	4a02f503 	c2	0x2f503
 398:	7d8003c1 	0x7d8003c1
 39c:	0380034a 	0x380034a
 3a0:	7cfe034a 	0x7cfe034a
 3a4:	4b4c4b4a 	c2	0x14c4b4a
 3a8:	0381034c 	syscall	0xe040d
 3ac:	f503c04a 	sdc1	$f3,-16310(t0)
 3b0:	8b034a7c 	lwl	v1,19068(t8)
 3b4:	f3034a03 	0xf3034a03
 3b8:	4c4b4a7c 	0x4c4b4a7c
 3bc:	8c034c4b 	lw	v1,19531(zero)
 3c0:	0b034a03 	j	c0d280c <main+0xbcd1ca8>
 3c4:	7ce503ba 	0x7ce503ba
 3c8:	039b034a 	0x39b034a
 3cc:	7ce3034a 	0x7ce3034a
 3d0:	4b4c4b4a 	c2	0x14c4b4a
 3d4:	039c034c 	syscall	0xe700d
 3d8:	d903c14a 	ldc2	$3,-16054(t0)
 3dc:	a7034a7c 	sh	v1,19068(t8)
 3e0:	d7034a03 	ldc1	$f3,18947(t8)
 3e4:	4c4b4a7c 	0x4c4b4a7c
 3e8:	a8034c4b 	swl	v1,19531(zero)
 3ec:	03c04a03 	0x3c04a03
 3f0:	034a7cce 	0x34a7cce
 3f4:	034a03b2 	tlt	k0,t2,0xe
 3f8:	4b4a7ccc 	c2	0x14a7ccc
 3fc:	034c4b4c 	syscall	0xd312d
 400:	c04a03b3 	ll	t2,947(v0)
 404:	4a7cc303 	c2	0x7cc303
 408:	4a03bd03 	c2	0x3bd03
 40c:	4a7cc103 	c2	0x7cc103
 410:	4c4b4c4b 	0x4c4b4c4b
 414:	4a03be03 	c2	0x3be03
 418:	7cb703c1 	0x7cb703c1
 41c:	03c9034a 	0x3c9034a
 420:	7cb5034a 	0x7cb5034a
 424:	4b4c4b4a 	c2	0x14c4b4a
 428:	03ca034c 	syscall	0xf280d
 42c:	ba0b034a 	swr	t3,842(s0)
 430:	4a7ca703 	c2	0x7ca703
 434:	4a03d903 	c2	0x3d903
 438:	4a7ca503 	c2	0x7ca503
 43c:	4c4b4c4b 	0x4c4b4c4b
 440:	4a03da03 	c2	0x3da03
 444:	7c9c03c0 	0x7c9c03c0
 448:	03e4034a 	0x3e4034a
 44c:	7c9a034a 	0x7c9a034a
 450:	4b4c4b4a 	c2	0x14c4b4a
 454:	03e5034c 	syscall	0xf940d
 458:	9103c04a 	lbu	v1,-16310(t0)
 45c:	ef034a7c 	swc3	$3,19068(t8)
 460:	8f034a03 	lw	v1,18947(t8)
 464:	4c4b4a7c 	0x4c4b4a7c
 468:	f0034c4b 	0xf0034c4b
 46c:	03c04a03 	0x3c04a03
 470:	4b827c84 	c2	0x1827c84
 474:	4c4b4b4b 	0x4c4b4b4b
 478:	4a03fa03 	c2	0x3fa03
 47c:	03ba0f03 	0x3ba0f03
 480:	4c827bf1 	0x4c827bf1
 484:	034c4b4b 	0x34c4b4b
 488:	c24a048d 	ll	t2,1165(s2)
 48c:	827be503 	lb	k1,-6909(s3)
 490:	4c4b4b4c 	0x4c4b4b4c
 494:	4a049903 	c2	0x49903
 498:	7bdb03c0 	0x7bdb03c0
 49c:	4b4b4b82 	c2	0x14b4b82
 4a0:	17034c4b 	bne	t8,v1,135d0 <max_locks_number+0x135b0>
 4a4:	048b034a 	tltiu	a0,842
 4a8:	4b49f44a 	c2	0x149f44a
 4ac:	a5034cf0 	sh	v1,19696(t0)
 4b0:	034c827d 	0x34c827d
 4b4:	5c038222 	0x5c038222
 4b8:	1228024a 	beq	s1,t0,de4 <max_locks_number+0xdc4>
 4bc:	03f22403 	0x3f22403
 4c0:	03827e8f 	0x3827e8f
 4c4:	038201f1 	tgeu	gp,v0,0x7
 4c8:	ff034a10 	sdc3	$3,18960(t8)
 4cc:	81034a7d 	lb	v1,19069(t0)
 4d0:	54034a02 	bnel	zero,v1,12cdc <max_locks_number+0x12cbc>
 4d4:	7608804a 	jalx	8220128 <main+0x7e1f5c4>
 4d8:	0389ae08 	0x389ae08
 4dc:	d1038275 	0xd1038275
 4e0:	da038200 	ldc2	$3,-32256(s0)
 4e4:	0134027d 	0x134027d
 4e8:	4c4b4c4b 	0x4c4b4c4b
 4ec:	474b4b45 	c1	0x14b4b45
 4f0:	01da0350 	0x1da0350
 4f4:	820c0382 	lb	t4,898(s0)
 4f8:	034a7503 	0x34a7503
 4fc:	02894a0b 	0x2894a0b
 500:	0383192c 	0x383192c
 504:	4b4a7e85 	c2	0x14a7e85
 508:	464c4c4b 	c1	0x4c4c4b
 50c:	4d484b49 	0x4d484b49
 510:	01fc034d 	break	0x1fc,0xd
 514:	30024bba 	andi	v0,zero,0x4bba
 518:	03f7b813 	0x3f7b813
 51c:	4b827df9 	c2	0x1827df9
 520:	4c4b4b4b 	0x4c4b4b4b
 524:	474b4b45 	c1	0x14b4b45
 528:	01ed0350 	0x1ed0350
 52c:	ba25034a 	swr	a1,842(s1)
 530:	027de803 	0x27de803
 534:	4b4b012c 	c2	0x14b012c
 538:	474c4b4b 	c1	0x14c4b4b
 53c:	50484b48 	beql	v0,t0,13260 <max_locks_number+0x13240>
 540:	ba028903 	swr	v0,-30461(s0)
 544:	b94b4983 	swr	t3,18819(t2)
 548:	08f3b84b 	j	3cee12c <main+0x38ed5c8>
 54c:	b94b49e5 	swr	t3,18917(t2)
 550:	6303bd4b 	0x6303bd4b
 554:	f21803ba 	0xf21803ba
 558:	0802bf4f 	j	afd3c <max_locks_number+0xafd1c>
 55c:	3d010100 	0x3d010100
 560:	02000000 	0x2000000
 564:	00001d00 	sll	v1,zero,0x14
 568:	fb010100 	sdc2	$1,256(t8)
 56c:	01000d0e 	0x1000d0e
 570:	00010101 	0x10101
 574:	00010000 	sll	zero,at,0x0
 578:	6d000100 	0x6d000100
 57c:	2e6e6961 	sltiu	t6,s3,26977
 580:	00000063 	0x63
 584:	05000000 	bltz	t0,588 <.debug_line+0x588>
 588:	400b6402 	0x400b6402
 58c:	08141600 	j	505800 <main+0x104c9c>
 590:	4c464eaa 	0x4c464eaa
 594:	f38386f0 	0xf38386f0
 598:	02833e08 	0x2833e08
 59c:	01010010 	0x1010010

Disassembly of section .debug_frame:

00000000 <.debug_frame>:
   0:	0000000c 	syscall
   4:	ffffffff 	sdc3	$31,-1(ra)
   8:	7c010001 	0x7c010001
   c:	001d0c1f 	0x1d0c1f
  10:	0000000c 	syscall
  14:	00000000 	nop
  18:	80000650 	lb	zero,1616(zero)
  1c:	0000000c 	syscall
  20:	0000000c 	syscall
  24:	00000000 	nop
  28:	8000065c 	lb	zero,1628(zero)
  2c:	0000000c 	syscall
  30:	0000000c 	syscall
  34:	00000000 	nop
  38:	80000668 	lb	zero,1640(zero)
  3c:	00000048 	0x48
  40:	0000000c 	syscall
  44:	00000000 	nop
  48:	800006b0 	lb	zero,1712(zero)
  4c:	0000004c 	syscall	0x1
  50:	0000000c 	syscall
  54:	00000000 	nop
  58:	800006fc 	lb	zero,1788(zero)
  5c:	00000054 	0x54
  60:	0000000c 	syscall
  64:	00000000 	nop
  68:	80000750 	lb	zero,1872(zero)
  6c:	000000a4 	0xa4
  70:	00000010 	mfhi	zero
  74:	00000000 	nop
  78:	800007f4 	lb	zero,2036(zero)
  7c:	000000c8 	0xc8
  80:	00280e44 	0x280e44
  84:	0000000c 	syscall
  88:	00000000 	nop
  8c:	800008bc 	lb	zero,2236(zero)
  90:	0000002c 	0x2c
  94:	0000000c 	syscall
  98:	00000000 	nop
  9c:	800008e8 	lb	zero,2280(zero)
  a0:	00000030 	tge	zero,zero
  a4:	0000000c 	syscall
  a8:	00000000 	nop
  ac:	80000918 	lb	zero,2328(zero)
  b0:	0000002c 	0x2c
  b4:	0000000c 	syscall
  b8:	00000000 	nop
  bc:	80000944 	lb	zero,2372(zero)
  c0:	00000030 	tge	zero,zero
  c4:	0000000c 	syscall
  c8:	00000000 	nop
  cc:	80000974 	lb	zero,2420(zero)
  d0:	0000002c 	0x2c
  d4:	0000000c 	syscall
  d8:	00000000 	nop
  dc:	800009a0 	lb	zero,2464(zero)
  e0:	00000030 	tge	zero,zero
  e4:	0000000c 	syscall
  e8:	00000000 	nop
  ec:	800009d0 	lb	zero,2512(zero)
  f0:	00000034 	teq	zero,zero
  f4:	0000000c 	syscall
  f8:	00000000 	nop
  fc:	80000a04 	lb	zero,2564(zero)
 100:	0000006c 	0x6c
 104:	0000000c 	syscall
 108:	ffffffff 	sdc3	$31,-1(ra)
 10c:	7c010001 	0x7c010001
 110:	001d0c1f 	0x1d0c1f
 114:	00000014 	0x14
 118:	00000104 	0x104
 11c:	00400000 	0x400000
 120:	0000005c 	0x5c
 124:	48180e44 	0x48180e44
 128:	0290019f 	0x290019f
 12c:	00000014 	0x14
 130:	00000104 	0x104
 134:	0040005c 	0x40005c
 138:	00000058 	0x58
 13c:	48180e44 	0x48180e44
 140:	0290019f 	0x290019f
 144:	0000000c 	syscall
 148:	ffffffff 	sdc3	$31,-1(ra)
 14c:	7c010001 	0x7c010001
 150:	001d0c1f 	0x1d0c1f
 154:	00000014 	0x14
 158:	00000144 	0x144
 15c:	004000b4 	teq	v0,zero,0x2
 160:	0000002c 	0x2c
 164:	48080e44 	0x48080e44
 168:	0000019f 	0x19f
 16c:	00000014 	0x14
 170:	00000144 	0x144
 174:	004000e0 	0x4000e0
 178:	0000002c 	0x2c
 17c:	44080e44 	0x44080e44
 180:	0000019f 	0x19f
 184:	00000014 	0x14
 188:	00000144 	0x144
 18c:	0040010c 	syscall	0x10004
 190:	0000002c 	0x2c
 194:	44080e44 	0x44080e44
 198:	0000019f 	0x19f
 19c:	00000014 	0x14
 1a0:	00000144 	0x144
 1a4:	00400138 	0x400138
 1a8:	00000038 	0x38
 1ac:	44080e44 	0x44080e44
 1b0:	0000019f 	0x19f
 1b4:	00000014 	0x14
 1b8:	00000144 	0x144
 1bc:	00400170 	tge	v0,zero,0x5
 1c0:	00000074 	teq	zero,zero,0x1
 1c4:	48080e44 	0x48080e44
 1c8:	0290019f 	0x290019f
 1cc:	00000014 	0x14
 1d0:	00000144 	0x144
 1d4:	004001e4 	0x4001e4
 1d8:	00000044 	0x44
 1dc:	48080e44 	0x48080e44
 1e0:	0000019f 	0x19f
 1e4:	00000014 	0x14
 1e8:	00000144 	0x144
 1ec:	00400228 	0x400228
 1f0:	0000009c 	0x9c
 1f4:	48180e44 	0x48180e44
 1f8:	0290019f 	0x290019f
 1fc:	00000018 	mult	zero,zero
 200:	00000144 	0x144
 204:	004002c4 	0x4002c4
 208:	00000080 	sll	zero,zero,0x2
 20c:	48100e44 	0x48100e44
 210:	02910390 	0x2910390
 214:	00019f4c 	syscall	0x67d
 218:	00000014 	0x14
 21c:	00000144 	0x144
 220:	00400344 	0x400344
 224:	0000004c 	syscall	0x1
 228:	48080e44 	0x48080e44
 22c:	0290019f 	0x290019f
 230:	00000014 	0x14
 234:	00000144 	0x144
 238:	00400390 	0x400390
 23c:	000000e0 	0xe0
 240:	48200e44 	0x48200e44
 244:	0290019f 	0x290019f
 248:	00000014 	0x14
 24c:	00000144 	0x144
 250:	00400470 	tge	v0,zero,0x11
 254:	00000028 	0x28
 258:	48080e44 	0x48080e44
 25c:	0000019f 	0x19f
 260:	00000014 	0x14
 264:	00000144 	0x144
 268:	00400498 	0x400498
 26c:	00000028 	0x28
 270:	48080e44 	0x48080e44
 274:	0000019f 	0x19f
 278:	00000014 	0x14
 27c:	00000144 	0x144
 280:	004004c0 	0x4004c0
 284:	00000028 	0x28
 288:	44080e44 	0x44080e44
 28c:	0000019f 	0x19f
 290:	00000014 	0x14
 294:	00000144 	0x144
 298:	004004e8 	0x4004e8
 29c:	00000028 	0x28
 2a0:	48080e44 	0x48080e44
 2a4:	0000019f 	0x19f
 2a8:	00000014 	0x14
 2ac:	00000144 	0x144
 2b0:	00400510 	0x400510
 2b4:	0000002c 	0x2c
 2b8:	48080e44 	0x48080e44
 2bc:	0000019f 	0x19f
 2c0:	00000014 	0x14
 2c4:	00000144 	0x144
 2c8:	0040053c 	0x40053c
 2cc:	0000002c 	0x2c
 2d0:	48080e44 	0x48080e44
 2d4:	0000019f 	0x19f
 2d8:	00000014 	0x14
 2dc:	00000144 	0x144
 2e0:	00400568 	0x400568
 2e4:	0000002c 	0x2c
 2e8:	44080e44 	0x44080e44
 2ec:	0000019f 	0x19f
 2f0:	00000014 	0x14
 2f4:	00000144 	0x144
 2f8:	00400594 	0x400594
 2fc:	0000002c 	0x2c
 300:	48080e44 	0x48080e44
 304:	0000019f 	0x19f
 308:	00000014 	0x14
 30c:	00000144 	0x144
 310:	004005c0 	0x4005c0
 314:	0000002c 	0x2c
 318:	48080e44 	0x48080e44
 31c:	0000019f 	0x19f
 320:	00000014 	0x14
 324:	00000144 	0x144
 328:	004005ec 	0x4005ec
 32c:	0000002c 	0x2c
 330:	48080e44 	0x48080e44
 334:	0000019f 	0x19f
 338:	00000014 	0x14
 33c:	00000144 	0x144
 340:	00400618 	0x400618
 344:	0000002c 	0x2c
 348:	48080e44 	0x48080e44
 34c:	0000019f 	0x19f
 350:	00000014 	0x14
 354:	00000144 	0x144
 358:	00400644 	0x400644
 35c:	0000002c 	0x2c
 360:	48080e44 	0x48080e44
 364:	0000019f 	0x19f
 368:	00000014 	0x14
 36c:	00000144 	0x144
 370:	00400670 	tge	v0,zero,0x19
 374:	0000002c 	0x2c
 378:	48080e44 	0x48080e44
 37c:	0000019f 	0x19f
 380:	00000014 	0x14
 384:	00000144 	0x144
 388:	0040069c 	0x40069c
 38c:	0000002c 	0x2c
 390:	48080e44 	0x48080e44
 394:	0000019f 	0x19f
 398:	00000014 	0x14
 39c:	00000144 	0x144
 3a0:	004006c8 	0x4006c8
 3a4:	0000002c 	0x2c
 3a8:	48080e44 	0x48080e44
 3ac:	0000019f 	0x19f
 3b0:	00000014 	0x14
 3b4:	00000144 	0x144
 3b8:	004006f4 	teq	v0,zero,0x1b
 3bc:	0000002c 	0x2c
 3c0:	48080e44 	0x48080e44
 3c4:	0000019f 	0x19f
 3c8:	00000014 	0x14
 3cc:	00000144 	0x144
 3d0:	00400720 	0x400720
 3d4:	0000002c 	0x2c
 3d8:	48080e44 	0x48080e44
 3dc:	0000019f 	0x19f
 3e0:	00000014 	0x14
 3e4:	00000144 	0x144
 3e8:	0040074c 	syscall	0x1001d
 3ec:	0000002c 	0x2c
 3f0:	44080e44 	0x44080e44
 3f4:	0000019f 	0x19f
 3f8:	00000014 	0x14
 3fc:	00000144 	0x144
 400:	00400778 	0x400778
 404:	00000028 	0x28
 408:	44080e44 	0x44080e44
 40c:	0000019f 	0x19f
 410:	00000014 	0x14
 414:	00000144 	0x144
 418:	004007a0 	0x4007a0
 41c:	00000028 	0x28
 420:	44080e44 	0x44080e44
 424:	0000019f 	0x19f
 428:	00000014 	0x14
 42c:	00000144 	0x144
 430:	004007c8 	0x4007c8
 434:	00000058 	0x58
 438:	44080e44 	0x44080e44
 43c:	0000019f 	0x19f
 440:	00000024 	and	zero,zero,zero
 444:	00000144 	0x144
 448:	00400820 	add	at,v0,zero
 44c:	00000344 	0x344
 450:	74400e44 	jalx	1003910 <main+0xc02dac>
 454:	09910a90 	j	6442a40 <main+0x6041edc>
 458:	0892019f 	j	248067c <main+0x207fb18>
 45c:	06940793 	0x6940793
 460:	04960595 	0x4960595
 464:	029e0397 	0x29e0397
 468:	0000000c 	syscall
 46c:	ffffffff 	sdc3	$31,-1(ra)
 470:	7c010001 	0x7c010001
 474:	001d0c1f 	0x1d0c1f
 478:	00000018 	mult	zero,zero
 47c:	00000468 	0x468
 480:	00400b64 	0x400b64
 484:	00000084 	0x84
 488:	60380e60 	0x60380e60
 48c:	02910390 	0x2910390
 490:	0000019f 	0x19f

Disassembly of section .debug_loc:

00000000 <.debug_loc>:
	...
       8:	80000660 	lb	zero,1632(zero)
       c:	80000660 	lb	zero,1632(zero)
      10:	00520001 	0x520001
      14:	00000000 	nop
      18:	68000000 	0x68000000
      1c:	a0800006 	sb	zero,6(a0)
      20:	01800006 	srlv	zero,zero,t4
      24:	00005400 	sll	t2,zero,0x10
      28:	00000000 	nop
      2c:	06b00000 	bltzal	s5,30 <.debug_loc+0x30>
      30:	06dc8000 	0x6dc8000
      34:	00018000 	sll	s0,at,0x0
      38:	00000054 	0x54
      3c:	00000000 	nop
      40:	0006fc00 	sll	ra,a2,0x10
      44:	00071880 	sll	v1,a3,0x2
      48:	54000180 	bnezl	zero,64c <.debug_loc+0x64c>
      4c:	80000748 	lb	zero,1864(zero)
      50:	80000750 	lb	zero,1872(zero)
      54:	00540001 	movf	zero,v0,$fcc5
      58:	00000000 	nop
      5c:	18000000 	blez	zero,60 <.debug_loc+0x60>
      60:	48800007 	mtc2	zero,$0,7
      64:	01800007 	srav	zero,zero,t4
      68:	00005400 	sll	t2,zero,0x10
      6c:	00000000 	nop
      70:	07240000 	0x7240000
      74:	07488000 	tgei	k0,-32768
      78:	00018000 	sll	s0,at,0x0
      7c:	00000057 	0x57
      80:	00000000 	nop
      84:	00075000 	sll	t2,a3,0x0
      88:	00077c80 	sll	t7,a3,0x12
      8c:	54000180 	bnezl	zero,690 <.debug_loc+0x690>
      90:	800007dc 	lb	zero,2012(zero)
      94:	800007e4 	lb	zero,2020(zero)
      98:	ec540001 	swc3	$20,1(v0)
      9c:	f4800007 	sdc1	$f0,7(a0)
      a0:	01800007 	srav	zero,zero,t4
      a4:	00005400 	sll	t2,zero,0x10
      a8:	00000000 	nop
      ac:	07780000 	0x7780000
      b0:	07908000 	bltzal	gp,fffe00b4 <seg_icu_base+0xffe00b4>
      b4:	00018000 	sll	s0,at,0x0
      b8:	00000052 	mflhxu	zero
      bc:	00000000 	nop
      c0:	00078400 	sll	s0,a3,0x10
      c4:	0007dc80 	sll	k1,a3,0x12
      c8:	57000180 	bnezl	t8,6cc <.debug_loc+0x6cc>
      cc:	800007e4 	lb	zero,2020(zero)
      d0:	800007ec 	lb	zero,2028(zero)
      d4:	00570001 	0x570001
      d8:	00000000 	nop
      dc:	8c000000 	lw	zero,0(zero)
      e0:	90800007 	lbu	zero,7(a0)
      e4:	01800007 	srav	zero,zero,t4
      e8:	07a05200 	bltz	sp,148ec <max_locks_number+0x148cc>
      ec:	07bc8000 	0x7bc8000
      f0:	00018000 	sll	s0,at,0x0
      f4:	0007cc52 	0x7cc52
      f8:	0007dc80 	sll	k1,a3,0x12
      fc:	52000180 	beqzl	s0,700 <.debug_loc+0x700>
     100:	800007e4 	lb	zero,2020(zero)
     104:	800007e4 	lb	zero,2020(zero)
     108:	00520001 	0x520001
     10c:	00000000 	nop
     110:	f4000000 	sdc1	$f0,0(zero)
     114:	f8800007 	sdc2	$0,7(a0)
     118:	01800007 	srav	zero,zero,t4
     11c:	07f86d00 	0x7f86d00
     120:	08bc8000 	j	2f20000 <main+0x2b1f49c>
     124:	00028000 	sll	s0,v0,0x0
     128:	0000288d 	break	0x0,0xa2
     12c:	00000000 	nop
     130:	08040000 	j	100000 <max_locks_number+0xfffe0>
     134:	087c8000 	j	1f20000 <main+0x1b1f49c>
     138:	00018000 	sll	s0,at,0x0
     13c:	0008b056 	0x8b056
     140:	0008bc80 	sll	s7,t0,0x12
     144:	56000180 	bnezl	s0,748 <.debug_loc+0x748>
     148:	00000000 	nop
     14c:	00000000 	nop
     150:	800007fc 	lb	zero,2044(zero)
     154:	80000828 	lb	zero,2088(zero)
     158:	b0530001 	0xb0530001
     15c:	bc800008 	cache	0x0,8(a0)
     160:	01800008 	jr	t4
     164:	00005300 	sll	t2,zero,0xc
     168:	00000000 	nop
     16c:	08e80000 	j	3a00000 <main+0x35ff49c>
     170:	09048000 	j	4120000 <main+0x3d1f49c>
     174:	00018000 	sll	s0,at,0x0
     178:	00091054 	0x91054
     17c:	00091880 	sll	v1,t1,0x2
     180:	54000180 	bnezl	zero,784 <.debug_loc+0x784>
     184:	00000000 	nop
     188:	00000000 	nop
     18c:	80000944 	lb	zero,2372(zero)
     190:	80000960 	lb	zero,2400(zero)
     194:	6c540001 	0x6c540001
     198:	74800009 	jalx	2000024 <main+0x1bff4c0>
     19c:	01800009 	jalr	zero,t4
     1a0:	00005400 	sll	t2,zero,0x10
     1a4:	00000000 	nop
     1a8:	09a00000 	j	6800000 <main+0x63ff49c>
     1ac:	09bc8000 	j	6f20000 <main+0x6b1f49c>
     1b0:	00018000 	sll	s0,at,0x0
     1b4:	0009c854 	0x9c854
     1b8:	0009d080 	sll	k0,t1,0x2
     1bc:	54000180 	bnezl	zero,7c0 <.debug_loc+0x7c0>
     1c0:	00000000 	nop
     1c4:	00000000 	nop
     1c8:	80000a24 	lb	zero,2596(zero)
     1cc:	80000a68 	lb	zero,2664(zero)
     1d0:	00550001 	movt	zero,v0,$fcc5
     1d4:	00000000 	nop
     1d8:	24000000 	li	zero,0
     1dc:	6880000a 	0x6880000a
     1e0:	0180000a 	movz	zero,t4,zero
     1e4:	00005600 	sll	t2,zero,0x18
     1e8:	00000000 	nop
     1ec:	0a240000 	j	8900000 <main+0x84ff49c>
     1f0:	0a288000 	j	8a20000 <main+0x861f49c>
     1f4:	00018000 	sll	s0,at,0x0
     1f8:	000a3452 	0xa3452
     1fc:	000a4c80 	sll	t1,t2,0x12
     200:	52000180 	beqzl	s0,804 <.debug_loc+0x804>
     204:	00000000 	nop
	...
     210:	00000004 	sllv	zero,zero,zero
     214:	046d0001 	0x46d0001
     218:	5c000000 	bgtzl	zero,21c <.debug_loc+0x21c>
     21c:	02000000 	0x2000000
     220:	00188d00 	sll	s1,t8,0x14
	...
     22c:	0c000000 	jal	0 <.debug_loc>
     230:	01000000 	0x1000000
     234:	000c5400 	sll	t2,t4,0x10
     238:	00500000 	0x500000
     23c:	00010000 	sll	zero,at,0x0
     240:	00000060 	0x60
     244:	00000000 	nop
     248:	00001800 	sll	v1,zero,0x0
     24c:	00001c00 	sll	v1,zero,0x10
     250:	52000100 	beqzl	s0,654 <.debug_loc+0x654>
     254:	00000000 	nop
     258:	00000000 	nop
     25c:	0000005c 	0x5c
     260:	00000060 	0x60
     264:	606d0001 	0x606d0001
     268:	b4000000 	0xb4000000
     26c:	02000000 	0x2000000
     270:	00188d00 	sll	s1,t8,0x14
     274:	00000000 	nop
     278:	5c000000 	bgtzl	zero,27c <.debug_loc+0x27c>
     27c:	70000000 	madd	zero,zero
     280:	01000000 	0x1000000
     284:	00705400 	0x705400
     288:	00a80000 	0xa80000
     28c:	00010000 	sll	zero,at,0x0
     290:	00000060 	0x60
     294:	00000000 	nop
     298:	00007400 	sll	t6,zero,0x10
     29c:	00007800 	sll	t7,zero,0x0
     2a0:	52000100 	beqzl	s0,6a4 <.debug_loc+0x6a4>
     2a4:	00000000 	nop
	...
     2b0:	00000004 	sllv	zero,zero,zero
     2b4:	046d0001 	0x46d0001
     2b8:	2c000000 	sltiu	zero,zero,0
     2bc:	02000000 	0x2000000
     2c0:	00088d00 	sll	s1,t0,0x14
	...
     2cc:	10000000 	b	2d0 <.debug_loc+0x2d0>
     2d0:	01000000 	0x1000000
     2d4:	00005400 	sll	t2,zero,0x10
	...
     2e0:	00140000 	sll	zero,s4,0x0
     2e4:	00010000 	sll	zero,at,0x0
     2e8:	00000055 	0x55
	...
     2f4:	00001800 	sll	v1,zero,0x0
     2f8:	56000100 	bnezl	s0,6fc <.debug_loc+0x6fc>
     2fc:	00000000 	nop
	...
     308:	0000001c 	0x1c
     30c:	00570001 	0x570001
     310:	00000000 	nop
     314:	08000000 	j	0 <.debug_loc>
     318:	24000000 	li	zero,0
     31c:	01000000 	0x1000000
     320:	00005200 	sll	t2,zero,0x8
     324:	00000000 	nop
     328:	002c0000 	0x2c0000
     32c:	00300000 	0x300000
     330:	00010000 	sll	zero,at,0x0
     334:	0000306d 	0x306d
     338:	00005800 	sll	t3,zero,0x0
     33c:	8d000200 	lw	zero,512(t0)
     340:	00000008 	jr	zero
     344:	00000000 	nop
     348:	00003800 	sll	a3,zero,0x0
     34c:	00005000 	sll	t2,zero,0x0
     350:	52000100 	beqzl	s0,754 <.debug_loc+0x754>
     354:	00000000 	nop
     358:	00000000 	nop
     35c:	00000058 	0x58
     360:	0000005c 	0x5c
     364:	5c6d0001 	0x5c6d0001
     368:	84000000 	lh	zero,0(zero)
     36c:	02000000 	0x2000000
     370:	00088d00 	sll	s1,t0,0x14
     374:	00000000 	nop
     378:	64000000 	0x64000000
     37c:	7c000000 	0x7c000000
     380:	01000000 	0x1000000
     384:	00005200 	sll	t2,zero,0x8
     388:	00000000 	nop
     38c:	00840000 	0x840000
     390:	00880000 	0x880000
     394:	00010000 	sll	zero,at,0x0
     398:	0000886d 	0x886d
     39c:	0000bc00 	sll	s7,zero,0x10
     3a0:	8d000200 	lw	zero,512(t0)
     3a4:	00000008 	jr	zero
     3a8:	00000000 	nop
     3ac:	0000a800 	sll	s5,zero,0x0
     3b0:	0000ac00 	sll	s5,zero,0x10
     3b4:	52000100 	beqzl	s0,7b8 <.debug_loc+0x7b8>
     3b8:	00000000 	nop
     3bc:	00000000 	nop
     3c0:	00000090 	0x90
     3c4:	000000ac 	0xac
     3c8:	00520001 	0x520001
     3cc:	00000000 	nop
     3d0:	94000000 	lhu	zero,0(zero)
     3d4:	a8000000 	swl	zero,0(zero)
     3d8:	01000000 	0x1000000
     3dc:	00005400 	sll	t2,zero,0x10
     3e0:	00000000 	nop
     3e4:	00ac0000 	0xac0000
     3e8:	00b40000 	0xb40000
     3ec:	00010000 	sll	zero,at,0x0
     3f0:	00000052 	mflhxu	zero
     3f4:	00000000 	nop
     3f8:	0000bc00 	sll	s7,zero,0x10
     3fc:	0000c000 	sll	t8,zero,0x0
     400:	6d000100 	0x6d000100
     404:	000000c0 	sll	zero,zero,0x3
     408:	00000130 	tge	zero,zero,0x4
     40c:	088d0002 	j	2340008 <main+0x1f3f4a4>
     410:	00000000 	nop
     414:	00000000 	nop
     418:	000000bc 	0xbc
     41c:	000000d4 	0xd4
     420:	d4540001 	ldc1	$f20,1(v0)
     424:	28000000 	slti	zero,zero,0
     428:	01000001 	movf	zero,t0,$fcc0
     42c:	00006000 	sll	t4,zero,0x0
     430:	00000000 	nop
     434:	00e80000 	0xe80000
     438:	01180000 	0x1180000
     43c:	00010000 	sll	zero,at,0x0
     440:	00000055 	0x55
     444:	00000000 	nop
     448:	0000d000 	sll	k0,zero,0x0
     44c:	0000fc00 	sll	ra,zero,0x10
     450:	52000100 	beqzl	s0,854 <.debug_loc+0x854>
     454:	0000010c 	syscall	0x4
     458:	00000114 	0x114
     45c:	00520001 	0x520001
     460:	00000000 	nop
     464:	d4000000 	ldc1	$f0,0(zero)
     468:	e8000000 	swc2	$0,0(zero)
     46c:	01000000 	0x1000000
     470:	00005400 	sll	t2,zero,0x10
     474:	00000000 	nop
     478:	00d80000 	0xd80000
     47c:	00e80000 	0xe80000
     480:	00010000 	sll	zero,at,0x0
     484:	00000055 	0x55
     488:	00000000 	nop
     48c:	0000dc00 	sll	k1,zero,0x10
     490:	0000f400 	sll	s8,zero,0x10
     494:	56000100 	bnezl	s0,898 <.debug_loc+0x898>
     498:	0000010c 	syscall	0x4
     49c:	00000130 	tge	zero,zero,0x4
     4a0:	00560001 	0x560001
     4a4:	00000000 	nop
     4a8:	e0000000 	sc	zero,0(zero)
     4ac:	1c000000 	bgtz	zero,4b0 <.debug_loc+0x4b0>
     4b0:	01000001 	movf	zero,t0,$fcc0
     4b4:	00005700 	sll	t2,zero,0x1c
     4b8:	00000000 	nop
     4bc:	01140000 	0x1140000
     4c0:	01240000 	0x1240000
     4c4:	00010000 	sll	zero,at,0x0
     4c8:	00000052 	mflhxu	zero
     4cc:	00000000 	nop
     4d0:	00013000 	sll	a2,at,0x0
     4d4:	00013400 	sll	a2,at,0x10
     4d8:	6d000100 	0x6d000100
     4dc:	00000134 	teq	zero,zero,0x4
     4e0:	00000174 	teq	zero,zero,0x5
     4e4:	088d0002 	j	2340008 <main+0x1f3f4a4>
     4e8:	00000000 	nop
     4ec:	00000000 	nop
     4f0:	00000130 	tge	zero,zero,0x4
     4f4:	00000144 	0x144
     4f8:	44540001 	0x44540001
     4fc:	74000001 	jalx	4 <.debug_loc+0x4>
     500:	02000001 	movf	zero,s0,$fcc0
     504:	00088d00 	sll	s1,t0,0x14
     508:	00000000 	nop
     50c:	5c000000 	bgtzl	zero,510 <.debug_loc+0x510>
     510:	64000001 	0x64000001
     514:	01000001 	movf	zero,t0,$fcc0
     518:	00005200 	sll	t2,zero,0x8
     51c:	00000000 	nop
     520:	01400000 	0x1400000
     524:	01640000 	0x1640000
     528:	00010000 	sll	zero,at,0x0
     52c:	00000052 	mflhxu	zero
     530:	00000000 	nop
     534:	00014400 	sll	t0,at,0x10
     538:	00015c00 	sll	t3,at,0x10
     53c:	54000100 	bnezl	zero,940 <.debug_loc+0x940>
     540:	00000000 	nop
     544:	00000000 	nop
     548:	00000148 	0x148
     54c:	00000160 	0x160
     550:	00550001 	movt	zero,v0,$fcc5
     554:	00000000 	nop
     558:	4c000000 	mfc3	zero,$0
     55c:	58000001 	blezl	zero,564 <.debug_loc+0x564>
     560:	01000001 	movf	zero,t0,$fcc0
     564:	00005600 	sll	t2,zero,0x18
     568:	00000000 	nop
     56c:	01640000 	0x1640000
     570:	016c0000 	0x16c0000
     574:	00010000 	sll	zero,at,0x0
     578:	00000052 	mflhxu	zero
     57c:	00000000 	nop
     580:	00017400 	sll	t6,at,0x10
     584:	00017800 	sll	t7,at,0x0
     588:	6d000100 	0x6d000100
     58c:	00000178 	0x178
     590:	00000210 	0x210
     594:	188d0002 	0x188d0002
	...
     5a0:	00000174 	teq	zero,zero,0x5
     5a4:	0000018c 	syscall	0x6
     5a8:	8c540001 	lw	s4,1(v0)
     5ac:	08000001 	j	4 <.debug_loc+0x4>
     5b0:	01000002 	0x1000002
     5b4:	00006000 	sll	t4,zero,0x0
     5b8:	00000000 	nop
     5bc:	01a00000 	0x1a00000
     5c0:	02000000 	0x2000000
     5c4:	00010000 	sll	zero,at,0x0
     5c8:	00000059 	0x59
     5cc:	00000000 	nop
     5d0:	00018800 	sll	s1,at,0x0
     5d4:	0001a400 	sll	s4,at,0x10
     5d8:	52000100 	beqzl	s0,9dc <.debug_loc+0x9dc>
     5dc:	00000000 	nop
     5e0:	00000000 	nop
     5e4:	0000018c 	syscall	0x6
     5e8:	000001c0 	sll	zero,zero,0x7
     5ec:	00540001 	movf	zero,v0,$fcc5
     5f0:	00000000 	nop
     5f4:	90000000 	lbu	zero,0(zero)
     5f8:	b8000001 	swr	zero,1(zero)
     5fc:	01000001 	movf	zero,t0,$fcc0
     600:	00005500 	sll	t2,zero,0x14
     604:	00000000 	nop
     608:	01940000 	0x1940000
     60c:	01ac0000 	0x1ac0000
     610:	00010000 	sll	zero,at,0x0
     614:	00000056 	0x56
     618:	00000000 	nop
     61c:	00019800 	sll	s3,at,0x0
     620:	0001b000 	sll	s6,at,0x0
     624:	57000100 	bnezl	t8,a28 <.debug_loc+0xa28>
     628:	00000000 	nop
     62c:	00000000 	nop
     630:	000001f0 	tge	zero,zero,0x7
     634:	00000204 	0x204
     638:	00520001 	0x520001
     63c:	00000000 	nop
     640:	10000000 	b	644 <.debug_loc+0x644>
     644:	14000002 	bnez	zero,650 <.debug_loc+0x650>
     648:	01000002 	0x1000002
     64c:	02146d00 	0x2146d00
     650:	02900000 	0x2900000
     654:	00020000 	sll	zero,v0,0x0
     658:	0000108d 	break	0x0,0x42
     65c:	00000000 	nop
     660:	02100000 	0x2100000
     664:	02300000 	0x2300000
     668:	00010000 	sll	zero,at,0x0
     66c:	00023054 	0x23054
     670:	00026c00 	sll	t5,v0,0x10
     674:	61000100 	0x61000100
     678:	00000278 	0x278
     67c:	00000284 	0x284
     680:	00610001 	movt	zero,v1,$fcc0
     684:	00000000 	nop
     688:	10000000 	b	68c <.debug_loc+0x68c>
     68c:	34000002 	li	zero,0x2
     690:	01000002 	0x1000002
     694:	02345500 	0x2345500
     698:	02700000 	0x2700000
     69c:	00010000 	sll	zero,at,0x0
     6a0:	00027860 	0x27860
     6a4:	00028800 	sll	s1,v0,0x0
     6a8:	60000100 	0x60000100
	...
     6b4:	00000244 	0x244
     6b8:	0000024c 	syscall	0x9
     6bc:	00520001 	0x520001
     6c0:	00000000 	nop
     6c4:	5c000000 	bgtzl	zero,6c8 <.debug_loc+0x6c8>
     6c8:	5c000002 	bgtzl	zero,6d4 <.debug_loc+0x6d4>
     6cc:	01000002 	0x1000002
     6d0:	02785200 	0x2785200
     6d4:	02800000 	0x2800000
     6d8:	00010000 	sll	zero,at,0x0
     6dc:	00000052 	mflhxu	zero
     6e0:	00000000 	nop
     6e4:	00022c00 	sll	a1,v0,0x10
     6e8:	00024c00 	sll	t1,v0,0x10
     6ec:	52000100 	beqzl	s0,af0 <.debug_loc+0xaf0>
     6f0:	00000000 	nop
     6f4:	00000000 	nop
     6f8:	00000230 	tge	zero,zero,0x8
     6fc:	00000244 	0x244
     700:	00540001 	movf	zero,v0,$fcc5
     704:	00000000 	nop
     708:	34000000 	li	zero,0x0
     70c:	50000002 	beqzl	zero,718 <.debug_loc+0x718>
     710:	01000002 	0x1000002
     714:	00005500 	sll	t2,zero,0x14
     718:	00000000 	nop
     71c:	02380000 	0x2380000
     720:	02480000 	0x2480000
     724:	00010000 	sll	zero,at,0x0
     728:	00000056 	0x56
     72c:	00000000 	nop
     730:	00024c00 	sll	t1,v0,0x10
     734:	00025c00 	sll	t3,v0,0x10
     738:	52000100 	beqzl	s0,b3c <.debug_loc+0xb3c>
     73c:	00000278 	0x278
     740:	00000280 	sll	zero,zero,0xa
     744:	00520001 	0x520001
     748:	00000000 	nop
     74c:	90000000 	lbu	zero,0(zero)
     750:	94000002 	lhu	zero,2(zero)
     754:	01000002 	0x1000002
     758:	02946d00 	0x2946d00
     75c:	02dc0000 	0x2dc0000
     760:	00020000 	sll	zero,v0,0x0
     764:	0000088d 	break	0x0,0x22
     768:	00000000 	nop
     76c:	02900000 	0x2900000
     770:	02a80000 	0x2a80000
     774:	00010000 	sll	zero,at,0x0
     778:	0002a854 	0x2a854
     77c:	0002d400 	sll	k0,v0,0x10
     780:	60000100 	0x60000100
	...
     78c:	000002c0 	sll	zero,zero,0xb
     790:	000002c8 	0x2c8
     794:	00520001 	0x520001
     798:	00000000 	nop
     79c:	a4000000 	sh	zero,0(zero)
     7a0:	c8000002 	lwc2	$0,2(zero)
     7a4:	01000002 	0x1000002
     7a8:	00005200 	sll	t2,zero,0x8
     7ac:	00000000 	nop
     7b0:	02a80000 	0x2a80000
     7b4:	02c00000 	0x2c00000
     7b8:	00010000 	sll	zero,at,0x0
     7bc:	00000054 	0x54
     7c0:	00000000 	nop
     7c4:	0002ac00 	sll	s5,v0,0x10
     7c8:	0002c400 	sll	t8,v0,0x10
     7cc:	55000100 	bnezl	t0,bd0 <.debug_loc+0xbd0>
     7d0:	00000000 	nop
     7d4:	00000000 	nop
     7d8:	000002b0 	tge	zero,zero,0xa
     7dc:	000002bc 	0x2bc
     7e0:	00560001 	0x560001
     7e4:	00000000 	nop
     7e8:	c8000000 	lwc2	$0,0(zero)
     7ec:	d0000002 	0xd0000002
     7f0:	01000002 	0x1000002
     7f4:	00005200 	sll	t2,zero,0x8
     7f8:	00000000 	nop
     7fc:	02dc0000 	0x2dc0000
     800:	02e00000 	0x2e00000
     804:	00010000 	sll	zero,at,0x0
     808:	0002e06d 	0x2e06d
     80c:	0003bc00 	sll	s7,v1,0x10
     810:	8d000200 	lw	zero,512(t0)
     814:	00000020 	add	zero,zero,zero
     818:	00000000 	nop
     81c:	0002dc00 	sll	k1,v0,0x10
     820:	0002f400 	sll	s8,v0,0x10
     824:	54000100 	bnezl	zero,c28 <.debug_loc+0xc28>
     828:	000002f4 	teq	zero,zero,0xb
     82c:	000003a4 	0x3a4
     830:	ac600001 	sw	zero,1(v1)
     834:	b4000003 	0xb4000003
     838:	01000003 	0x1000003
     83c:	03bc6000 	0x3bc6000
     840:	03bc0000 	0x3bc0000
     844:	00010000 	sll	zero,at,0x0
     848:	00000060 	0x60
     84c:	00000000 	nop
     850:	00033400 	sll	a2,v1,0x10
     854:	00033c00 	sll	a3,v1,0x10
     858:	52000100 	beqzl	s0,c5c <.debug_loc+0xc5c>
     85c:	00000000 	nop
     860:	00000000 	nop
     864:	00000360 	0x360
     868:	000003ac 	0x3ac
     86c:	bc570001 	cache	0x17,1(v0)
     870:	bc000003 	cache	0x0,3(zero)
     874:	01000003 	0x1000003
     878:	00005700 	sll	t2,zero,0x1c
     87c:	00000000 	nop
     880:	03500000 	0x3500000
     884:	03740000 	0x3740000
     888:	00010000 	sll	zero,at,0x0
     88c:	00039452 	0x39452
     890:	0003a000 	sll	s4,v1,0x0
     894:	52000100 	beqzl	s0,c98 <.debug_loc+0xc98>
     898:	000003ac 	0x3ac
     89c:	000003b0 	tge	zero,zero,0xe
     8a0:	bc520001 	cache	0x12,1(v0)
     8a4:	bc000003 	cache	0x0,3(zero)
     8a8:	01000003 	0x1000003
     8ac:	00005200 	sll	t2,zero,0x8
     8b0:	00000000 	nop
     8b4:	02f00000 	0x2f00000
     8b8:	033c0000 	0x33c0000
     8bc:	00010000 	sll	zero,at,0x0
     8c0:	00000052 	mflhxu	zero
     8c4:	00000000 	nop
     8c8:	0002f400 	sll	s8,v0,0x10
     8cc:	00030800 	sll	at,v1,0x0
     8d0:	54000100 	bnezl	zero,cd4 <.debug_loc+0xcd4>
     8d4:	00000000 	nop
     8d8:	00000000 	nop
     8dc:	000002f8 	0x2f8
     8e0:	00000310 	0x310
     8e4:	00550001 	movt	zero,v0,$fcc5
     8e8:	00000000 	nop
     8ec:	fc000000 	sdc3	$0,0(zero)
     8f0:	14000002 	bnez	zero,8fc <.debug_loc+0x8fc>
     8f4:	01000003 	0x1000003
     8f8:	00005600 	sll	t2,zero,0x18
     8fc:	00000000 	nop
     900:	03000000 	0x3000000
     904:	03600000 	0x3600000
     908:	00010000 	sll	zero,at,0x0
     90c:	0003ac57 	0x3ac57
     910:	0003bc00 	sll	s7,v1,0x10
     914:	57000100 	bnezl	t8,d18 <.debug_loc+0xd18>
     918:	00000000 	nop
     91c:	00000000 	nop
     920:	0000033c 	0x33c
     924:	00000374 	teq	zero,zero,0xd
     928:	94520001 	lhu	s2,1(v0)
     92c:	a0000003 	sb	zero,3(zero)
     930:	01000003 	0x1000003
     934:	03ac5200 	0x3ac5200
     938:	03b00000 	0x3b00000
     93c:	00010000 	sll	zero,at,0x0
     940:	0003bc52 	0x3bc52
     944:	0003bc00 	sll	s7,v1,0x10
     948:	52000100 	beqzl	s0,d4c <.debug_loc+0xd4c>
     94c:	00000000 	nop
     950:	00000000 	nop
     954:	00000334 	teq	zero,zero,0xc
     958:	00000368 	0x368
     95c:	94540001 	lhu	s4,1(v0)
     960:	bc000003 	cache	0x0,3(zero)
     964:	01000003 	0x1000003
     968:	00005400 	sll	t2,zero,0x10
     96c:	00000000 	nop
     970:	03400000 	0x3400000
     974:	03640000 	0x3640000
     978:	00010000 	sll	zero,at,0x0
     97c:	00039455 	0x39455
     980:	0003bc00 	sll	s7,v1,0x10
     984:	55000100 	bnezl	t0,d88 <.debug_loc+0xd88>
     988:	00000000 	nop
     98c:	00000000 	nop
     990:	00000344 	0x344
     994:	00000360 	0x360
     998:	94560001 	lhu	s6,1(v0)
     99c:	bc000003 	cache	0x0,3(zero)
     9a0:	01000003 	0x1000003
     9a4:	00005600 	sll	t2,zero,0x18
     9a8:	00000000 	nop
     9ac:	03480000 	0x3480000
     9b0:	03600000 	0x3600000
     9b4:	00010000 	sll	zero,at,0x0
     9b8:	0003ac57 	0x3ac57
     9bc:	0003bc00 	sll	s7,v1,0x10
     9c0:	57000100 	bnezl	t8,dc4 <.debug_loc+0xdc4>
     9c4:	00000000 	nop
     9c8:	00000000 	nop
     9cc:	000003bc 	0x3bc
     9d0:	000003c0 	sll	zero,zero,0xf
     9d4:	c06d0001 	ll	t5,1(v1)
     9d8:	e4000003 	swc1	$f0,3(zero)
     9dc:	02000003 	0x2000003
     9e0:	00088d00 	sll	s1,t0,0x14
     9e4:	00000000 	nop
     9e8:	bc000000 	cache	0x0,0(zero)
     9ec:	d0000003 	0xd0000003
     9f0:	01000003 	0x1000003
     9f4:	00005500 	sll	t2,zero,0x14
     9f8:	00000000 	nop
     9fc:	03cc0000 	0x3cc0000
     a00:	03dc0000 	0x3dc0000
     a04:	00010000 	sll	zero,at,0x0
     a08:	00000052 	mflhxu	zero
     a0c:	00000000 	nop
     a10:	0003e400 	sll	gp,v1,0x10
     a14:	0003e800 	sll	sp,v1,0x0
     a18:	6d000100 	0x6d000100
     a1c:	000003e8 	0x3e8
     a20:	0000040c 	syscall	0x10
     a24:	088d0002 	j	2340008 <main+0x1f3f4a4>
     a28:	00000000 	nop
     a2c:	00000000 	nop
     a30:	000003e4 	0x3e4
     a34:	000003f8 	0x3f8
     a38:	00550001 	movt	zero,v0,$fcc5
     a3c:	00000000 	nop
     a40:	f4000000 	sdc1	$f0,0(zero)
     a44:	04000003 	bltz	zero,a54 <.debug_loc+0xa54>
     a48:	01000004 	sllv	zero,zero,t0
     a4c:	00005200 	sll	t2,zero,0x8
     a50:	00000000 	nop
     a54:	040c0000 	teqi	zero,0
     a58:	04100000 	bltzal	zero,a5c <.debug_loc+0xa5c>
     a5c:	00010000 	sll	zero,at,0x0
     a60:	0004106d 	0x4106d
     a64:	00043400 	sll	a2,a0,0x10
     a68:	8d000200 	lw	zero,512(t0)
     a6c:	00000008 	jr	zero
     a70:	00000000 	nop
     a74:	00041800 	sll	v1,a0,0x0
     a78:	00042c00 	sll	a1,a0,0x10
     a7c:	52000100 	beqzl	s0,e80 <.debug_loc+0xe80>
     a80:	00000000 	nop
     a84:	00000000 	nop
     a88:	00000434 	teq	zero,zero,0x10
     a8c:	00000438 	0x438
     a90:	386d0001 	xori	t5,v1,0x1
     a94:	5c000004 	bgtzl	zero,aa8 <.debug_loc+0xaa8>
     a98:	02000004 	sllv	zero,zero,s0
     a9c:	00088d00 	sll	s1,t0,0x14
     aa0:	00000000 	nop
     aa4:	34000000 	li	zero,0x0
     aa8:	48000004 	mfc2	zero,$0,4
     aac:	01000004 	sllv	zero,zero,t0
     ab0:	00005500 	sll	t2,zero,0x14
     ab4:	00000000 	nop
     ab8:	04440000 	0x4440000
     abc:	04540000 	0x4540000
     ac0:	00010000 	sll	zero,at,0x0
     ac4:	00000052 	mflhxu	zero
     ac8:	00000000 	nop
     acc:	00045c00 	sll	t3,a0,0x10
     ad0:	00046000 	sll	t4,a0,0x0
     ad4:	6d000100 	0x6d000100
     ad8:	00000460 	0x460
     adc:	00000488 	0x488
     ae0:	088d0002 	j	2340008 <main+0x1f3f4a4>
     ae4:	00000000 	nop
     ae8:	00000000 	nop
     aec:	0000045c 	0x45c
     af0:	00000470 	tge	zero,zero,0x11
     af4:	00540001 	movf	zero,v0,$fcc5
     af8:	00000000 	nop
     afc:	6c000000 	0x6c000000
     b00:	80000004 	lb	zero,4(zero)
     b04:	01000004 	sllv	zero,zero,t0
     b08:	00005200 	sll	t2,zero,0x8
     b0c:	00000000 	nop
     b10:	04880000 	tgei	a0,0
     b14:	048c0000 	teqi	a0,0
     b18:	00010000 	sll	zero,at,0x0
     b1c:	00048c6d 	0x48c6d
     b20:	0004b400 	sll	s6,a0,0x10
     b24:	8d000200 	lw	zero,512(t0)
     b28:	00000008 	jr	zero
     b2c:	00000000 	nop
     b30:	00048800 	sll	s1,a0,0x0
     b34:	00049c00 	sll	s3,a0,0x10
     b38:	54000100 	bnezl	zero,f3c <.debug_loc+0xf3c>
     b3c:	00000000 	nop
     b40:	00000000 	nop
     b44:	00000498 	0x498
     b48:	000004ac 	0x4ac
     b4c:	00520001 	0x520001
     b50:	00000000 	nop
     b54:	b4000000 	0xb4000000
     b58:	b8000004 	swr	zero,4(zero)
     b5c:	01000004 	sllv	zero,zero,t0
     b60:	04b86d00 	0x4b86d00
     b64:	04e00000 	bltz	a3,b68 <.debug_loc+0xb68>
     b68:	00020000 	sll	zero,v0,0x0
     b6c:	0000088d 	break	0x0,0x22
     b70:	00000000 	nop
     b74:	04b40000 	0x4b40000
     b78:	04c40000 	0x4c40000
     b7c:	00010000 	sll	zero,at,0x0
     b80:	00000054 	0x54
     b84:	00000000 	nop
     b88:	0004c000 	sll	t8,a0,0x0
     b8c:	0004d800 	sll	k1,a0,0x0
     b90:	52000100 	beqzl	s0,f94 <.debug_loc+0xf94>
     b94:	00000000 	nop
     b98:	00000000 	nop
     b9c:	000004e0 	0x4e0
     ba0:	000004e4 	0x4e4
     ba4:	e46d0001 	swc1	$f13,1(v1)
     ba8:	0c000004 	jal	10 <.debug_loc+0x10>
     bac:	02000005 	0x2000005
     bb0:	00088d00 	sll	s1,t0,0x14
     bb4:	00000000 	nop
     bb8:	e0000000 	sc	zero,0(zero)
     bbc:	f4000004 	sdc1	$f0,4(zero)
     bc0:	01000004 	sllv	zero,zero,t0
     bc4:	00005400 	sll	t2,zero,0x10
     bc8:	00000000 	nop
     bcc:	04f00000 	bltzal	a3,bd0 <.debug_loc+0xbd0>
     bd0:	05040000 	0x5040000
     bd4:	00010000 	sll	zero,at,0x0
     bd8:	00000052 	mflhxu	zero
     bdc:	00000000 	nop
     be0:	00050c00 	sll	at,a1,0x10
     be4:	00051000 	sll	v0,a1,0x0
     be8:	6d000100 	0x6d000100
     bec:	00000510 	0x510
     bf0:	00000538 	0x538
     bf4:	088d0002 	j	2340008 <main+0x1f3f4a4>
     bf8:	00000000 	nop
     bfc:	00000000 	nop
     c00:	0000050c 	syscall	0x14
     c04:	00000520 	0x520
     c08:	00540001 	movf	zero,v0,$fcc5
     c0c:	00000000 	nop
     c10:	1c000000 	bgtz	zero,c14 <.debug_loc+0xc14>
     c14:	30000005 	andi	zero,zero,0x5
     c18:	01000005 	0x1000005
     c1c:	00005200 	sll	t2,zero,0x8
     c20:	00000000 	nop
     c24:	05380000 	0x5380000
     c28:	053c0000 	0x53c0000
     c2c:	00010000 	sll	zero,at,0x0
     c30:	00053c6d 	0x53c6d
     c34:	00056400 	sll	t4,a1,0x10
     c38:	8d000200 	lw	zero,512(t0)
     c3c:	00000008 	jr	zero
     c40:	00000000 	nop
     c44:	00053800 	sll	a3,a1,0x0
     c48:	00054c00 	sll	t1,a1,0x10
     c4c:	54000100 	bnezl	zero,1050 <.debug_loc+0x1050>
     c50:	00000000 	nop
     c54:	00000000 	nop
     c58:	00000548 	0x548
     c5c:	0000055c 	0x55c
     c60:	00520001 	0x520001
     c64:	00000000 	nop
     c68:	64000000 	0x64000000
     c6c:	68000005 	0x68000005
     c70:	01000005 	0x1000005
     c74:	05686d00 	tgei	t3,27904
     c78:	05900000 	bltzal	t4,c7c <.debug_loc+0xc7c>
     c7c:	00020000 	sll	zero,v0,0x0
     c80:	0000088d 	break	0x0,0x22
     c84:	00000000 	nop
     c88:	05640000 	0x5640000
     c8c:	05780000 	0x5780000
     c90:	00010000 	sll	zero,at,0x0
     c94:	00000054 	0x54
     c98:	00000000 	nop
     c9c:	00057400 	sll	t6,a1,0x10
     ca0:	00058800 	sll	s1,a1,0x0
     ca4:	52000100 	beqzl	s0,10a8 <.debug_loc+0x10a8>
     ca8:	00000000 	nop
     cac:	00000000 	nop
     cb0:	00000590 	0x590
     cb4:	00000594 	0x594
     cb8:	946d0001 	lhu	t5,1(v1)
     cbc:	bc000005 	cache	0x0,5(zero)
     cc0:	02000005 	0x2000005
     cc4:	00088d00 	sll	s1,t0,0x14
     cc8:	00000000 	nop
     ccc:	90000000 	lbu	zero,0(zero)
     cd0:	a4000005 	sh	zero,5(zero)
     cd4:	01000005 	0x1000005
     cd8:	00005400 	sll	t2,zero,0x10
     cdc:	00000000 	nop
     ce0:	05a00000 	bltz	t5,ce4 <.debug_loc+0xce4>
     ce4:	05b40000 	0x5b40000
     ce8:	00010000 	sll	zero,at,0x0
     cec:	00000052 	mflhxu	zero
     cf0:	00000000 	nop
     cf4:	0005bc00 	sll	s7,a1,0x10
     cf8:	0005c000 	sll	t8,a1,0x0
     cfc:	6d000100 	0x6d000100
     d00:	000005c0 	sll	zero,zero,0x17
     d04:	000005e8 	0x5e8
     d08:	088d0002 	j	2340008 <main+0x1f3f4a4>
     d0c:	00000000 	nop
     d10:	00000000 	nop
     d14:	000005bc 	0x5bc
     d18:	000005d0 	0x5d0
     d1c:	00540001 	movf	zero,v0,$fcc5
     d20:	00000000 	nop
     d24:	cc000000 	pref	0x0,0(zero)
     d28:	e0000005 	sc	zero,5(zero)
     d2c:	01000005 	0x1000005
     d30:	00005200 	sll	t2,zero,0x8
     d34:	00000000 	nop
     d38:	05e80000 	tgei	t7,0
     d3c:	05ec0000 	teqi	t7,0
     d40:	00010000 	sll	zero,at,0x0
     d44:	0005ec6d 	0x5ec6d
     d48:	00061400 	sll	v0,a2,0x10
     d4c:	8d000200 	lw	zero,512(t0)
     d50:	00000008 	jr	zero
     d54:	00000000 	nop
     d58:	0005e800 	sll	sp,a1,0x0
     d5c:	0005fc00 	sll	ra,a1,0x10
     d60:	54000100 	bnezl	zero,1164 <.debug_loc+0x1164>
     d64:	00000000 	nop
     d68:	00000000 	nop
     d6c:	000005f8 	0x5f8
     d70:	0000060c 	syscall	0x18
     d74:	00520001 	0x520001
     d78:	00000000 	nop
     d7c:	14000000 	bnez	zero,d80 <.debug_loc+0xd80>
     d80:	18000006 	blez	zero,d9c <.debug_loc+0xd9c>
     d84:	01000006 	srlv	zero,zero,t0
     d88:	06186d00 	0x6186d00
     d8c:	06400000 	bltz	s2,d90 <.debug_loc+0xd90>
     d90:	00020000 	sll	zero,v0,0x0
     d94:	0000088d 	break	0x0,0x22
     d98:	00000000 	nop
     d9c:	06140000 	0x6140000
     da0:	06280000 	tgei	s1,0
     da4:	00010000 	sll	zero,at,0x0
     da8:	00000054 	0x54
     dac:	00000000 	nop
     db0:	00062400 	sll	a0,a2,0x10
     db4:	00063800 	sll	a3,a2,0x0
     db8:	52000100 	beqzl	s0,11bc <.debug_loc+0x11bc>
     dbc:	00000000 	nop
     dc0:	00000000 	nop
     dc4:	00000640 	sll	zero,zero,0x19
     dc8:	00000644 	0x644
     dcc:	446d0001 	0x446d0001
     dd0:	6c000006 	0x6c000006
     dd4:	02000006 	srlv	zero,zero,s0
     dd8:	00088d00 	sll	s1,t0,0x14
     ddc:	00000000 	nop
     de0:	40000000 	mfc0	zero,c0_index
     de4:	54000006 	bnezl	zero,e00 <.debug_loc+0xe00>
     de8:	01000006 	srlv	zero,zero,t0
     dec:	00005400 	sll	t2,zero,0x10
     df0:	00000000 	nop
     df4:	06500000 	bltzal	s2,df8 <.debug_loc+0xdf8>
     df8:	06640000 	0x6640000
     dfc:	00010000 	sll	zero,at,0x0
     e00:	00000052 	mflhxu	zero
     e04:	00000000 	nop
     e08:	00066c00 	sll	t5,a2,0x10
     e0c:	00067000 	sll	t6,a2,0x0
     e10:	6d000100 	0x6d000100
     e14:	00000670 	tge	zero,zero,0x19
     e18:	00000698 	0x698
     e1c:	088d0002 	j	2340008 <main+0x1f3f4a4>
     e20:	00000000 	nop
     e24:	00000000 	nop
     e28:	0000066c 	0x66c
     e2c:	00000680 	sll	zero,zero,0x1a
     e30:	00540001 	movf	zero,v0,$fcc5
     e34:	00000000 	nop
     e38:	7c000000 	0x7c000000
     e3c:	90000006 	lbu	zero,6(zero)
     e40:	01000006 	srlv	zero,zero,t0
     e44:	00005200 	sll	t2,zero,0x8
     e48:	00000000 	nop
     e4c:	06980000 	0x6980000
     e50:	069c0000 	0x69c0000
     e54:	00010000 	sll	zero,at,0x0
     e58:	00069c6d 	0x69c6d
     e5c:	0006c400 	sll	t8,a2,0x10
     e60:	8d000200 	lw	zero,512(t0)
     e64:	00000008 	jr	zero
     e68:	00000000 	nop
     e6c:	0006a400 	sll	s4,a2,0x10
     e70:	0006bc00 	sll	s7,a2,0x10
     e74:	52000100 	beqzl	s0,1278 <.debug_loc+0x1278>
     e78:	00000000 	nop
     e7c:	00000000 	nop
     e80:	000006c4 	0x6c4
     e84:	000006c8 	0x6c8
     e88:	c86d0001 	lwc2	$13,1(v1)
     e8c:	ec000006 	swc3	$0,6(zero)
     e90:	02000006 	srlv	zero,zero,s0
     e94:	00088d00 	sll	s1,t0,0x14
     e98:	00000000 	nop
     e9c:	d0000000 	0xd0000000
     ea0:	e4000006 	swc1	$f0,6(zero)
     ea4:	01000006 	srlv	zero,zero,t0
     ea8:	00005200 	sll	t2,zero,0x8
     eac:	00000000 	nop
     eb0:	06ec0000 	teqi	s7,0
     eb4:	06f00000 	bltzal	s7,eb8 <.debug_loc+0xeb8>
     eb8:	00010000 	sll	zero,at,0x0
     ebc:	0006f06d 	0x6f06d
     ec0:	00071400 	sll	v0,a3,0x10
     ec4:	8d000200 	lw	zero,512(t0)
     ec8:	00000008 	jr	zero
     ecc:	00000000 	nop
     ed0:	0006f800 	sll	ra,a2,0x0
     ed4:	00070c00 	sll	at,a3,0x10
     ed8:	52000100 	beqzl	s0,12dc <.debug_loc+0x12dc>
     edc:	00000000 	nop
     ee0:	00000000 	nop
     ee4:	00000714 	0x714
     ee8:	00000718 	0x718
     eec:	186d0001 	0x186d0001
     ef0:	6c000007 	0x6c000007
     ef4:	02000007 	srav	zero,zero,s0
     ef8:	00088d00 	sll	s1,t0,0x14
     efc:	00000000 	nop
     f00:	20000000 	addi	zero,zero,0
     f04:	3c000007 	lui	zero,0x7
     f08:	01000007 	srav	zero,zero,t0
     f0c:	00005200 	sll	t2,zero,0x8
     f10:	00000000 	nop
     f14:	076c0000 	teqi	k1,0
     f18:	07700000 	bltzal	k1,f1c <.debug_loc+0xf1c>
     f1c:	00010000 	sll	zero,at,0x0
     f20:	0007706d 	0x7706d
     f24:	000ab000 	sll	s6,t2,0x0
     f28:	8d000300 	lw	zero,768(t0)
     f2c:	000000c0 	sll	zero,zero,0x3
     f30:	00000000 	nop
     f34:	076c0000 	teqi	k1,0
     f38:	07c80000 	tgei	s8,0
     f3c:	00010000 	sll	zero,at,0x0
     f40:	0007c854 	0x7c854
     f44:	0007f400 	sll	s8,a3,0x10
     f48:	62000100 	0x62000100
     f4c:	000007f4 	teq	zero,zero,0x1f
     f50:	00000828 	0x828
     f54:	28610001 	slti	at,v1,1
     f58:	4c000008 	0x4c000008
     f5c:	01000008 	jr	t0
     f60:	084c6200 	j	1318800 <main+0xf17c9c>
     f64:	08500000 	j	1400000 <main+0xfff49c>
     f68:	00010000 	sll	zero,at,0x0
     f6c:	00085c61 	0x85c61
     f70:	00089800 	sll	s3,t0,0x0
     f74:	61000100 	0x61000100
     f78:	00000898 	0x898
     f7c:	000008b8 	0x8b8
     f80:	b8620001 	swr	v0,1(v1)
     f84:	64000008 	0x64000008
     f88:	01000009 	jalr	zero,t0
     f8c:	09646100 	j	5918400 <main+0x551789c>
     f90:	099c0000 	j	6700000 <main+0x62ff49c>
     f94:	00010000 	sll	zero,at,0x0
     f98:	00099c62 	0x99c62
     f9c:	0009c000 	sll	t8,t1,0x0
     fa0:	61000100 	0x61000100
     fa4:	000009c0 	sll	at,zero,0x7
     fa8:	000009c8 	0x9c8
     fac:	c8620001 	lwc2	$2,1(v1)
     fb0:	80000009 	lb	zero,9(zero)
     fb4:	0100000a 	movz	zero,t0,zero
     fb8:	0a806100 	j	a018400 <main+0x9c1789c>
     fbc:	0a880000 	j	a200000 <main+0x9dff49c>
     fc0:	00010000 	sll	zero,at,0x0
     fc4:	000a8862 	0xa8862
     fc8:	000a9000 	sll	s2,t2,0x0
     fcc:	61000100 	0x61000100
     fd0:	00000a90 	0xa90
     fd4:	00000a98 	0xa98
     fd8:	98620001 	lwr	v0,1(v1)
     fdc:	a000000a 	sb	zero,10(zero)
     fe0:	0100000a 	movz	zero,t0,zero
     fe4:	0aa06100 	j	a818400 <main+0xa41789c>
     fe8:	0aa80000 	j	aa00000 <main+0xa5ff49c>
     fec:	00010000 	sll	zero,at,0x0
     ff0:	000aa862 	0xaa862
     ff4:	000aa800 	sll	s5,t2,0x0
     ff8:	61000100 	0x61000100
     ffc:	00000aa8 	0xaa8
    1000:	00000ab0 	tge	zero,zero,0x2a
    1004:	00620001 	0x620001
    1008:	00000000 	nop
    100c:	dc000000 	ldc3	$0,0(zero)
    1010:	f4000007 	sdc1	$f0,7(zero)
    1014:	01000007 	srav	zero,zero,t0
    1018:	08286000 	j	a18000 <main+0x61749c>
    101c:	08540000 	j	1500000 <main+0x10ff49c>
    1020:	00010000 	sll	zero,at,0x0
    1024:	0008a460 	0x8a460
    1028:	00094c00 	sll	t1,t1,0x10
    102c:	60000100 	0x60000100
    1030:	0000094c 	syscall	0x25
    1034:	00000964 	0x964
    1038:	64530001 	0x64530001
    103c:	18000009 	blez	zero,1064 <.debug_loc+0x1064>
    1040:	0100000a 	movz	zero,t0,zero
    1044:	0a186000 	j	8618000 <main+0x821749c>
    1048:	0a200000 	j	8800000 <main+0x83ff49c>
    104c:	00010000 	sll	zero,at,0x0
    1050:	000a2052 	0xa2052
    1054:	000a6c00 	sll	t5,t2,0x10
    1058:	60000100 	0x60000100
    105c:	00000a6c 	0xa6c
    1060:	00000a74 	teq	zero,zero,0x29
    1064:	74520001 	jalx	1480004 <main+0x107f4a0>
    1068:	8000000a 	lb	zero,10(zero)
    106c:	0100000a 	movz	zero,t0,zero
    1070:	0a886000 	j	a218000 <main+0x9e1749c>
    1074:	0a900000 	j	a400000 <main+0x9fff49c>
    1078:	00010000 	sll	zero,at,0x0
    107c:	000a9860 	0xa9860
    1080:	000aa000 	sll	s4,t2,0x0
    1084:	60000100 	0x60000100
    1088:	00000aa8 	0xaa8
    108c:	00000ab0 	tge	zero,zero,0x2a
    1090:	00600001 	movf	zero,v1,$fcc0
    1094:	00000000 	nop
    1098:	dc000000 	ldc3	$0,0(zero)
    109c:	f4000007 	sdc1	$f0,7(zero)
    10a0:	01000007 	srav	zero,zero,t0
    10a4:	08286000 	j	a18000 <main+0x61749c>
    10a8:	08540000 	j	1500000 <main+0x10ff49c>
    10ac:	00010000 	sll	zero,at,0x0
    10b0:	00096060 	0x96060
    10b4:	00099c00 	sll	s3,t1,0x10
    10b8:	60000100 	0x60000100
    10bc:	00000a80 	sll	at,zero,0xa
    10c0:	00000a88 	0xa88
    10c4:	90600001 	lbu	zero,1(v1)
    10c8:	9800000a 	lwr	zero,10(zero)
    10cc:	0100000a 	movz	zero,t0,zero
    10d0:	0aa06000 	j	a818000 <main+0xa41749c>
    10d4:	0aa80000 	j	aa00000 <main+0xa5ff49c>
    10d8:	00010000 	sll	zero,at,0x0
    10dc:	00000060 	0x60
    10e0:	00000000 	nop
    10e4:	00096400 	sll	t4,t1,0x10
    10e8:	00097400 	sll	t6,t1,0x10
    10ec:	56000100 	bnezl	s0,14f0 <.debug_loc+0x14f0>
    10f0:	000009a8 	0x9a8
    10f4:	000009c8 	0x9c8
    10f8:	00560001 	0x560001
    10fc:	00000000 	nop
    1100:	08000000 	j	0 <.debug_loc>
    1104:	64000009 	0x64000009
    1108:	01000009 	jalr	zero,t0
    110c:	09645600 	j	5915800 <main+0x5514c9c>
    1110:	097c0000 	j	5f00000 <main+0x5aff49c>
    1114:	00010000 	sll	zero,at,0x0
    1118:	0009f858 	0x9f858
    111c:	000a8800 	sll	s1,t2,0x0
    1120:	58000100 	blezl	zero,1524 <.debug_loc+0x1524>
    1124:	00000a98 	0xa98
    1128:	00000aa8 	0xaa8
    112c:	00580001 	movf	zero,v0,$fcc6
    1130:	00000000 	nop
    1134:	f0000000 	0xf0000000
    1138:	04000009 	bltz	zero,1160 <.debug_loc+0x1160>
    113c:	0100000a 	movz	zero,t0,zero
    1140:	0a385200 	j	8e14800 <main+0x8a13c9c>
    1144:	0a3c0000 	j	8f00000 <main+0x8aff49c>
    1148:	00010000 	sll	zero,at,0x0
    114c:	00000052 	mflhxu	zero
    1150:	00000000 	nop
    1154:	0009e800 	sll	sp,t1,0x0
    1158:	000a1000 	sll	v0,t2,0x0
    115c:	54000100 	bnezl	zero,1560 <.debug_loc+0x1560>
    1160:	00000a38 	0xa38
    1164:	00000a64 	0xa64
    1168:	00540001 	movf	zero,v0,$fcc5
    116c:	00000000 	nop
    1170:	d0000000 	0xd0000000
    1174:	34000007 	li	zero,0x7
    1178:	01000008 	jr	t0
    117c:	085c6e00 	j	171b800 <main+0x131ac9c>
    1180:	0a040000 	j	8100000 <main+0x7cff49c>
    1184:	00010000 	sll	zero,at,0x0
    1188:	000a046e 	0xa046e
    118c:	000a1c00 	sll	v1,t2,0x10
    1190:	55000100 	bnezl	t0,1594 <.debug_loc+0x1594>
    1194:	00000a1c 	0xa1c
    1198:	00000a4c 	syscall	0x29
    119c:	4c6e0001 	0x4c6e0001
    11a0:	7000000a 	0x7000000a
    11a4:	0100000a 	movz	zero,t0,zero
    11a8:	0a705500 	j	9c15400 <main+0x981489c>
    11ac:	0ab00000 	j	ac00000 <main+0xa7ff49c>
    11b0:	00010000 	sll	zero,at,0x0
    11b4:	0000006e 	0x6e
    11b8:	00000000 	nop
    11bc:	0009e400 	sll	gp,t1,0x10
    11c0:	000a0c00 	sll	at,t2,0x10
    11c4:	56000100 	bnezl	s0,15c8 <.debug_loc+0x15c8>
    11c8:	00000a38 	0xa38
    11cc:	00000a60 	0xa60
    11d0:	00560001 	0x560001
    11d4:	00000000 	nop
    11d8:	f4000000 	sdc1	$f0,0(zero)
    11dc:	fc000009 	sdc3	$0,9(zero)
    11e0:	01000009 	jalr	zero,t0
    11e4:	00005700 	sll	t2,zero,0x1c
    11e8:	00000000 	nop
    11ec:	08dc0000 	j	3700000 <main+0x32ff49c>
    11f0:	08f40000 	j	3d00000 <main+0x38ff49c>
    11f4:	00010000 	sll	zero,at,0x0
    11f8:	00000052 	mflhxu	zero
    11fc:	00000000 	nop
    1200:	0008e000 	sll	gp,t0,0x0
    1204:	0008f400 	sll	s8,t0,0x10
    1208:	54000100 	bnezl	zero,160c <.debug_loc+0x160c>
    120c:	00000000 	nop
    1210:	00000000 	nop
    1214:	000008e4 	0x8e4
    1218:	000008f0 	tge	zero,zero,0x23
    121c:	00550001 	movt	zero,v0,$fcc5
    1220:	00000000 	nop
    1224:	e4000000 	swc1	$f0,0(zero)
    1228:	00000008 	jr	zero
    122c:	01000009 	jalr	zero,t0
    1230:	00005600 	sll	t2,zero,0x18
    1234:	00000000 	nop
    1238:	08e80000 	j	3a00000 <main+0x35ff49c>
    123c:	09100000 	j	4400000 <main+0x3fff49c>
    1240:	00010000 	sll	zero,at,0x0
    1244:	00000057 	0x57
    1248:	00000000 	nop
    124c:	0008fc00 	sll	ra,t0,0x10
    1250:	00092c00 	sll	a1,t1,0x10
    1254:	52000100 	beqzl	s0,1658 <.debug_loc+0x1658>
    1258:	00000000 	nop
    125c:	00000000 	nop
    1260:	000008f4 	teq	zero,zero,0x23
    1264:	00000918 	0x918
    1268:	00540001 	movf	zero,v0,$fcc5
    126c:	00000000 	nop
    1270:	f0000000 	0xf0000000
    1274:	0c000008 	jal	20 <.debug_loc+0x20>
    1278:	01000009 	jalr	zero,t0
    127c:	00005500 	sll	t2,zero,0x14
    1280:	00000000 	nop
    1284:	09000000 	j	4000000 <main+0x3bff49c>
    1288:	09080000 	j	4200000 <main+0x3dff49c>
    128c:	00010000 	sll	zero,at,0x0
    1290:	00000056 	0x56
    1294:	00000000 	nop
    1298:	00090400 	sll	zero,t1,0x10
    129c:	00091000 	sll	v0,t1,0x0
    12a0:	57000100 	bnezl	t8,16a4 <.debug_loc+0x16a4>
    12a4:	00000000 	nop
    12a8:	00000000 	nop
    12ac:	00000968 	0x968
    12b0:	00000980 	sll	at,zero,0x6
    12b4:	00520001 	0x520001
    12b8:	00000000 	nop
    12bc:	6c000000 	0x6c000000
    12c0:	80000009 	lb	zero,9(zero)
    12c4:	01000009 	jalr	zero,t0
    12c8:	00005400 	sll	t2,zero,0x10
    12cc:	00000000 	nop
    12d0:	09700000 	j	5c00000 <main+0x57ff49c>
    12d4:	09840000 	j	6100000 <main+0x5cff49c>
    12d8:	00010000 	sll	zero,at,0x0
    12dc:	00000055 	0x55
    12e0:	00000000 	nop
    12e4:	00097400 	sll	t6,t1,0x10
    12e8:	00098800 	sll	s1,t1,0x0
    12ec:	56000100 	bnezl	s0,16f0 <.debug_loc+0x16f0>
    12f0:	00000000 	nop
    12f4:	00000000 	nop
    12f8:	000007dc 	0x7dc
    12fc:	0000086c 	0x86c
    1300:	90570001 	lbu	s7,1(v0)
    1304:	e8000008 	swc2	$0,8(zero)
    1308:	01000008 	jr	t0
    130c:	09045700 	j	4115c00 <main+0x3d1509c>
    1310:	09100000 	j	4400000 <main+0x3fff49c>
    1314:	00010000 	sll	zero,at,0x0
    1318:	00096457 	0x96457
    131c:	0009dc00 	sll	k1,t1,0x10
    1320:	57000100 	bnezl	t8,1724 <max_locks_number+0x1704>
    1324:	00000a88 	0xa88
    1328:	00000a98 	0xa98
    132c:	a8570001 	swl	s7,1(v0)
    1330:	b000000a 	0xb000000a
    1334:	0100000a 	movz	zero,t0,zero
    1338:	00005700 	sll	t2,zero,0x1c
    133c:	00000000 	nop
    1340:	07dc0000 	0x7dc0000
    1344:	07f00000 	bltzal	ra,1348 <.debug_loc+0x1348>
    1348:	00010000 	sll	zero,at,0x0
    134c:	00082852 	0x82852
    1350:	00083000 	sll	a2,t0,0x0
    1354:	52000100 	beqzl	s0,1758 <max_locks_number+0x1738>
    1358:	0000098c 	syscall	0x26
    135c:	0000099c 	0x99c
    1360:	00520001 	0x520001
    1364:	00000000 	nop
    1368:	80000000 	lb	zero,0(zero)
    136c:	94000009 	lhu	zero,9(zero)
    1370:	01000009 	jalr	zero,t0
    1374:	00005400 	sll	t2,zero,0x10
    1378:	00000000 	nop
    137c:	07dc0000 	0x7dc0000
    1380:	08640000 	j	1900000 <main+0x14ff49c>
    1384:	00010000 	sll	zero,at,0x0
    1388:	00089055 	0x89055
    138c:	0008e400 	sll	gp,t0,0x10
    1390:	55000100 	bnezl	t0,1794 <max_locks_number+0x1774>
    1394:	00000904 	0x904
    1398:	0000090c 	syscall	0x24
    139c:	64550001 	0x64550001
    13a0:	70000009 	0x70000009
    13a4:	01000009 	jalr	zero,t0
    13a8:	09845500 	j	6115400 <main+0x5d1489c>
    13ac:	09d40000 	j	7500000 <main+0x70ff49c>
    13b0:	00010000 	sll	zero,at,0x0
    13b4:	000a8855 	0xa8855
    13b8:	000a9800 	sll	s3,t2,0x0
    13bc:	55000100 	bnezl	t0,17c0 <max_locks_number+0x17a0>
    13c0:	00000aa8 	0xaa8
    13c4:	00000ab0 	tge	zero,zero,0x2a
    13c8:	00550001 	movt	zero,v0,$fcc5
    13cc:	00000000 	nop
    13d0:	dc000000 	ldc3	$0,0(zero)
    13d4:	68000007 	0x68000007
    13d8:	01000008 	jr	t0
    13dc:	08905600 	j	2415800 <main+0x2014c9c>
    13e0:	08e40000 	j	3900000 <main+0x34ff49c>
    13e4:	00010000 	sll	zero,at,0x0
    13e8:	00090456 	0x90456
    13ec:	00090800 	sll	at,t1,0x0
    13f0:	56000100 	bnezl	s0,17f4 <max_locks_number+0x17d4>
    13f4:	00000964 	0x964
    13f8:	00000974 	teq	zero,zero,0x25
    13fc:	88560001 	lwl	s6,1(v0)
    1400:	a8000009 	swl	zero,9(zero)
    1404:	01000009 	jalr	zero,t0
    1408:	09c85600 	j	7215800 <main+0x6e14c9c>
    140c:	09d80000 	j	7600000 <main+0x71ff49c>
    1410:	00010000 	sll	zero,at,0x0
    1414:	000a8856 	0xa8856
    1418:	000a9800 	sll	s3,t2,0x0
    141c:	56000100 	bnezl	s0,1820 <max_locks_number+0x1800>
    1420:	00000aa8 	0xaa8
    1424:	00000ab0 	tge	zero,zero,0x2a
    1428:	00560001 	0x560001
    142c:	00000000 	nop
    1430:	dc000000 	ldc3	$0,0(zero)
    1434:	6c000007 	0x6c000007
    1438:	01000008 	jr	t0
    143c:	08905700 	j	2415c00 <main+0x201509c>
    1440:	08e80000 	j	3a00000 <main+0x35ff49c>
    1444:	00010000 	sll	zero,at,0x0
    1448:	00090457 	0x90457
    144c:	00091000 	sll	v0,t1,0x0
    1450:	57000100 	bnezl	t8,1854 <max_locks_number+0x1834>
    1454:	00000964 	0x964
    1458:	00000978 	0x978
    145c:	90570001 	lbu	s7,1(v0)
    1460:	dc000009 	ldc3	$0,9(zero)
    1464:	01000009 	jalr	zero,t0
    1468:	0a885700 	j	a215c00 <main+0x9e1509c>
    146c:	0a980000 	j	a600000 <main+0xa1ff49c>
    1470:	00010000 	sll	zero,at,0x0
    1474:	000aa857 	0xaa857
    1478:	000ab000 	sll	s6,t2,0x0
    147c:	57000100 	bnezl	t8,1880 <max_locks_number+0x1860>
    1480:	00000000 	nop
    1484:	00000000 	nop
    1488:	000009cc 	syscall	0x27
    148c:	000009e8 	0x9e8
    1490:	00520001 	0x520001
    1494:	00000000 	nop
    1498:	d0000000 	0xd0000000
    149c:	e8000009 	swc2	$0,9(zero)
    14a0:	01000009 	jalr	zero,t0
    14a4:	00005400 	sll	t2,zero,0x10
    14a8:	00000000 	nop
    14ac:	09d40000 	j	7500000 <main+0x70ff49c>
    14b0:	09ec0000 	j	7b00000 <main+0x76ff49c>
    14b4:	00010000 	sll	zero,at,0x0
    14b8:	00000055 	0x55
    14bc:	00000000 	nop
    14c0:	0009d800 	sll	k1,t1,0x0
    14c4:	0009e400 	sll	gp,t1,0x10
    14c8:	56000100 	bnezl	s0,18cc <max_locks_number+0x18ac>
    14cc:	00000000 	nop
    14d0:	00000000 	nop
    14d4:	000009dc 	0x9dc
    14d8:	000009fc 	0x9fc
    14dc:	00570001 	0x570001
    14e0:	00000000 	nop
    14e4:	e4000000 	swc1	$f0,0(zero)
    14e8:	54000007 	bnezl	zero,1508 <.debug_loc+0x1508>
    14ec:	01000008 	jr	t0
    14f0:	085c6000 	j	1718000 <main+0x131749c>
    14f4:	08a40000 	j	2900000 <main+0x24ff49c>
    14f8:	00010000 	sll	zero,at,0x0
    14fc:	00000060 	0x60
    1500:	00000000 	nop
    1504:	0007e400 	sll	gp,a3,0x10
    1508:	0007f000 	sll	s8,a3,0x0
    150c:	52000100 	beqzl	s0,1910 <max_locks_number+0x18f0>
    1510:	00000820 	add	at,zero,zero
    1514:	00000830 	tge	zero,zero,0x20
    1518:	80520001 	lb	s2,1(v0)
    151c:	a4000008 	sh	zero,8(zero)
    1520:	01000008 	jr	t0
    1524:	00005200 	sll	t2,zero,0x8
    1528:	00000000 	nop
    152c:	08740000 	j	1d00000 <main+0x18ff49c>
    1530:	08880000 	j	2200000 <main+0x1dff49c>
    1534:	00010000 	sll	zero,at,0x0
    1538:	00000054 	0x54
    153c:	00000000 	nop
    1540:	0007dc00 	sll	k1,a3,0x10
    1544:	00086400 	sll	t4,t0,0x10
    1548:	55000100 	bnezl	t0,194c <max_locks_number+0x192c>
    154c:	00000878 	0x878
    1550:	000008e4 	0x8e4
    1554:	04550001 	0x4550001
    1558:	0c000009 	jal	24 <.debug_loc+0x24>
    155c:	01000009 	jalr	zero,t0
    1560:	09645500 	j	5915400 <main+0x551489c>
    1564:	09700000 	j	5c00000 <main+0x57ff49c>
    1568:	00010000 	sll	zero,at,0x0
    156c:	00099055 	0x99055
    1570:	0009d400 	sll	k0,t1,0x10
    1574:	55000100 	bnezl	t0,1978 <max_locks_number+0x1958>
    1578:	00000a88 	0xa88
    157c:	00000a98 	0xa98
    1580:	a8550001 	swl	s5,1(v0)
    1584:	b000000a 	0xb000000a
    1588:	0100000a 	movz	zero,t0,zero
    158c:	00005500 	sll	t2,zero,0x14
    1590:	00000000 	nop
    1594:	07dc0000 	0x7dc0000
    1598:	08680000 	j	1a00000 <main+0x15ff49c>
    159c:	00010000 	sll	zero,at,0x0
    15a0:	00087c56 	0x87c56
    15a4:	0008e400 	sll	gp,t0,0x10
    15a8:	56000100 	bnezl	s0,19ac <max_locks_number+0x198c>
    15ac:	00000904 	0x904
    15b0:	00000908 	0x908
    15b4:	64560001 	0x64560001
    15b8:	74000009 	jalx	24 <.debug_loc+0x24>
    15bc:	01000009 	jalr	zero,t0
    15c0:	09905600 	j	6415800 <main+0x6014c9c>
    15c4:	09a80000 	j	6a00000 <main+0x65ff49c>
    15c8:	00010000 	sll	zero,at,0x0
    15cc:	0009c856 	0x9c856
    15d0:	0009d800 	sll	k1,t1,0x0
    15d4:	56000100 	bnezl	s0,19d8 <max_locks_number+0x19b8>
    15d8:	00000a88 	0xa88
    15dc:	00000a98 	0xa98
    15e0:	a8560001 	swl	s6,1(v0)
    15e4:	b000000a 	0xb000000a
    15e8:	0100000a 	movz	zero,t0,zero
    15ec:	00005600 	sll	t2,zero,0x18
    15f0:	00000000 	nop
    15f4:	07dc0000 	0x7dc0000
    15f8:	086c0000 	j	1b00000 <main+0x16ff49c>
    15fc:	00010000 	sll	zero,at,0x0
    1600:	00088457 	0x88457
    1604:	0008e800 	sll	sp,t0,0x0
    1608:	57000100 	bnezl	t8,1a0c <max_locks_number+0x19ec>
    160c:	00000904 	0x904
    1610:	00000910 	0x910
    1614:	64570001 	0x64570001
    1618:	78000009 	0x78000009
    161c:	01000009 	jalr	zero,t0
    1620:	09905700 	j	6415c00 <main+0x601509c>
    1624:	09dc0000 	j	7700000 <main+0x72ff49c>
    1628:	00010000 	sll	zero,at,0x0
    162c:	000a8857 	0xa8857
    1630:	000a9800 	sll	s3,t2,0x0
    1634:	57000100 	bnezl	t8,1a38 <max_locks_number+0x1a18>
    1638:	00000aa8 	0xaa8
    163c:	00000ab0 	tge	zero,zero,0x2a
    1640:	00570001 	0x570001
    1644:	00000000 	nop
    1648:	60000000 	0x60000000
    164c:	74000008 	jalx	20 <.debug_loc+0x20>
    1650:	01000008 	jr	t0
    1654:	00005200 	sll	t2,zero,0x8
    1658:	00000000 	nop
    165c:	08640000 	j	1900000 <main+0x14ff49c>
    1660:	08740000 	j	1d00000 <main+0x18ff49c>
    1664:	00010000 	sll	zero,at,0x0
    1668:	00000054 	0x54
    166c:	00000000 	nop
    1670:	00086400 	sll	t4,t0,0x10
    1674:	00087800 	sll	t7,t0,0x0
    1678:	55000100 	bnezl	t0,1a7c <max_locks_number+0x1a5c>
    167c:	00000000 	nop
    1680:	00000000 	nop
    1684:	00000868 	0x868
    1688:	0000087c 	0x87c
    168c:	00560001 	0x560001
    1690:	00000000 	nop
    1694:	dc000000 	ldc3	$0,0(zero)
    1698:	e8000007 	swc2	$0,7(zero)
    169c:	01000008 	jr	t0
    16a0:	09045700 	j	4115c00 <main+0x3d1509c>
    16a4:	09100000 	j	4400000 <main+0x3fff49c>
    16a8:	00010000 	sll	zero,at,0x0
    16ac:	00096457 	0x96457
    16b0:	00097800 	sll	t7,t1,0x0
    16b4:	57000100 	bnezl	t8,1ab8 <max_locks_number+0x1a98>
    16b8:	00000990 	0x990
    16bc:	000009dc 	0x9dc
    16c0:	88570001 	lwl	s7,1(v0)
    16c4:	9800000a 	lwr	zero,10(zero)
    16c8:	0100000a 	movz	zero,t0,zero
    16cc:	0aa85700 	j	aa15c00 <main+0xa61509c>
    16d0:	0ab00000 	j	ac00000 <main+0xa7ff49c>
    16d4:	00010000 	sll	zero,at,0x0
    16d8:	00000057 	0x57
	...
    16e4:	00002000 	sll	a0,zero,0x0
    16e8:	6d000100 	0x6d000100
    16ec:	00000020 	add	zero,zero,zero
    16f0:	00000084 	0x84
    16f4:	388d0002 	xori	t5,a0,0x2
	...

Disassembly of section .debug_pubnames:

00000000 <.debug_pubnames>:
   0:	000000e8 	0xe8
   4:	00000002 	srl	zero,zero,0x0
   8:	06980000 	0x6980000
   c:	01250000 	0x1250000
  10:	705f0000 	madd	v0,ra
  14:	69636f72 	0x69636f72
  18:	01460064 	0x1460064
  1c:	705f0000 	madd	v0,ra
  20:	74636f72 	jalx	18dbdc8 <main+0x14db264>
  24:	00656d69 	0x656d69
  28:	00000167 	0x167
  2c:	6d69745f 	0x6d69745f
  30:	775f7265 	jalx	d7dc994 <main+0xd3dbe30>
  34:	65746972 	0x65746972
  38:	0001d100 	sll	k0,at,0x4
  3c:	69745f00 	0x69745f00
  40:	5f72656d 	0x5f72656d
  44:	64616572 	0x64616572
  48:	00023600 	sll	a2,v0,0x18
  4c:	74745f00 	jalx	1d17c00 <main+0x191709c>
  50:	72775f79 	0x72775f79
  54:	00657469 	0x657469
  58:	0000027c 	0x27c
  5c:	7974745f 	0x7974745f
  60:	6165725f 	0x6165725f
  64:	02fb0064 	0x2fb0064
  68:	655f0000 	0x655f0000
  6c:	00746978 	0x746978
  70:	000003a8 	0x3a8
  74:	616d645f 	0x616d645f
  78:	6972775f 	0x6972775f
  7c:	ed006574 	swc3	$0,25972(t0)
  80:	5f000003 	bgtzl	t8,90 <.debug_pubnames+0x90>
  84:	5f616d64 	0x5f616d64
  88:	64616572 	0x64616572
  8c:	00043400 	sll	a2,a0,0x10
  90:	63695f00 	0x63695f00
  94:	72775f75 	0x72775f75
  98:	00657469 	0x657469
  9c:	00000479 	0x479
  a0:	7563695f 	jalx	58da57c <main+0x54d9a18>
  a4:	6165725f 	0x6165725f
  a8:	04c00064 	bltz	a2,23c <.debug_pubnames+0x23c>
  ac:	675f0000 	0x675f0000
  b0:	775f6463 	jalx	d7d918c <main+0xd3d8628>
  b4:	65746972 	0x65746972
  b8:	00050500 	sll	zero,a1,0x14
  bc:	63675f00 	0x63675f00
  c0:	65725f64 	0x65725f64
  c4:	4c006461 	0x4c006461
  c8:	5f000005 	bgtzl	t8,e0 <.debug_pubnames+0xe0>
  cc:	6b636f6c 	0x6b636f6c
  d0:	72775f73 	0x72775f73
  d4:	00657469 	0x657469
  d8:	00000593 	0x593
  dc:	636f6c5f 	0x636f6c5f
  e0:	725f736b 	0x725f736b
  e4:	00646165 	0x646165
  e8:	00000000 	nop
  ec:	0000007b 	0x7b
  f0:	06980002 	0x6980002
  f4:	01480000 	0x1480000
  f8:	00250000 	0x250000
  fc:	73750000 	madd	k1,s5
 100:	705f7265 	0x705f7265
 104:	00637475 	0x637475
 108:	0000006f 	0x6f
 10c:	72657375 	0x72657375
 110:	7465675f 	jalx	1959d7c <main+0x1559218>
 114:	00b10063 	0xb10063
 118:	4d440000 	0x4d440000
 11c:	59535f41 	0x59535f41
 120:	db00434e 	ldc2	$0,17230(t8)
 124:	54000000 	bnezl	zero,128 <.debug_pubnames+0x128>
 128:	475f5954 	c1	0x15f5954
 12c:	535f5445 	beql	k0,ra,15244 <max_locks_number+0x15224>
 130:	00434e59 	0x434e59
 134:	00000102 	srl	zero,zero,0x4
 138:	5f595454 	0x5f595454
 13c:	5f544547 	0x5f544547
 140:	41544144 	0x41544144
 144:	00011900 	sll	v1,at,0x4
 148:	59545400 	0x59545400
 14c:	5455505f 	bnel	v0,s5,142cc <max_locks_number+0x142ac>
 150:	4e59535f 	c3	0x59535f
 154:	01300043 	0x1300043
 158:	54540000 	bnel	v0,s4,15c <.debug_pubnames+0x15c>
 15c:	55505f59 	bnel	t2,s0,17ec4 <max_locks_number+0x17ea4>
 160:	41445f54 	0x41445f54
 164:	00004154 	0x4154
 168:	00000000 	nop
 16c:	02000002 	0x2000002
 170:	0007e000 	sll	gp,a3,0x0
 174:	00189800 	sll	s3,t8,0x0
 178:	0001a400 	sll	s4,at,0x10
 17c:	73797300 	0x73797300
 180:	6c61635f 	0x6c61635f
 184:	020f006c 	0x20f006c
 188:	72700000 	madd	s3,s0
 18c:	6469636f 	0x6469636f
 190:	00028100 	sll	s0,v0,0x4
 194:	6f727000 	0x6f727000
 198:	6d697463 	0x6d697463
 19c:	02fa0065 	0x2fa0065
 1a0:	78650000 	0x78650000
 1a4:	d7007469 	ldc1	$f0,29801(t8)
 1a8:	74000003 	jalx	c <.debug_pubnames+0xc>
 1ac:	705f7974 	0x705f7974
 1b0:	00737475 	0x737475
 1b4:	000004e4 	0x4e4
 1b8:	5f797474 	0x5f797474
 1bc:	63747570 	0x63747570
 1c0:	0005d500 	sll	k0,a1,0x14
 1c4:	79747400 	0x79747400
 1c8:	7475705f 	jalx	1d5c17c <main+0x195b618>
 1cc:	06e60077 	0x6e60077
 1d0:	74740000 	jalx	1d00000 <main+0x18ff49c>
 1d4:	65675f79 	0x65675f79
 1d8:	dc007374 	ldc3	$0,29556(zero)
 1dc:	74000007 	jalx	1c <.debug_pubnames+0x1c>
 1e0:	675f7974 	0x675f7974
 1e4:	00637465 	0x637465
 1e8:	000008cd 	break	0x0,0x23
 1ec:	5f797474 	0x5f797474
 1f0:	77746567 	jalx	dd1959c <main+0xd918a38>
 1f4:	0009f900 	sll	ra,t1,0x4
 1f8:	6d697400 	0x6d697400
 1fc:	735f7265 	0x735f7265
 200:	6d5f7465 	0x6d5f7465
 204:	0065646f 	0x65646f
 208:	00000a8b 	0xa8b
 20c:	656d6974 	0x656d6974
 210:	65735f72 	0x65735f72
 214:	65705f74 	0x65705f74
 218:	646f6972 	0x646f6972
 21c:	000b1d00 	sll	v1,t3,0x14
 220:	6d697400 	0x6d697400
 224:	725f7265 	0x725f7265
 228:	74657365 	jalx	195cd94 <main+0x155c230>
 22c:	7172695f 	0x7172695f
 230:	000ba700 	sll	s4,t3,0x1c
 234:	6d697400 	0x6d697400
 238:	675f7265 	0x675f7265
 23c:	745f7465 	jalx	17dd194 <main+0x13dc630>
 240:	00656d69 	0x656d69
 244:	00000c39 	0xc39
 248:	5f646367 	0x5f646367
 24c:	5f746573 	0x5f746573
 250:	0061706f 	0x61706f
 254:	00000cbd 	0xcbd
 258:	5f646367 	0x5f646367
 25c:	5f746573 	0x5f746573
 260:	0062706f 	0x62706f
 264:	00000d41 	0xd41
 268:	5f646367 	0x5f646367
 26c:	72617473 	0x72617473
 270:	0dcd0074 	jal	73401d0 <main+0x6f3f66c>
 274:	63670000 	0x63670000
 278:	65675f64 	0x65675f64
 27c:	74735f74 	jalx	1cd7dd0 <main+0x18d726c>
 280:	73757461 	0x73757461
 284:	000e5100 	sll	t2,t6,0x4
 288:	64636700 	0x64636700
 28c:	7465675f 	jalx	1959d7c <main+0x1559218>
 290:	7365725f 	0x7365725f
 294:	00746c75 	0x746c75
 298:	00000ed5 	0xed5
 29c:	5f756369 	0x5f756369
 2a0:	5f746573 	0x5f746573
 2a4:	6b73616d 	0x6b73616d
 2a8:	000f5900 	sll	t3,t7,0x4
 2ac:	75636900 	jalx	58da400 <main+0x54d989c>
 2b0:	656c635f 	0x656c635f
 2b4:	6d5f7261 	0x6d5f7261
 2b8:	006b7361 	0x6b7361
 2bc:	00000fdd 	0xfdd
 2c0:	5f756369 	0x5f756369
 2c4:	5f746567 	0x5f746567
 2c8:	6b73616d 	0x6b73616d
 2cc:	00106100 	sll	t4,s0,0x4
 2d0:	75636900 	jalx	58da400 <main+0x54d989c>
 2d4:	7465675f 	jalx	1959d7c <main+0x1559218>
 2d8:	7172695f 	0x7172695f
 2dc:	10e50073 	beq	a3,a1,4ac <max_locks_number+0x48c>
 2e0:	63690000 	0x63690000
 2e4:	65675f75 	0x65675f75
 2e8:	6e695f74 	0x6e695f74
 2ec:	00786564 	0x786564
 2f0:	00001169 	0x1169
 2f4:	5f616d64 	0x5f616d64
 2f8:	5f746573 	0x5f746573
 2fc:	72756f73 	0x72756f73
 300:	ed006563 	swc3	$0,25955(t0)
 304:	64000011 	0x64000011
 308:	735f616d 	0x735f616d
 30c:	645f7465 	0x645f7465
 310:	00747365 	0x747365
 314:	0000126f 	0x126f
 318:	5f616d64 	0x5f616d64
 31c:	5f746573 	0x5f746573
 320:	676e656c 	0x676e656c
 324:	f3006874 	0xf3006874
 328:	64000012 	0x64000012
 32c:	725f616d 	0x725f616d
 330:	74657365 	jalx	195cd94 <main+0x155c230>
 334:	00136e00 	sll	t5,s3,0x18
 338:	636f6c00 	0x636f6c00
 33c:	65675f6b 	0x65675f6b
 340:	13f80074 	beq	ra,t8,514 <max_locks_number+0x4f4>
 344:	6f6c0000 	0x6f6c0000
 348:	725f6b63 	0x725f6b63
 34c:	61656c65 	0x61656c65
 350:	82006573 	lb	zero,25971(s0)
 354:	72000014 	0x72000014
 358:	00646e61 	0x646e61
 35c:	000014f0 	tge	zero,zero,0x53
 360:	5f797474 	0x5f797474
 364:	6e697270 	0x6e697270
 368:	00006674 	teq	zero,zero,0x199
 36c:	17000000 	bnez	t8,370 <.debug_pubnames+0x370>
 370:	02000000 	0x2000000
 374:	00207800 	0x207800
 378:	00008500 	sll	s0,zero,0x14
 37c:	00002500 	sll	a0,zero,0x14
 380:	69616d00 	0x69616d00
 384:	0000006e 	0x6e
	...

Disassembly of section .debug_aranges:

00000000 <.debug_aranges>:
   0:	0000008c 	syscall	0x2
   4:	00000002 	srl	zero,zero,0x0
   8:	00040000 	sll	zero,a0,0x0
   c:	00000000 	nop
  10:	80000650 	lb	zero,1616(zero)
  14:	0000000c 	syscall
  18:	8000065c 	lb	zero,1628(zero)
  1c:	0000000c 	syscall
  20:	80000668 	lb	zero,1640(zero)
  24:	00000048 	0x48
  28:	800006b0 	lb	zero,1712(zero)
  2c:	0000004c 	syscall	0x1
  30:	800006fc 	lb	zero,1788(zero)
  34:	00000054 	0x54
  38:	80000750 	lb	zero,1872(zero)
  3c:	000000a4 	0xa4
  40:	800007f4 	lb	zero,2036(zero)
  44:	000000c8 	0xc8
  48:	800008bc 	lb	zero,2236(zero)
  4c:	0000002c 	0x2c
  50:	800008e8 	lb	zero,2280(zero)
  54:	00000030 	tge	zero,zero
  58:	80000918 	lb	zero,2328(zero)
  5c:	0000002c 	0x2c
  60:	80000944 	lb	zero,2372(zero)
  64:	00000030 	tge	zero,zero
  68:	80000974 	lb	zero,2420(zero)
  6c:	0000002c 	0x2c
  70:	800009a0 	lb	zero,2464(zero)
  74:	00000030 	tge	zero,zero
  78:	800009d0 	lb	zero,2512(zero)
  7c:	00000034 	teq	zero,zero
  80:	80000a04 	lb	zero,2564(zero)
  84:	0000006c 	0x6c
	...
  90:	0000001c 	0x1c
  94:	06980002 	0x6980002
  98:	00040000 	sll	zero,a0,0x0
  9c:	00000000 	nop
  a0:	00400000 	0x400000
  a4:	000000b4 	teq	zero,zero,0x2
	...
  b0:	0000001c 	0x1c
  b4:	07e00002 	bltz	ra,c0 <.debug_aranges+0xc0>
  b8:	00040000 	sll	zero,a0,0x0
  bc:	00000000 	nop
  c0:	004000b4 	teq	v0,zero,0x2
  c4:	00000ab0 	tge	zero,zero,0x2a
	...
  d0:	0000001c 	0x1c
  d4:	20780002 	addi	t8,v1,2
  d8:	00040000 	sll	zero,a0,0x0
  dc:	00000000 	nop
  e0:	00400b64 	0x400b64
  e4:	00000084 	0x84
	...

Disassembly of section .debug_ranges:

00000000 <.debug_ranges>:
   0:	800007f8 	lb	zero,2040(zero)
   4:	800007fc 	lb	zero,2044(zero)
   8:	80000800 	lb	zero,2048(zero)
   c:	80000804 	lb	zero,2052(zero)
	...
  18:	800007f8 	lb	zero,2040(zero)
  1c:	800007fc 	lb	zero,2044(zero)
  20:	80000800 	lb	zero,2048(zero)
  24:	80000804 	lb	zero,2052(zero)
	...
  30:	80000860 	lb	zero,2144(zero)
  34:	80000864 	lb	zero,2148(zero)
  38:	80000898 	lb	zero,2200(zero)
  3c:	800008b0 	lb	zero,2224(zero)
  40:	80000888 	lb	zero,2184(zero)
  44:	8000088c 	lb	zero,2188(zero)
  48:	80000878 	lb	zero,2168(zero)
  4c:	80000880 	lb	zero,2176(zero)
	...
  58:	80000860 	lb	zero,2144(zero)
  5c:	80000864 	lb	zero,2148(zero)
  60:	80000898 	lb	zero,2200(zero)
  64:	800008b0 	lb	zero,2224(zero)
  68:	80000888 	lb	zero,2184(zero)
  6c:	8000088c 	lb	zero,2188(zero)
  70:	80000878 	lb	zero,2168(zero)
  74:	80000880 	lb	zero,2176(zero)
	...
  80:	00400000 	0x400000
  84:	00400000 	0x400000
  88:	80000650 	lb	zero,1616(zero)
  8c:	8000065c 	lb	zero,1628(zero)
  90:	8000065c 	lb	zero,1628(zero)
  94:	80000668 	lb	zero,1640(zero)
  98:	80000668 	lb	zero,1640(zero)
  9c:	800006b0 	lb	zero,1712(zero)
  a0:	800006b0 	lb	zero,1712(zero)
  a4:	800006fc 	lb	zero,1788(zero)
  a8:	800006fc 	lb	zero,1788(zero)
  ac:	80000750 	lb	zero,1872(zero)
  b0:	80000750 	lb	zero,1872(zero)
  b4:	800007f4 	lb	zero,2036(zero)
  b8:	800007f4 	lb	zero,2036(zero)
  bc:	800008bc 	lb	zero,2236(zero)
  c0:	800008bc 	lb	zero,2236(zero)
  c4:	800008e8 	lb	zero,2280(zero)
  c8:	800008e8 	lb	zero,2280(zero)
  cc:	80000918 	lb	zero,2328(zero)
  d0:	80000918 	lb	zero,2328(zero)
  d4:	80000944 	lb	zero,2372(zero)
  d8:	80000944 	lb	zero,2372(zero)
  dc:	80000974 	lb	zero,2420(zero)
  e0:	80000974 	lb	zero,2420(zero)
  e4:	800009a0 	lb	zero,2464(zero)
  e8:	800009a0 	lb	zero,2464(zero)
  ec:	800009d0 	lb	zero,2512(zero)
  f0:	800009d0 	lb	zero,2512(zero)
  f4:	80000a04 	lb	zero,2564(zero)
  f8:	80000a04 	lb	zero,2564(zero)
  fc:	80000a70 	lb	zero,2672(zero)
	...
 108:	00000184 	0x184
 10c:	000001a0 	0x1a0
 110:	000001a8 	0x1a8
 114:	000001b0 	tge	zero,zero,0x6
	...
 120:	00000184 	0x184
 124:	000001a0 	0x1a0
 128:	000001a8 	0x1a8
 12c:	000001b0 	tge	zero,zero,0x6
	...
 138:	00000184 	0x184
 13c:	000001a0 	0x1a0
 140:	000001a8 	0x1a8
 144:	000001b0 	tge	zero,zero,0x6
	...
 150:	00000330 	tge	zero,zero,0xc
 154:	00000334 	teq	zero,zero,0xc
 158:	00000338 	0x338
 15c:	00000348 	0x348
	...
 168:	00000330 	tge	zero,zero,0xc
 16c:	00000334 	teq	zero,zero,0xc
 170:	00000338 	0x338
 174:	00000348 	0x348
	...
 180:	000003c0 	sll	zero,zero,0xf
 184:	000003c4 	0x3c4
 188:	000003c8 	0x3c8
 18c:	000003d8 	0x3d8
	...
 198:	000003c0 	sll	zero,zero,0xf
 19c:	000003c4 	0x3c4
 1a0:	000003c8 	0x3c8
 1a4:	000003d8 	0x3d8
	...
 1b0:	000003e8 	0x3e8
 1b4:	000003ec 	0x3ec
 1b8:	000003f0 	tge	zero,zero,0xf
 1bc:	00000400 	sll	zero,zero,0x10
	...
 1c8:	000003e8 	0x3e8
 1cc:	000003ec 	0x3ec
 1d0:	000003f0 	tge	zero,zero,0xf
 1d4:	00000400 	sll	zero,zero,0x10
	...
 1e0:	00000438 	0x438
 1e4:	0000043c 	0x43c
 1e8:	00000440 	sll	zero,zero,0x11
 1ec:	00000450 	0x450
	...
 1f8:	00000438 	0x438
 1fc:	0000043c 	0x43c
 200:	00000440 	sll	zero,zero,0x11
 204:	00000450 	0x450
	...
 210:	00000460 	0x460
 214:	00000464 	0x464
 218:	00000468 	0x468
 21c:	0000047c 	0x47c
	...
 228:	00000460 	0x460
 22c:	00000464 	0x464
 230:	00000468 	0x468
 234:	0000047c 	0x47c
	...
 240:	0000048c 	syscall	0x12
 244:	00000490 	0x490
 248:	00000494 	0x494
 24c:	000004a8 	0x4a8
	...
 258:	0000048c 	syscall	0x12
 25c:	00000490 	0x490
 260:	00000494 	0x494
 264:	000004a8 	0x4a8
	...
 270:	000004e4 	0x4e4
 274:	000004e8 	0x4e8
 278:	000004ec 	0x4ec
 27c:	00000500 	sll	zero,zero,0x14
	...
 288:	000004e4 	0x4e4
 28c:	000004e8 	0x4e8
 290:	000004ec 	0x4ec
 294:	00000500 	sll	zero,zero,0x14
	...
 2a0:	00000510 	0x510
 2a4:	00000514 	0x514
 2a8:	00000518 	0x518
 2ac:	0000052c 	0x52c
	...
 2b8:	00000510 	0x510
 2bc:	00000514 	0x514
 2c0:	00000518 	0x518
 2c4:	0000052c 	0x52c
	...
 2d0:	0000053c 	0x53c
 2d4:	00000540 	sll	zero,zero,0x15
 2d8:	00000544 	0x544
 2dc:	00000558 	0x558
	...
 2e8:	0000053c 	0x53c
 2ec:	00000540 	sll	zero,zero,0x15
 2f0:	00000544 	0x544
 2f4:	00000558 	0x558
	...
 300:	00000568 	0x568
 304:	0000056c 	0x56c
 308:	00000570 	tge	zero,zero,0x15
 30c:	00000584 	0x584
	...
 318:	00000568 	0x568
 31c:	0000056c 	0x56c
 320:	00000570 	tge	zero,zero,0x15
 324:	00000584 	0x584
	...
 330:	00000594 	0x594
 334:	00000598 	0x598
 338:	0000059c 	0x59c
 33c:	000005b0 	tge	zero,zero,0x16
	...
 348:	00000594 	0x594
 34c:	00000598 	0x598
 350:	0000059c 	0x59c
 354:	000005b0 	tge	zero,zero,0x16
	...
 360:	000005c0 	sll	zero,zero,0x17
 364:	000005c4 	0x5c4
 368:	000005c8 	0x5c8
 36c:	000005dc 	0x5dc
	...
 378:	000005c0 	sll	zero,zero,0x17
 37c:	000005c4 	0x5c4
 380:	000005c8 	0x5c8
 384:	000005dc 	0x5dc
	...
 390:	000005ec 	0x5ec
 394:	000005f0 	tge	zero,zero,0x17
 398:	000005f4 	teq	zero,zero,0x17
 39c:	00000608 	0x608
	...
 3a8:	000005ec 	0x5ec
 3ac:	000005f0 	tge	zero,zero,0x17
 3b0:	000005f4 	teq	zero,zero,0x17
 3b4:	00000608 	0x608
	...
 3c0:	00000618 	0x618
 3c4:	0000061c 	0x61c
 3c8:	00000620 	0x620
 3cc:	00000634 	teq	zero,zero,0x18
	...
 3d8:	00000618 	0x618
 3dc:	0000061c 	0x61c
 3e0:	00000620 	0x620
 3e4:	00000634 	teq	zero,zero,0x18
	...
 3f0:	00000644 	0x644
 3f4:	00000648 	0x648
 3f8:	0000064c 	syscall	0x19
 3fc:	00000660 	0x660
	...
 408:	00000644 	0x644
 40c:	00000648 	0x648
 410:	0000064c 	syscall	0x19
 414:	00000660 	0x660
	...
 420:	00000670 	tge	zero,zero,0x19
 424:	00000674 	teq	zero,zero,0x19
 428:	00000678 	0x678
 42c:	0000068c 	syscall	0x1a
	...
 438:	00000670 	tge	zero,zero,0x19
 43c:	00000674 	teq	zero,zero,0x19
 440:	00000678 	0x678
 444:	0000068c 	syscall	0x1a
	...
 450:	00000778 	0x778
 454:	0000077c 	0x77c
 458:	00000898 	0x898
 45c:	00000ab0 	tge	zero,zero,0x2a
 460:	00000890 	0x890
 464:	00000894 	0x894
 468:	000007b4 	teq	zero,zero,0x1e
 46c:	000007d4 	0x7d4
	...
 478:	000007bc 	0x7bc
 47c:	000007c4 	0x7c4
 480:	000009e0 	0x9e0
 484:	00000a04 	0xa04
 488:	000007cc 	syscall	0x1f
 48c:	000007d0 	0x7d0
	...
 498:	000007bc 	0x7bc
 49c:	000007c4 	0x7c4
 4a0:	000009e0 	0x9e0
 4a4:	00000a04 	0xa04
 4a8:	000007cc 	syscall	0x1f
 4ac:	000007d0 	0x7d0
	...
 4b8:	000007d4 	0x7d4
 4bc:	000007dc 	0x7dc
 4c0:	00000894 	0x894
 4c4:	00000898 	0x898
 4c8:	0000085c 	0x85c
 4cc:	00000890 	0x890
 4d0:	000007f4 	teq	zero,zero,0x1f
 4d4:	00000820 	add	at,zero,zero
	...

Disassembly of section .debug_str:

00000000 <.debug_str>:
   0:	5f78616d 	0x5f78616d
   4:	6b636f6c 	0x6b636f6c
   8:	756e5f73 	jalx	5b97dcc <main+0x5797268>
   c:	7265626d 	0x7265626d
  10:	67657300 	0x67657300
  14:	616d645f 	0x616d645f
  18:	7361625f 	0x7361625f
  1c:	69740065 	0x69740065
  20:	5f72656d 	0x5f72656d
  24:	65646e69 	0x65646e69
  28:	65730078 	0x65730078
  2c:	6f6c5f67 	0x6f6c5f67
  30:	5f736b63 	0x5f736b63
  34:	65736162 	0x65736162
  38:	4d495400 	0x4d495400
  3c:	535f5245 	beql	k0,ra,14954 <max_locks_number+0x14934>
  40:	004e4150 	0x4e4150
  44:	6b636f6c 	0x6b636f6c
  48:	646e695f 	0x646e695f
  4c:	76007865 	jalx	801e194 <main+0x7c1d630>
  50:	65756c61 	0x65756c61
  54:	59545400 	0x59545400
  58:	4952575f 	0x4952575f
  5c:	54004554 	bnezl	zero,115b0 <max_locks_number+0x11590>
  60:	535f5954 	beql	k0,ra,165b4 <max_locks_number+0x16594>
  64:	55544154 	bnel	t2,s4,105b8 <max_locks_number+0x10598>
  68:	79730053 	0x79730053
  6c:	6c616373 	0x6c616373
  70:	632e736c 	0x632e736c
  74:	78616d00 	0x78616d00
  78:	6d69745f 	0x6d69745f
  7c:	6e5f7265 	0x6e5f7265
  80:	65626d75 	0x65626d75
  84:	695f0072 	0x695f0072
  88:	775f7563 	jalx	d7dd58c <main+0xd3dca28>
  8c:	65746972 	0x65746972
  90:	63695f00 	0x63695f00
  94:	65725f75 	0x65725f75
  98:	5f006461 	bgtzl	t8,19220 <max_locks_number+0x19200>
  9c:	656d6974 	0x656d6974
  a0:	65725f72 	0x65725f72
  a4:	73006461 	0x73006461
  a8:	675f6765 	0x675f6765
  ac:	625f6463 	0x625f6463
  b0:	00657361 	0x657361
  b4:	5f616d64 	0x5f616d64
  b8:	72646461 	0x72646461
  bc:	00737365 	0x737365
  c0:	616d645f 	0x616d645f
  c4:	6165725f 	0x6165725f
  c8:	6c700064 	0x6c700064
  cc:	0066756f 	0x66756f
  d0:	5f797474 	0x5f797474
  d4:	65646e69 	0x65646e69
  d8:	65640078 	0x65640078
  dc:	0079616c 	0x79616c
  e0:	6573752f 	0x6573752f
  e4:	632f7372 	0x632f7372
  e8:	612f6f61 	0x612f6f61
  ec:	6e69616c 	0x6e69616c
  f0:	5f65752f 	0x5f65752f
  f4:	6c636f73 	0x6c636f73
  f8:	742f6269 	jalx	bd89a4 <main+0x7d7e40>
  fc:	732f3470 	0x732f3470
 100:	0074666f 	0x74666f
 104:	636f6c5f 	0x636f6c5f
 108:	725f736b 	0x725f736b
 10c:	00646165 	0x646165
 110:	6978655f 	0x6978655f
 114:	65730074 	0x65730074
 118:	63695f67 	0x63695f67
 11c:	61625f75 	0x61625f75
 120:	73006573 	0x73006573
 124:	745f6765 	jalx	17d9d94 <main+0x13d9230>
 128:	72656d69 	0x72656d69
 12c:	7361625f 	0x7361625f
 130:	6c5f0065 	0x6c5f0065
 134:	736b636f 	0x736b636f
 138:	6972775f 	0x6972775f
 13c:	54006574 	bnezl	zero,19710 <max_locks_number+0x196f0>
 140:	52454d49 	beql	s2,a1,13668 <max_locks_number+0x13648>
 144:	5345525f 	beql	k0,a1,14ac4 <max_locks_number+0x14aa4>
 148:	52495445 	beql	s2,t1,15260 <max_locks_number+0x15240>
 14c:	54540051 	bnel	v0,s4,294 <.debug_str+0x294>
 150:	45525f59 	0x45525f59
 154:	5f004441 	bgtzl	t8,1125c <max_locks_number+0x1123c>
 158:	5f797474 	0x5f797474
 15c:	64616572 	0x64616572
 160:	67657300 	0x67657300
 164:	7974745f 	0x7974745f
 168:	7361625f 	0x7361625f
 16c:	6f6c0065 	0x6f6c0065
 170:	5f736b63 	0x5f736b63
 174:	72646461 	0x72646461
 178:	00737365 	0x737365
 17c:	7974745f 	0x7974745f
 180:	6972775f 	0x6972775f
 184:	54006574 	bnezl	zero,19758 <max_locks_number+0x19738>
 188:	535f5954 	beql	k0,ra,166dc <max_locks_number+0x166bc>
 18c:	004e4150 	0x4e4150
 190:	616d645f 	0x616d645f
 194:	6972775f 	0x6972775f
 198:	74006574 	jalx	195d0 <max_locks_number+0x195b0>
 19c:	615f7974 	0x615f7974
 1a0:	65726464 	0x65726464
 1a4:	72007373 	0x72007373
 1a8:	73696765 	0x73696765
 1ac:	5f726574 	0x5f726574
 1b0:	65646e69 	0x65646e69
 1b4:	6f530078 	0x6f530078
 1b8:	62696c63 	0x62696c63
 1bc:	52797454 	beql	s3,t9,1d310 <max_locks_number+0x1d2f0>
 1c0:	73696765 	0x73696765
 1c4:	73726574 	0x73726574
 1c8:	78616d00 	0x78616d00
 1cc:	7974745f 	0x7974745f
 1d0:	6d756e5f 	0x6d756e5f
 1d4:	00726562 	0x726562
 1d8:	6c636f53 	0x6c636f53
 1dc:	69546269 	0x69546269
 1e0:	5272656d 	beql	s3,s2,19798 <max_locks_number+0x19778>
 1e4:	73696765 	0x73696765
 1e8:	73726574 	0x73726574
 1ec:	69745f00 	0x69745f00
 1f0:	5f72656d 	0x5f72656d
 1f4:	74697277 	jalx	1a5c9dc <main+0x165be78>
 1f8:	69740065 	0x69740065
 1fc:	5f72656d 	0x5f72656d
 200:	72646461 	0x72646461
 204:	00737365 	0x737365
 208:	65747962 	0x65747962
 20c:	66756200 	0x66756200
 210:	00726566 	0x726566
 214:	454d4954 	0x454d4954
 218:	41565f52 	0x41565f52
 21c:	0045554c 	syscall	0x11555
 220:	6f72705f 	0x6f72705f
 224:	00646963 	0x646963
 228:	6463675f 	0x6463675f
 22c:	6165725f 	0x6165725f
 230:	63690064 	0x63690064
 234:	64615f75 	0x64615f75
 238:	73657264 	0x73657264
 23c:	49540073 	0x49540073
 240:	5f52454d 	0x5f52454d
 244:	49524550 	0x49524550
 248:	4700444f 	c1	0x100444f
 24c:	4320554e 	c0	0x120554e
 250:	332e3420 	andi	t6,t9,0x3420
 254:	2d20332e 	sltiu	zero,t1,13102
 258:	675f0067 	0x675f0067
 25c:	775f6463 	jalx	d7d918c <main+0xd3d8628>
 260:	65746972 	0x65746972
 264:	64636700 	0x64636700
 268:	6464615f 	0x6464615f
 26c:	73736572 	0x73736572
 270:	4d495400 	0x4d495400
 274:	4d5f5245 	0x4d5f5245
 278:	0045444f 	0x45444f
 27c:	6f72705f 	0x6f72705f
 280:	6d697463 	0x6d697463
 284:	54540065 	bnel	v0,s4,41c <.debug_str+0x41c>
 288:	55505f59 	bnel	t2,s0,17ff0 <max_locks_number+0x17fd0>
 28c:	59535f54 	0x59535f54
 290:	7500434e 	jalx	4010d38 <main+0x3c101d4>
 294:	5f726573 	0x5f726573
 298:	63746567 	0x63746567
 29c:	59545400 	0x59545400
 2a0:	5445475f 	bnel	v0,a1,12020 <max_locks_number+0x12000>
 2a4:	4e59535f 	c3	0x59535f
 2a8:	73750043 	0x73750043
 2ac:	705f7265 	0x705f7265
 2b0:	00637475 	0x637475
 2b4:	5f595454 	0x5f595454
 2b8:	5f544547 	0x5f544547
 2bc:	41544144 	0x41544144
 2c0:	59545400 	0x59545400
 2c4:	5455505f 	bnel	v0,s5,14444 <max_locks_number+0x14424>
 2c8:	5441445f 	bnel	v0,at,11448 <max_locks_number+0x11428>
 2cc:	73750041 	0x73750041
 2d0:	6f697265 	0x6f697265
 2d4:	4400632e 	0x4400632e
 2d8:	535f414d 	beql	k0,ra,10810 <max_locks_number+0x107f0>
 2dc:	00434e59 	0x434e59
 2e0:	64726f77 	0x64726f77
 2e4:	44434700 	0x44434700
 2e8:	4154535f 	0x4154535f
 2ec:	47005452 	c1	0x1005452
 2f0:	4f5f4443 	c3	0x15f4443
 2f4:	47004150 	c1	0x1004150
 2f8:	4f5f4443 	c3	0x15f4443
 2fc:	67004250 	0x67004250
 300:	675f6463 	0x675f6463
 304:	735f7465 	0x735f7465
 308:	75746174 	jalx	5d185d0 <main+0x5917a6c>
 30c:	79730073 	0x79730073
 310:	61635f73 	0x61635f73
 314:	69006c6c 	0x69006c6c
 318:	675f7563 	0x675f7563
 31c:	6d5f7465 	0x6d5f7465
 320:	006b7361 	0x6b7361
 324:	5f554349 	0x5f554349
 328:	4b53414d 	c2	0x153414d
 32c:	5445535f 	bnel	v0,a1,150ac <max_locks_number+0x1508c>
 330:	44434700 	0x44434700
 334:	4154535f 	0x4154535f
 338:	00535554 	0x535554
 33c:	6c636f53 	0x6c636f53
 340:	69506269 	0x69506269
 344:	67655263 	0x67655263
 348:	65747369 	0x65747369
 34c:	64007372 	0x64007372
 350:	735f616d 	0x735f616d
 354:	6c5f7465 	0x6c5f7465
 358:	74676e65 	jalx	19db994 <main+0x15dae30>
 35c:	63690068 	0x63690068
 360:	65675f75 	0x65675f75
 364:	72695f74 	0x72695f74
 368:	67007371 	0x67007371
 36c:	735f6463 	0x735f6463
 370:	6f5f7465 	0x6f5f7465
 374:	67006170 	0x67006170
 378:	735f6463 	0x735f6463
 37c:	6f5f7465 	0x6f5f7465
 380:	72006270 	0x72006270
 384:	615f6765 	0x615f6765
 388:	65720030 	0x65720030
 38c:	6f6e5f67 	0x6f6e5f67
 390:	646e615f 	0x646e615f
 394:	74756f5f 	jalx	1d5bd7c <main+0x195b218>
 398:	00747570 	tge	v1,s4,0x1d5
 39c:	5f756369 	0x5f756369
 3a0:	5f746573 	0x5f746573
 3a4:	6b73616d 	0x6b73616d
 3a8:	414d4400 	0x414d4400
 3ac:	4e454c5f 	c3	0x454c5f
 3b0:	67726100 	0x67726100
 3b4:	6100305f 	0x6100305f
 3b8:	315f6772 	andi	ra,t2,0x6772
 3bc:	67726100 	0x67726100
 3c0:	6100325f 	0x6100325f
 3c4:	335f6772 	andi	ra,k0,0x6772
 3c8:	67657200 	0x67657200
 3cc:	0031615f 	0x31615f
 3d0:	5f676572 	0x5f676572
 3d4:	72003261 	0x72003261
 3d8:	615f6765 	0x615f6765
 3dc:	63690033 	0x63690033
 3e0:	65675f75 	0x65675f75
 3e4:	6e695f74 	0x6e695f74
 3e8:	00786564 	0x786564
 3ec:	5f616d64 	0x5f616d64
 3f0:	5f746573 	0x5f746573
 3f4:	74736564 	jalx	1cd9590 <main+0x18d8a2c>
 3f8:	55434900 	bnel	t2,v1,127fc <max_locks_number+0x127dc>
 3fc:	544e495f 	bnel	v0,t6,1297c <max_locks_number+0x1295c>
 400:	55434900 	bnel	t2,v1,12804 <max_locks_number+0x127e4>
 404:	53414d5f 	beql	k0,at,13984 <max_locks_number+0x13964>
 408:	4c435f4b 	0x4c435f4b
 40c:	00524145 	0x524145
 410:	5f797474 	0x5f797474
 414:	63747570 	0x63747570
 418:	726f6600 	0x726f6600
 41c:	0074616d 	0x74616d
 420:	66756270 	0x66756270
 424:	79747400 	0x79747400
 428:	7475705f 	jalx	1d5c17c <main+0x195b618>
 42c:	74730073 	jalx	1cc01cc <main+0x18bf668>
 430:	676e6972 	0x676e6972
 434:	616d6400 	0x616d6400
 438:	7365725f 	0x7365725f
 43c:	64007465 	0x64007465
 440:	735f616d 	0x735f616d
 444:	735f7465 	0x735f7465
 448:	6372756f 	0x6372756f
 44c:	6f530065 	0x6f530065
 450:	62696c63 	0x62696c63
 454:	5264634c 	beql	s3,a0,19188 <max_locks_number+0x19168>
 458:	73696765 	0x73696765
 45c:	73726574 	0x73726574
 460:	436f5300 	c0	0x16f5300
 464:	4462694c 	0x4462694c
 468:	6552616d 	0x6552616d
 46c:	74736967 	jalx	1cda59c <main+0x18d9a38>
 470:	00737265 	0x737265
 474:	6b636f6c 	0x6b636f6c
 478:	7465675f 	jalx	1959d7c <main+0x1559218>
 47c:	736e7500 	0x736e7500
 480:	656e6769 	0x656e6769
 484:	68632064 	0x68632064
 488:	75007261 	jalx	401c984 <main+0x3c1be20>
 48c:	6769736e 	0x6769736e
 490:	2064656e 	addi	a0,v1,25966
 494:	00746e69 	0x746e69
 498:	656d6974 	0x656d6974
 49c:	65675f72 	0x65675f72
 4a0:	69745f74 	0x69745f74
 4a4:	4900656d 	bc2f	19a5c <max_locks_number+0x19a3c>
 4a8:	495f5543 	0x495f5543
 4ac:	45565f54 	0x45565f54
 4b0:	524f5443 	beql	s2,t7,155c0 <max_locks_number+0x155a0>
 4b4:	636f6c00 	0x636f6c00
 4b8:	65725f6b 	0x65725f6b
 4bc:	7361656c 	0x7361656c
 4c0:	72700065 	0x72700065
 4c4:	66746e69 	0x66746e69
 4c8:	7865745f 	0x7865745f
 4cc:	74740074 	jalx	1d001d0 <main+0x18ff66c>
 4d0:	75705f79 	jalx	5c17de4 <main+0x5817280>
 4d4:	48007774 	0x48007774
 4d8:	54617865 	bnel	v1,at,1e670 <max_locks_number+0x1e650>
 4dc:	47006261 	c1	0x1006261
 4e0:	535f4443 	beql	k0,ra,115f0 <max_locks_number+0x115d0>
 4e4:	004e4150 	0x4e4150
 4e8:	5f756369 	0x5f756369
 4ec:	61656c63 	0x61656c63
 4f0:	616d5f72 	0x616d5f72
 4f4:	73006b73 	0x73006b73
 4f8:	6f696474 	0x6f696474
 4fc:	7400632e 	jalx	18cb8 <max_locks_number+0x18c98>
 500:	72656d69 	0x72656d69
 504:	7465735f 	jalx	195cd7c <main+0x155c218>
 508:	646f6d5f 	0x646f6d5f
 50c:	43490065 	c0	0x1490065
 510:	414d5f55 	0x414d5f55
 514:	63004b53 	0x63004b53
 518:	5f6c6c61 	0x5f6c6c61
 51c:	5f006f6e 	bgtzl	t8,1c2d8 <max_locks_number+0x1c2b8>
 520:	6975625f 	0x6975625f
 524:	6e69746c 	0x6e69746c
 528:	5f61765f 	0x5f61765f
 52c:	7473696c 	jalx	1cda5b0 <main+0x18d9a4c>
 530:	66756200 	0x66756200
 534:	657a6973 	0x657a6973
 538:	6d697400 	0x6d697400
 53c:	725f7265 	0x725f7265
 540:	74657365 	jalx	195cd94 <main+0x155c230>
 544:	7172695f 	0x7172695f
 548:	79747400 	0x79747400
 54c:	6972705f 	0x6972705f
 550:	0066746e 	0x66746e
 554:	5f797474 	0x5f797474
 558:	63746567 	0x63746567
 55c:	6e617200 	0x6e617200
 560:	4d440064 	0x4d440064
 564:	52535f41 	beql	s2,s3,1826c <max_locks_number+0x1824c>
 568:	63670043 	0x63670043
 56c:	65675f64 	0x65675f64
 570:	65725f74 	0x65725f74
 574:	746c7573 	jalx	1b1d5cc <main+0x171ca68>
 578:	675f5f00 	0x675f5f00
 57c:	5f63756e 	0x5f63756e
 580:	6c5f6176 	0x6c5f6176
 584:	00747369 	0x747369
 588:	5f797474 	0x5f797474
 58c:	73746567 	0x73746567
 590:	79747400 	0x79747400
 594:	7465675f 	jalx	1959d7c <main+0x1559218>
 598:	4d440077 	0x4d440077
 59c:	53445f41 	beql	k0,a0,182a4 <max_locks_number+0x18284>
 5a0:	69740054 	0x69740054
 5a4:	5f72656d 	0x5f72656d
 5a8:	5f746573 	0x5f746573
 5ac:	69726570 	0x69726570
 5b0:	7000646f 	0x7000646f
 5b4:	746e6972 	jalx	1b9a5c8 <main+0x1799a64>
 5b8:	72615f66 	0x72615f66
 5bc:	656d7567 	0x656d7567
 5c0:	0073746e 	0x73746e
 5c4:	5f414d44 	0x5f414d44
 5c8:	45444f4d 	0x45444f4d
 5cc:	414d4400 	0x414d4400
 5d0:	5345525f 	beql	k0,a1,14f50 <max_locks_number+0x14f30>
 5d4:	67005445 	0x67005445
 5d8:	735f6463 	0x735f6463
 5dc:	74726174 	jalx	1c985d0 <main+0x1897a6c>
 5e0:	69616d00 	0x69616d00
 5e4:	00632e6e 	0x632e6e
 5e8:	6e69616d 	0x6e69616d
	...

Disassembly of section .comment:

00000000 <.comment>:
   0:	43434700 	c0	0x1434700
   4:	4728203a 	c1	0x128203a
   8:	2029554e 	addi	t1,at,21838
   c:	2e332e34 	sltiu	s3,s1,11828
  10:	47000033 	c1	0x1000033
  14:	203a4343 	addi	k0,at,17219
  18:	554e4728 	bnel	t2,t6,11cbc <max_locks_number+0x11c9c>
  1c:	2e342029 	sltiu	s4,s1,8233
  20:	00332e33 	tltu	at,s3,0xb8
  24:	43434700 	c0	0x1434700
  28:	4728203a 	c1	0x128203a
  2c:	2029554e 	addi	t1,at,21838
  30:	2e332e34 	sltiu	s3,s1,11828
  34:	47000033 	c1	0x1000033
  38:	203a4343 	addi	k0,at,17219
  3c:	554e4728 	bnel	t2,t6,11ce0 <max_locks_number+0x11cc0>
  40:	2e342029 	sltiu	s4,s1,8233
  44:	00332e33 	tltu	at,s3,0xb8

Disassembly of section .gnu.attributes:

00000000 <.gnu.attributes>:
   0:	00000f41 	0xf41
   4:	756e6700 	jalx	5b99c00 <main+0x579909c>
   8:	00070100 	sll	zero,a3,0x4
   c:	01040000 	0x1040000
