
stdio.o:     file format elf32-littlemips


Disassembly of section .text:

00000000 <sys_call>:
   0:	27bdfff8 	addiu	sp,sp,-8
   4:	00801021 	move	v0,a0
   8:	afbf0004 	sw	ra,4(sp)
   c:	00a02021 	move	a0,a1
  10:	00c02821 	move	a1,a2
  14:	00e03021 	move	a2,a3
  18:	8fa70018 	lw	a3,24(sp)
  1c:	0000000c 	syscall
  20:	8fbf0004 	lw	ra,4(sp)
  24:	03e00008 	jr	ra
  28:	27bd0008 	addiu	sp,sp,8

0000002c <procid>:
  2c:	27bdfff8 	addiu	sp,sp,-8
  30:	afbf0004 	sw	ra,4(sp)
  34:	00001021 	move	v0,zero
  38:	00002021 	move	a0,zero
  3c:	00002821 	move	a1,zero
  40:	00003021 	move	a2,zero
  44:	00003821 	move	a3,zero
  48:	0000000c 	syscall
  4c:	8fbf0004 	lw	ra,4(sp)
  50:	03e00008 	jr	ra
  54:	27bd0008 	addiu	sp,sp,8

00000058 <proctime>:
  58:	27bdfff8 	addiu	sp,sp,-8
  5c:	afbf0004 	sw	ra,4(sp)
  60:	24020001 	li	v0,1
  64:	00002021 	move	a0,zero
  68:	00002821 	move	a1,zero
  6c:	00003021 	move	a2,zero
  70:	00003821 	move	a3,zero
  74:	0000000c 	syscall
  78:	8fbf0004 	lw	ra,4(sp)
  7c:	03e00008 	jr	ra
  80:	27bd0008 	addiu	sp,sp,8

00000084 <exit>:
  84:	27bdfff8 	addiu	sp,sp,-8
  88:	afbf0004 	sw	ra,4(sp)
  8c:	00001021 	move	v0,zero
  90:	00002021 	move	a0,zero
  94:	00002821 	move	a1,zero
  98:	00003021 	move	a2,zero
  9c:	00003821 	move	a3,zero
  a0:	0000000c 	syscall
  a4:	00402021 	move	a0,v0
  a8:	2402000e 	li	v0,14
  ac:	0000000c 	syscall
  b0:	8fbf0004 	lw	ra,4(sp)
  b4:	03e00008 	jr	ra
  b8:	27bd0008 	addiu	sp,sp,8

000000bc <tty_puts>:
  bc:	27bdfff8 	addiu	sp,sp,-8
  c0:	afb00000 	sw	s0,0(sp)
  c4:	afbf0004 	sw	ra,4(sp)
  c8:	00808021 	move	s0,a0
  cc:	00001021 	move	v0,zero
  d0:	00002021 	move	a0,zero
  d4:	00002821 	move	a1,zero
  d8:	00003021 	move	a2,zero
  dc:	00003821 	move	a3,zero
  e0:	0000000c 	syscall
  e4:	82040000 	lb	a0,0(s0)
  e8:	10800008 	beqz	a0,10c <tty_puts+0x50>
  ec:	00402821 	move	a1,v0
  f0:	00003021 	move	a2,zero
  f4:	24c60001 	addiu	a2,a2,1
  f8:	02061021 	addu	v0,s0,a2
  fc:	80430000 	lb	v1,0(v0)
 100:	1460fffd 	bnez	v1,f8 <tty_puts+0x3c>
 104:	24c60001 	addiu	a2,a2,1
 108:	24c6ffff 	addiu	a2,a2,-1
 10c:	00a02021 	move	a0,a1
 110:	24020002 	li	v0,2
 114:	02002821 	move	a1,s0
 118:	00003821 	move	a3,zero
 11c:	0000000c 	syscall
 120:	8fbf0004 	lw	ra,4(sp)
 124:	8fb00000 	lw	s0,0(sp)
 128:	03e00008 	jr	ra
 12c:	27bd0008 	addiu	sp,sp,8

00000130 <tty_putc>:
 130:	27bdfff8 	addiu	sp,sp,-8
 134:	a3a40008 	sb	a0,8(sp)
 138:	afbf0004 	sw	ra,4(sp)
 13c:	00001021 	move	v0,zero
 140:	00002021 	move	a0,zero
 144:	00002821 	move	a1,zero
 148:	00003021 	move	a2,zero
 14c:	00003821 	move	a3,zero
 150:	0000000c 	syscall
 154:	24060001 	li	a2,1
 158:	00402021 	move	a0,v0
 15c:	27a50008 	addiu	a1,sp,8
 160:	24020002 	li	v0,2
 164:	0000000c 	syscall
 168:	8fbf0004 	lw	ra,4(sp)
 16c:	03e00008 	jr	ra
 170:	27bd0008 	addiu	sp,sp,8

00000174 <tty_putw>:
 174:	27bdffe8 	addiu	sp,sp,-24
 178:	afb00010 	sw	s0,16(sp)
 17c:	afbf0014 	sw	ra,20(sp)
 180:	00808021 	move	s0,a0
 184:	00001021 	move	v0,zero
 188:	00002021 	move	a0,zero
 18c:	00002821 	move	a1,zero
 190:	00003021 	move	a2,zero
 194:	00003821 	move	a3,zero
 198:	0000000c 	syscall
 19c:	00404821 	move	t1,v0
 1a0:	3c026666 	lui	v0,0x6666
 1a4:	34486667 	ori	t0,v0,0x6667
 1a8:	27a60009 	addiu	a2,sp,9
 1ac:	27a7ffff 	addiu	a3,sp,-1
 1b0:	02080018 	mult	s0,t0
 1b4:	00102fc3 	sra	a1,s0,0x1f
 1b8:	00001810 	mfhi	v1
 1bc:	00032083 	sra	a0,v1,0x2
 1c0:	00852023 	subu	a0,a0,a1
 1c4:	00041040 	sll	v0,a0,0x1
 1c8:	000418c0 	sll	v1,a0,0x3
 1cc:	00431021 	addu	v0,v0,v1
 1d0:	02021023 	subu	v0,s0,v0
 1d4:	24420030 	addiu	v0,v0,48
 1d8:	a0c20000 	sb	v0,0(a2)
 1dc:	24c6ffff 	addiu	a2,a2,-1
 1e0:	14e6fff3 	bne	a3,a2,1b0 <tty_putw+0x3c>
 1e4:	00808021 	move	s0,a0
 1e8:	01202021 	move	a0,t1
 1ec:	24020002 	li	v0,2
 1f0:	03a02821 	move	a1,sp
 1f4:	2406000a 	li	a2,10
 1f8:	00003821 	move	a3,zero
 1fc:	0000000c 	syscall
 200:	8fbf0014 	lw	ra,20(sp)
 204:	8fb00010 	lw	s0,16(sp)
 208:	03e00008 	jr	ra
 20c:	27bd0018 	addiu	sp,sp,24

00000210 <tty_gets>:
 210:	27bdfff0 	addiu	sp,sp,-16
 214:	afb10008 	sw	s1,8(sp)
 218:	afb00004 	sw	s0,4(sp)
 21c:	00808821 	move	s1,a0
 220:	00a08021 	move	s0,a1
 224:	afbf000c 	sw	ra,12(sp)
 228:	00001021 	move	v0,zero
 22c:	00002021 	move	a0,zero
 230:	00002821 	move	a1,zero
 234:	00003021 	move	a2,zero
 238:	00003821 	move	a3,zero
 23c:	0000000c 	syscall
 240:	00402021 	move	a0,v0
 244:	2606ffff 	addiu	a2,s0,-1
 248:	24020003 	li	v0,3
 24c:	02202821 	move	a1,s1
 250:	0000000c 	syscall
 254:	04400008 	bltz	v0,278 <tty_gets+0x68>
 258:	02221021 	addu	v0,s1,v0
 25c:	a0400000 	sb	zero,0(v0)
 260:	8fbf000c 	lw	ra,12(sp)
 264:	00001021 	move	v0,zero
 268:	8fb10008 	lw	s1,8(sp)
 26c:	8fb00004 	lw	s0,4(sp)
 270:	03e00008 	jr	ra
 274:	27bd0010 	addiu	sp,sp,16
 278:	8fbf000c 	lw	ra,12(sp)
 27c:	2402ffff 	li	v0,-1
 280:	8fb10008 	lw	s1,8(sp)
 284:	8fb00004 	lw	s0,4(sp)
 288:	03e00008 	jr	ra
 28c:	27bd0010 	addiu	sp,sp,16

00000290 <tty_getc>:
 290:	27bdfff8 	addiu	sp,sp,-8
 294:	afb00000 	sw	s0,0(sp)
 298:	afbf0004 	sw	ra,4(sp)
 29c:	00808021 	move	s0,a0
 2a0:	00001021 	move	v0,zero
 2a4:	00002021 	move	a0,zero
 2a8:	00002821 	move	a1,zero
 2ac:	00003021 	move	a2,zero
 2b0:	00003821 	move	a3,zero
 2b4:	0000000c 	syscall
 2b8:	24060001 	li	a2,1
 2bc:	00402021 	move	a0,v0
 2c0:	02002821 	move	a1,s0
 2c4:	24020003 	li	v0,3
 2c8:	0000000c 	syscall
 2cc:	8fbf0004 	lw	ra,4(sp)
 2d0:	8fb00000 	lw	s0,0(sp)
 2d4:	03e00008 	jr	ra
 2d8:	27bd0008 	addiu	sp,sp,8

000002dc <tty_getw>:
 2dc:	27bdffe0 	addiu	sp,sp,-32
 2e0:	afb00018 	sw	s0,24(sp)
 2e4:	afbf001c 	sw	ra,28(sp)
 2e8:	00808021 	move	s0,a0
 2ec:	00001021 	move	v0,zero
 2f0:	00002021 	move	a0,zero
 2f4:	00002821 	move	a1,zero
 2f8:	00003021 	move	a2,zero
 2fc:	00003821 	move	a3,zero
 300:	0000000c 	syscall
 304:	3c040000 	lui	a0,0x0
 308:	24830000 	addiu	v1,a0,0
 30c:	8c850000 	lw	a1,0(a0)
 310:	8c660004 	lw	a2,4(v1)
 314:	8c640008 	lw	a0,8(v1)
 318:	8c690010 	lw	t1,16(v1)
 31c:	8c68000c 	lw	t0,12(v1)
 320:	afa50000 	sw	a1,0(sp)
 324:	afa60004 	sw	a2,4(sp)
 328:	afa40008 	sw	a0,8(sp)
 32c:	afa8000c 	sw	t0,12(sp)
 330:	00402021 	move	a0,v0
 334:	afa90010 	sw	t1,16(sp)
 338:	24020003 	li	v0,3
 33c:	03a02821 	move	a1,sp
 340:	24060014 	li	a2,20
 344:	0000000c 	syscall
 348:	04400018 	bltz	v0,3ac <tty_getw+0xd0>
 34c:	8fbf001c 	lw	ra,28(sp)
 350:	10400011 	beqz	v0,398 <tty_getw+0xbc>
 354:	00003821 	move	a3,zero
 358:	03a24021 	addu	t0,sp,v0
 35c:	03a03021 	move	a2,sp
 360:	90c50000 	lbu	a1,0(a2)
 364:	000720c0 	sll	a0,a3,0x3
 368:	24a3ffd6 	addiu	v1,a1,-42
 36c:	306300ff 	andi	v1,v1,0xff
 370:	00071040 	sll	v0,a3,0x1
 374:	2c630016 	sltiu	v1,v1,22
 378:	00441021 	addu	v0,v0,a0
 37c:	24c60001 	addiu	a2,a2,1
 380:	10600002 	beqz	v1,38c <tty_getw+0xb0>
 384:	24a5ffd0 	addiu	a1,a1,-48
 388:	00a23821 	addu	a3,a1,v0
 38c:	14c8fff4 	bne	a2,t0,360 <tty_getw+0x84>
 390:	00000000 	nop
 394:	8fbf001c 	lw	ra,28(sp)
 398:	ae070000 	sw	a3,0(s0)
 39c:	00001021 	move	v0,zero
 3a0:	8fb00018 	lw	s0,24(sp)
 3a4:	03e00008 	jr	ra
 3a8:	27bd0020 	addiu	sp,sp,32
 3ac:	2402ffff 	li	v0,-1
 3b0:	8fb00018 	lw	s0,24(sp)
 3b4:	03e00008 	jr	ra
 3b8:	27bd0020 	addiu	sp,sp,32

000003bc <timer_set_mode>:
 3bc:	27bdfff8 	addiu	sp,sp,-8
 3c0:	00a03021 	move	a2,a1
 3c4:	afbf0004 	sw	ra,4(sp)
 3c8:	24020004 	li	v0,4
 3cc:	24050001 	li	a1,1
 3d0:	00003821 	move	a3,zero
 3d4:	0000000c 	syscall
 3d8:	8fbf0004 	lw	ra,4(sp)
 3dc:	03e00008 	jr	ra
 3e0:	27bd0008 	addiu	sp,sp,8

000003e4 <timer_set_period>:
 3e4:	27bdfff8 	addiu	sp,sp,-8
 3e8:	00a03021 	move	a2,a1
 3ec:	afbf0004 	sw	ra,4(sp)
 3f0:	24020004 	li	v0,4
 3f4:	24050002 	li	a1,2
 3f8:	00003821 	move	a3,zero
 3fc:	0000000c 	syscall
 400:	8fbf0004 	lw	ra,4(sp)
 404:	03e00008 	jr	ra
 408:	27bd0008 	addiu	sp,sp,8

0000040c <timer_reset_irq>:
 40c:	27bdfff8 	addiu	sp,sp,-8
 410:	afbf0004 	sw	ra,4(sp)
 414:	24020004 	li	v0,4
 418:	24050003 	li	a1,3
 41c:	00003021 	move	a2,zero
 420:	00003821 	move	a3,zero
 424:	0000000c 	syscall
 428:	8fbf0004 	lw	ra,4(sp)
 42c:	03e00008 	jr	ra
 430:	27bd0008 	addiu	sp,sp,8

00000434 <timer_get_time>:
 434:	27bdfff8 	addiu	sp,sp,-8
 438:	00a03021 	move	a2,a1
 43c:	afbf0004 	sw	ra,4(sp)
 440:	24020005 	li	v0,5
 444:	00002821 	move	a1,zero
 448:	00003821 	move	a3,zero
 44c:	0000000c 	syscall
 450:	8fbf0004 	lw	ra,4(sp)
 454:	03e00008 	jr	ra
 458:	27bd0008 	addiu	sp,sp,8

0000045c <gcd_set_opa>:
 45c:	27bdfff8 	addiu	sp,sp,-8
 460:	00802821 	move	a1,a0
 464:	afbf0004 	sw	ra,4(sp)
 468:	24020006 	li	v0,6
 46c:	00002021 	move	a0,zero
 470:	00003021 	move	a2,zero
 474:	00003821 	move	a3,zero
 478:	0000000c 	syscall
 47c:	8fbf0004 	lw	ra,4(sp)
 480:	03e00008 	jr	ra
 484:	27bd0008 	addiu	sp,sp,8

00000488 <gcd_set_opb>:
 488:	27bdfff8 	addiu	sp,sp,-8
 48c:	00802821 	move	a1,a0
 490:	afbf0004 	sw	ra,4(sp)
 494:	24020006 	li	v0,6
 498:	24040001 	li	a0,1
 49c:	00003021 	move	a2,zero
 4a0:	00003821 	move	a3,zero
 4a4:	0000000c 	syscall
 4a8:	8fbf0004 	lw	ra,4(sp)
 4ac:	03e00008 	jr	ra
 4b0:	27bd0008 	addiu	sp,sp,8

000004b4 <gcd_start>:
 4b4:	27bdfff8 	addiu	sp,sp,-8
 4b8:	afbf0004 	sw	ra,4(sp)
 4bc:	24020006 	li	v0,6
 4c0:	24040002 	li	a0,2
 4c4:	00002821 	move	a1,zero
 4c8:	00003021 	move	a2,zero
 4cc:	00003821 	move	a3,zero
 4d0:	0000000c 	syscall
 4d4:	8fbf0004 	lw	ra,4(sp)
 4d8:	03e00008 	jr	ra
 4dc:	27bd0008 	addiu	sp,sp,8

000004e0 <gcd_get_status>:
 4e0:	27bdfff8 	addiu	sp,sp,-8
 4e4:	00802821 	move	a1,a0
 4e8:	afbf0004 	sw	ra,4(sp)
 4ec:	24020007 	li	v0,7
 4f0:	24040003 	li	a0,3
 4f4:	00003021 	move	a2,zero
 4f8:	00003821 	move	a3,zero
 4fc:	0000000c 	syscall
 500:	8fbf0004 	lw	ra,4(sp)
 504:	03e00008 	jr	ra
 508:	27bd0008 	addiu	sp,sp,8

0000050c <gcd_get_result>:
 50c:	27bdfff8 	addiu	sp,sp,-8
 510:	00802821 	move	a1,a0
 514:	afbf0004 	sw	ra,4(sp)
 518:	24020007 	li	v0,7
 51c:	00002021 	move	a0,zero
 520:	00003021 	move	a2,zero
 524:	00003821 	move	a3,zero
 528:	0000000c 	syscall
 52c:	8fbf0004 	lw	ra,4(sp)
 530:	03e00008 	jr	ra
 534:	27bd0008 	addiu	sp,sp,8

00000538 <icu_set_mask>:
 538:	27bdfff8 	addiu	sp,sp,-8
 53c:	00802821 	move	a1,a0
 540:	afbf0004 	sw	ra,4(sp)
 544:	24020008 	li	v0,8
 548:	24040002 	li	a0,2
 54c:	00003021 	move	a2,zero
 550:	00003821 	move	a3,zero
 554:	0000000c 	syscall
 558:	8fbf0004 	lw	ra,4(sp)
 55c:	03e00008 	jr	ra
 560:	27bd0008 	addiu	sp,sp,8

00000564 <icu_clear_mask>:
 564:	27bdfff8 	addiu	sp,sp,-8
 568:	00802821 	move	a1,a0
 56c:	afbf0004 	sw	ra,4(sp)
 570:	24020008 	li	v0,8
 574:	24040003 	li	a0,3
 578:	00003021 	move	a2,zero
 57c:	00003821 	move	a3,zero
 580:	0000000c 	syscall
 584:	8fbf0004 	lw	ra,4(sp)
 588:	03e00008 	jr	ra
 58c:	27bd0008 	addiu	sp,sp,8

00000590 <icu_get_mask>:
 590:	27bdfff8 	addiu	sp,sp,-8
 594:	00802821 	move	a1,a0
 598:	afbf0004 	sw	ra,4(sp)
 59c:	24020009 	li	v0,9
 5a0:	24040001 	li	a0,1
 5a4:	00003021 	move	a2,zero
 5a8:	00003821 	move	a3,zero
 5ac:	0000000c 	syscall
 5b0:	8fbf0004 	lw	ra,4(sp)
 5b4:	03e00008 	jr	ra
 5b8:	27bd0008 	addiu	sp,sp,8

000005bc <icu_get_irqs>:
 5bc:	27bdfff8 	addiu	sp,sp,-8
 5c0:	00802821 	move	a1,a0
 5c4:	afbf0004 	sw	ra,4(sp)
 5c8:	24020009 	li	v0,9
 5cc:	00002021 	move	a0,zero
 5d0:	00003021 	move	a2,zero
 5d4:	00003821 	move	a3,zero
 5d8:	0000000c 	syscall
 5dc:	8fbf0004 	lw	ra,4(sp)
 5e0:	03e00008 	jr	ra
 5e4:	27bd0008 	addiu	sp,sp,8

000005e8 <icu_get_index>:
 5e8:	27bdfff8 	addiu	sp,sp,-8
 5ec:	00802821 	move	a1,a0
 5f0:	afbf0004 	sw	ra,4(sp)
 5f4:	24020009 	li	v0,9
 5f8:	24040004 	li	a0,4
 5fc:	00003021 	move	a2,zero
 600:	00003821 	move	a3,zero
 604:	0000000c 	syscall
 608:	8fbf0004 	lw	ra,4(sp)
 60c:	03e00008 	jr	ra
 610:	27bd0008 	addiu	sp,sp,8

00000614 <dma_set_source>:
 614:	27bdfff8 	addiu	sp,sp,-8
 618:	00802821 	move	a1,a0
 61c:	afbf0004 	sw	ra,4(sp)
 620:	2402000a 	li	v0,10
 624:	00002021 	move	a0,zero
 628:	00003021 	move	a2,zero
 62c:	00003821 	move	a3,zero
 630:	0000000c 	syscall
 634:	8fbf0004 	lw	ra,4(sp)
 638:	03e00008 	jr	ra
 63c:	27bd0008 	addiu	sp,sp,8

00000640 <dma_set_dest>:
 640:	27bdfff8 	addiu	sp,sp,-8
 644:	00802821 	move	a1,a0
 648:	afbf0004 	sw	ra,4(sp)
 64c:	2402000a 	li	v0,10
 650:	24040001 	li	a0,1
 654:	00003021 	move	a2,zero
 658:	00003821 	move	a3,zero
 65c:	0000000c 	syscall
 660:	8fbf0004 	lw	ra,4(sp)
 664:	03e00008 	jr	ra
 668:	27bd0008 	addiu	sp,sp,8

0000066c <dma_set_length>:
 66c:	27bdfff8 	addiu	sp,sp,-8
 670:	00802821 	move	a1,a0
 674:	afbf0004 	sw	ra,4(sp)
 678:	2402000a 	li	v0,10
 67c:	24040004 	li	a0,4
 680:	00003021 	move	a2,zero
 684:	00003821 	move	a3,zero
 688:	0000000c 	syscall
 68c:	8fbf0004 	lw	ra,4(sp)
 690:	03e00008 	jr	ra
 694:	27bd0008 	addiu	sp,sp,8

00000698 <dma_reset>:
 698:	27bdfff8 	addiu	sp,sp,-8
 69c:	afbf0004 	sw	ra,4(sp)
 6a0:	2402000a 	li	v0,10
 6a4:	24040003 	li	a0,3
 6a8:	00002821 	move	a1,zero
 6ac:	00003021 	move	a2,zero
 6b0:	00003821 	move	a3,zero
 6b4:	0000000c 	syscall
 6b8:	8fbf0004 	lw	ra,4(sp)
 6bc:	03e00008 	jr	ra
 6c0:	27bd0008 	addiu	sp,sp,8

000006c4 <lock_get>:
 6c4:	27bdfff8 	addiu	sp,sp,-8
 6c8:	afbf0004 	sw	ra,4(sp)
 6cc:	2402000d 	li	v0,13
 6d0:	00002821 	move	a1,zero
 6d4:	00003021 	move	a2,zero
 6d8:	00003821 	move	a3,zero
 6dc:	0000000c 	syscall
 6e0:	8fbf0004 	lw	ra,4(sp)
 6e4:	03e00008 	jr	ra
 6e8:	27bd0008 	addiu	sp,sp,8

000006ec <lock_release>:
 6ec:	27bdfff8 	addiu	sp,sp,-8
 6f0:	afbf0004 	sw	ra,4(sp)
 6f4:	2402000c 	li	v0,12
 6f8:	00002821 	move	a1,zero
 6fc:	00003021 	move	a2,zero
 700:	00003821 	move	a3,zero
 704:	0000000c 	syscall
 708:	8fbf0004 	lw	ra,4(sp)
 70c:	03e00008 	jr	ra
 710:	27bd0008 	addiu	sp,sp,8

00000714 <rand>:
 714:	27bdfff8 	addiu	sp,sp,-8
 718:	afbf0004 	sw	ra,4(sp)
 71c:	24020001 	li	v0,1
 720:	00002021 	move	a0,zero
 724:	00002821 	move	a1,zero
 728:	00003021 	move	a2,zero
 72c:	00003821 	move	a3,zero
 730:	0000000c 	syscall
 734:	00401821 	move	v1,v0
 738:	3042000f 	andi	v0,v0,0xf
 73c:	28420008 	slti	v0,v0,8
 740:	10400006 	beqz	v0,75c <rand+0x48>
 744:	70631002 	mul	v0,v1,v1
 748:	8fbf0004 	lw	ra,4(sp)
 74c:	70431002 	mul	v0,v0,v1
 750:	27bd0008 	addiu	sp,sp,8
 754:	03e00008 	jr	ra
 758:	3042ffff 	andi	v0,v0,0xffff
 75c:	8fbf0004 	lw	ra,4(sp)
 760:	3042ffff 	andi	v0,v0,0xffff
 764:	03e00008 	jr	ra
 768:	27bd0008 	addiu	sp,sp,8

0000076c <tty_printf>:
 76c:	27bdffc0 	addiu	sp,sp,-64
 770:	27a20044 	addiu	v0,sp,68
 774:	afa20000 	sw	v0,0(sp)
 778:	3c020000 	lui	v0,0x0
 77c:	afbe0038 	sw	s8,56(sp)
 780:	afb70034 	sw	s7,52(sp)
 784:	afb60030 	sw	s6,48(sp)
 788:	afb5002c 	sw	s5,44(sp)
 78c:	afb40028 	sw	s4,40(sp)
 790:	afb30024 	sw	s3,36(sp)
 794:	afb20020 	sw	s2,32(sp)
 798:	afbf003c 	sw	ra,60(sp)
 79c:	afb1001c 	sw	s1,28(sp)
 7a0:	afb00018 	sw	s0,24(sp)
 7a4:	afa50044 	sw	a1,68(sp)
 7a8:	afa60048 	sw	a2,72(sp)
 7ac:	afa7004c 	sw	a3,76(sp)
 7b0:	00809021 	move	s2,a0
 7b4:	24570000 	addiu	s7,v0,0
 7b8:	3c020000 	lui	v0,0x0
 7bc:	3c030000 	lui	v1,0x0
 7c0:	24550058 	addiu	s5,v0,88
 7c4:	82440000 	lb	a0,0(s2)
 7c8:	3c026666 	lui	v0,0x6666
 7cc:	247e0000 	addiu	s8,v1,0
 7d0:	34566667 	ori	s6,v0,0x6667
 7d4:	24130025 	li	s3,37
 7d8:	27b40004 	addiu	s4,sp,4
 7dc:	10800013 	beqz	a0,82c <tty_printf+0xc0>
 7e0:	8fbf003c 	lw	ra,60(sp)
 7e4:	26430001 	addiu	v1,s2,1
 7e8:	02408821 	move	s1,s2
 7ec:	00801021 	move	v0,a0
 7f0:	00008021 	move	s0,zero
 7f4:	10530006 	beq	v0,s3,810 <tty_printf+0xa4>
 7f8:	00000000 	nop
 7fc:	80620000 	lb	v0,0(v1)
 800:	00608821 	move	s1,v1
 804:	26100001 	addiu	s0,s0,1
 808:	1440fffa 	bnez	v0,7f4 <tty_printf+0x88>
 80c:	24630001 	addiu	v1,v1,1
 810:	16000012 	bnez	s0,85c <tty_printf+0xf0>
 814:	00002821 	move	a1,zero
 818:	1093001d 	beq	a0,s3,890 <tty_printf+0x124>
 81c:	02408821 	move	s1,s2
 820:	1480fff0 	bnez	a0,7e4 <tty_printf+0x78>
 824:	02209021 	move	s2,s1
 828:	8fbf003c 	lw	ra,60(sp)
 82c:	00001021 	move	v0,zero
 830:	8fbe0038 	lw	s8,56(sp)
 834:	8fb70034 	lw	s7,52(sp)
 838:	8fb60030 	lw	s6,48(sp)
 83c:	8fb5002c 	lw	s5,44(sp)
 840:	8fb40028 	lw	s4,40(sp)
 844:	8fb30024 	lw	s3,36(sp)
 848:	8fb20020 	lw	s2,32(sp)
 84c:	8fb1001c 	lw	s1,28(sp)
 850:	8fb00018 	lw	s0,24(sp)
 854:	03e00008 	jr	ra
 858:	27bd0040 	addiu	sp,sp,64
 85c:	00001021 	move	v0,zero
 860:	00002021 	move	a0,zero
 864:	00003021 	move	a2,zero
 868:	00003821 	move	a3,zero
 86c:	0000000c 	syscall
 870:	00402021 	move	a0,v0
 874:	02402821 	move	a1,s2
 878:	02003021 	move	a2,s0
 87c:	24020002 	li	v0,2
 880:	0000000c 	syscall
 884:	82240000 	lb	a0,0(s1)
 888:	1493ffe5 	bne	a0,s3,820 <tty_printf+0xb4>
 88c:	00000000 	nop
 890:	8fa40000 	lw	a0,0(sp)
 894:	26320001 	addiu	s2,s1,1
 898:	24830004 	addiu	v1,a0,4
 89c:	afa30000 	sw	v1,0(sp)
 8a0:	92220001 	lbu	v0,1(s1)
 8a4:	2442ff9d 	addiu	v0,v0,-99
 8a8:	304200ff 	andi	v0,v0,0xff
 8ac:	2c430016 	sltiu	v1,v0,22
 8b0:	10600037 	beqz	v1,990 <tty_printf+0x224>
 8b4:	8c900000 	lw	s0,0(a0)
 8b8:	00021080 	sll	v0,v0,0x2
 8bc:	02e21021 	addu	v0,s7,v0
 8c0:	8c430000 	lw	v1,0(v0)
 8c4:	00600008 	jr	v1
 8c8:	00000000 	nop
 8cc:	0601000e 	bgez	s0,908 <tty_printf+0x19c>
 8d0:	00003021 	move	a2,zero
 8d4:	00108023 	negu	s0,s0
 8d8:	00001021 	move	v0,zero
 8dc:	00002021 	move	a0,zero
 8e0:	00002821 	move	a1,zero
 8e4:	00003821 	move	a3,zero
 8e8:	0000000c 	syscall
 8ec:	3c050000 	lui	a1,0x0
 8f0:	00402021 	move	a0,v0
 8f4:	24a50000 	addiu	a1,a1,0
 8f8:	24020002 	li	v0,2
 8fc:	24060001 	li	a2,1
 900:	0000000c 	syscall
 904:	00003021 	move	a2,zero
 908:	24050009 	li	a1,9
 90c:	2407000a 	li	a3,10
 910:	02160018 	mult	s0,s6
 914:	001027c3 	sra	a0,s0,0x1f
 918:	00001810 	mfhi	v1
 91c:	00031883 	sra	v1,v1,0x2
 920:	00641823 	subu	v1,v1,a0
 924:	000320c0 	sll	a0,v1,0x3
 928:	00031040 	sll	v0,v1,0x1
 92c:	00441021 	addu	v0,v0,a0
 930:	02021023 	subu	v0,s0,v0
 934:	02a21021 	addu	v0,s5,v0
 938:	90440000 	lbu	a0,0(v0)
 93c:	02851021 	addu	v0,s4,a1
 940:	00608021 	move	s0,v1
 944:	10600005 	beqz	v1,95c <tty_printf+0x1f0>
 948:	a0440000 	sb	a0,0(v0)
 94c:	24c60001 	addiu	a2,a2,1
 950:	14c7ffef 	bne	a2,a3,910 <tty_printf+0x1a4>
 954:	24a5ffff 	addiu	a1,a1,-1
 958:	2405ffff 	li	a1,-1
 95c:	02858021 	addu	s0,s4,a1
 960:	24d10001 	addiu	s1,a2,1
 964:	00001021 	move	v0,zero
 968:	00002021 	move	a0,zero
 96c:	00002821 	move	a1,zero
 970:	00003021 	move	a2,zero
 974:	00003821 	move	a3,zero
 978:	0000000c 	syscall
 97c:	00402021 	move	a0,v0
 980:	02002821 	move	a1,s0
 984:	02203021 	move	a2,s1
 988:	24020002 	li	v0,2
 98c:	0000000c 	syscall
 990:	26520001 	addiu	s2,s2,1
 994:	080001f7 	j	7dc <tty_printf+0x70>
 998:	82440000 	lb	a0,0(s2)
 99c:	82020000 	lb	v0,0(s0)
 9a0:	10400041 	beqz	v0,aa8 <tty_printf+0x33c>
 9a4:	00003021 	move	a2,zero
 9a8:	24c60001 	addiu	a2,a2,1
 9ac:	00d01021 	addu	v0,a2,s0
 9b0:	80430000 	lb	v1,0(v0)
 9b4:	1460fffd 	bnez	v1,9ac <tty_printf+0x240>
 9b8:	24c60001 	addiu	a2,a2,1
 9bc:	24c6ffff 	addiu	a2,a2,-1
 9c0:	08000259 	j	964 <tty_printf+0x1f8>
 9c4:	00c08821 	move	s1,a2
 9c8:	00001021 	move	v0,zero
 9cc:	00002021 	move	a0,zero
 9d0:	00002821 	move	a1,zero
 9d4:	00003021 	move	a2,zero
 9d8:	00003821 	move	a3,zero
 9dc:	0000000c 	syscall
 9e0:	24060002 	li	a2,2
 9e4:	00402021 	move	a0,v0
 9e8:	03c02821 	move	a1,s8
 9ec:	24020002 	li	v0,2
 9f0:	0000000c 	syscall
 9f4:	00004021 	move	t0,zero
 9f8:	24070007 	li	a3,7
 9fc:	0800028e 	j	a38 <tty_printf+0x2cc>
 a00:	240afff0 	li	t2,-16
 a04:	02001021 	move	v0,s0
 a08:	02a33021 	addu	a2,s5,v1
 a0c:	2604000f 	addiu	a0,s0,15
 a10:	2a030000 	slti	v1,s0,0
 a14:	0083100b 	movn	v0,a0,v1
 a18:	90c50000 	lbu	a1,0(a2)
 a1c:	00028103 	sra	s0,v0,0x4
 a20:	12000016 	beqz	s0,a7c <tty_printf+0x310>
 a24:	a1250000 	sb	a1,0(t1)
 a28:	25080001 	addiu	t0,t0,1
 a2c:	24020008 	li	v0,8
 a30:	11020019 	beq	t0,v0,a98 <tty_printf+0x32c>
 a34:	24e7ffff 	addiu	a3,a3,-1
 a38:	3c028000 	lui	v0,0x8000
 a3c:	3442000f 	ori	v0,v0,0xf
 a40:	02021824 	and	v1,s0,v0
 a44:	0461ffef 	bgez	v1,a04 <tty_printf+0x298>
 a48:	02874821 	addu	t1,s4,a3
 a4c:	2463ffff 	addiu	v1,v1,-1
 a50:	006a1825 	or	v1,v1,t2
 a54:	24630001 	addiu	v1,v1,1
 a58:	02001021 	move	v0,s0
 a5c:	02a33021 	addu	a2,s5,v1
 a60:	2604000f 	addiu	a0,s0,15
 a64:	2a030000 	slti	v1,s0,0
 a68:	0083100b 	movn	v0,a0,v1
 a6c:	90c50000 	lbu	a1,0(a2)
 a70:	00028103 	sra	s0,v0,0x4
 a74:	1600ffec 	bnez	s0,a28 <tty_printf+0x2bc>
 a78:	a1250000 	sb	a1,0(t1)
 a7c:	02878021 	addu	s0,s4,a3
 a80:	08000259 	j	964 <tty_printf+0x1f8>
 a84:	25110001 	addiu	s1,t0,1
 a88:	a3b00004 	sb	s0,4(sp)
 a8c:	24110001 	li	s1,1
 a90:	08000259 	j	964 <tty_printf+0x1f8>
 a94:	02808021 	move	s0,s4
 a98:	2407ffff 	li	a3,-1
 a9c:	02878021 	addu	s0,s4,a3
 aa0:	08000259 	j	964 <tty_printf+0x1f8>
 aa4:	25110001 	addiu	s1,t0,1
 aa8:	08000259 	j	964 <tty_printf+0x1f8>
 aac:	00008821 	move	s1,zero

Disassembly of section .reginfo:

00000000 <.reginfo>:
   0:	e0ff07fc 	sc	ra,2044(a3)
	...

Disassembly of section .pdr:

00000000 <.pdr>:
   0:	00000000 	nop
   4:	80000000 	lb	zero,0(zero)
   8:	fffffffc 	sdc3	$31,-4(ra)
	...
  14:	00000008 	jr	zero
  18:	0000001d 	0x1d
  1c:	0000001f 	0x1f
  20:	00000000 	nop
  24:	80000000 	lb	zero,0(zero)
  28:	fffffffc 	sdc3	$31,-4(ra)
	...
  34:	00000008 	jr	zero
  38:	0000001d 	0x1d
  3c:	0000001f 	0x1f
  40:	00000000 	nop
  44:	80000000 	lb	zero,0(zero)
  48:	fffffffc 	sdc3	$31,-4(ra)
	...
  54:	00000008 	jr	zero
  58:	0000001d 	0x1d
  5c:	0000001f 	0x1f
  60:	00000000 	nop
  64:	80000000 	lb	zero,0(zero)
  68:	fffffffc 	sdc3	$31,-4(ra)
	...
  74:	00000008 	jr	zero
  78:	0000001d 	0x1d
  7c:	0000001f 	0x1f
  80:	00000000 	nop
  84:	80010000 	lb	at,0(zero)
  88:	fffffffc 	sdc3	$31,-4(ra)
	...
  94:	00000008 	jr	zero
  98:	0000001d 	0x1d
  9c:	0000001f 	0x1f
  a0:	00000000 	nop
  a4:	80000000 	lb	zero,0(zero)
  a8:	fffffffc 	sdc3	$31,-4(ra)
	...
  b4:	00000008 	jr	zero
  b8:	0000001d 	0x1d
  bc:	0000001f 	0x1f
  c0:	00000000 	nop
  c4:	80010000 	lb	at,0(zero)
  c8:	fffffffc 	sdc3	$31,-4(ra)
	...
  d4:	00000018 	mult	zero,zero
  d8:	0000001d 	0x1d
  dc:	0000001f 	0x1f
  e0:	00000000 	nop
  e4:	80030000 	lb	v1,0(zero)
  e8:	fffffffc 	sdc3	$31,-4(ra)
	...
  f4:	00000010 	mfhi	zero
  f8:	0000001d 	0x1d
  fc:	0000001f 	0x1f
 100:	00000000 	nop
 104:	80010000 	lb	at,0(zero)
 108:	fffffffc 	sdc3	$31,-4(ra)
	...
 114:	00000008 	jr	zero
 118:	0000001d 	0x1d
 11c:	0000001f 	0x1f
 120:	00000000 	nop
 124:	80010000 	lb	at,0(zero)
 128:	fffffffc 	sdc3	$31,-4(ra)
	...
 134:	00000020 	add	zero,zero,zero
 138:	0000001d 	0x1d
 13c:	0000001f 	0x1f
 140:	00000000 	nop
 144:	80000000 	lb	zero,0(zero)
 148:	fffffffc 	sdc3	$31,-4(ra)
	...
 154:	00000008 	jr	zero
 158:	0000001d 	0x1d
 15c:	0000001f 	0x1f
 160:	00000000 	nop
 164:	80000000 	lb	zero,0(zero)
 168:	fffffffc 	sdc3	$31,-4(ra)
	...
 174:	00000008 	jr	zero
 178:	0000001d 	0x1d
 17c:	0000001f 	0x1f
 180:	00000000 	nop
 184:	80000000 	lb	zero,0(zero)
 188:	fffffffc 	sdc3	$31,-4(ra)
	...
 194:	00000008 	jr	zero
 198:	0000001d 	0x1d
 19c:	0000001f 	0x1f
 1a0:	00000000 	nop
 1a4:	80000000 	lb	zero,0(zero)
 1a8:	fffffffc 	sdc3	$31,-4(ra)
	...
 1b4:	00000008 	jr	zero
 1b8:	0000001d 	0x1d
 1bc:	0000001f 	0x1f
 1c0:	00000000 	nop
 1c4:	80000000 	lb	zero,0(zero)
 1c8:	fffffffc 	sdc3	$31,-4(ra)
	...
 1d4:	00000008 	jr	zero
 1d8:	0000001d 	0x1d
 1dc:	0000001f 	0x1f
 1e0:	00000000 	nop
 1e4:	80000000 	lb	zero,0(zero)
 1e8:	fffffffc 	sdc3	$31,-4(ra)
	...
 1f4:	00000008 	jr	zero
 1f8:	0000001d 	0x1d
 1fc:	0000001f 	0x1f
 200:	00000000 	nop
 204:	80000000 	lb	zero,0(zero)
 208:	fffffffc 	sdc3	$31,-4(ra)
	...
 214:	00000008 	jr	zero
 218:	0000001d 	0x1d
 21c:	0000001f 	0x1f
 220:	00000000 	nop
 224:	80000000 	lb	zero,0(zero)
 228:	fffffffc 	sdc3	$31,-4(ra)
	...
 234:	00000008 	jr	zero
 238:	0000001d 	0x1d
 23c:	0000001f 	0x1f
 240:	00000000 	nop
 244:	80000000 	lb	zero,0(zero)
 248:	fffffffc 	sdc3	$31,-4(ra)
	...
 254:	00000008 	jr	zero
 258:	0000001d 	0x1d
 25c:	0000001f 	0x1f
 260:	00000000 	nop
 264:	80000000 	lb	zero,0(zero)
 268:	fffffffc 	sdc3	$31,-4(ra)
	...
 274:	00000008 	jr	zero
 278:	0000001d 	0x1d
 27c:	0000001f 	0x1f
 280:	00000000 	nop
 284:	80000000 	lb	zero,0(zero)
 288:	fffffffc 	sdc3	$31,-4(ra)
	...
 294:	00000008 	jr	zero
 298:	0000001d 	0x1d
 29c:	0000001f 	0x1f
 2a0:	00000000 	nop
 2a4:	80000000 	lb	zero,0(zero)
 2a8:	fffffffc 	sdc3	$31,-4(ra)
	...
 2b4:	00000008 	jr	zero
 2b8:	0000001d 	0x1d
 2bc:	0000001f 	0x1f
 2c0:	00000000 	nop
 2c4:	80000000 	lb	zero,0(zero)
 2c8:	fffffffc 	sdc3	$31,-4(ra)
	...
 2d4:	00000008 	jr	zero
 2d8:	0000001d 	0x1d
 2dc:	0000001f 	0x1f
 2e0:	00000000 	nop
 2e4:	80000000 	lb	zero,0(zero)
 2e8:	fffffffc 	sdc3	$31,-4(ra)
	...
 2f4:	00000008 	jr	zero
 2f8:	0000001d 	0x1d
 2fc:	0000001f 	0x1f
 300:	00000000 	nop
 304:	80000000 	lb	zero,0(zero)
 308:	fffffffc 	sdc3	$31,-4(ra)
	...
 314:	00000008 	jr	zero
 318:	0000001d 	0x1d
 31c:	0000001f 	0x1f
 320:	00000000 	nop
 324:	80000000 	lb	zero,0(zero)
 328:	fffffffc 	sdc3	$31,-4(ra)
	...
 334:	00000008 	jr	zero
 338:	0000001d 	0x1d
 33c:	0000001f 	0x1f
 340:	00000000 	nop
 344:	80000000 	lb	zero,0(zero)
 348:	fffffffc 	sdc3	$31,-4(ra)
	...
 354:	00000008 	jr	zero
 358:	0000001d 	0x1d
 35c:	0000001f 	0x1f
 360:	00000000 	nop
 364:	80000000 	lb	zero,0(zero)
 368:	fffffffc 	sdc3	$31,-4(ra)
	...
 374:	00000008 	jr	zero
 378:	0000001d 	0x1d
 37c:	0000001f 	0x1f
 380:	00000000 	nop
 384:	80000000 	lb	zero,0(zero)
 388:	fffffffc 	sdc3	$31,-4(ra)
	...
 394:	00000008 	jr	zero
 398:	0000001d 	0x1d
 39c:	0000001f 	0x1f
 3a0:	00000000 	nop
 3a4:	80000000 	lb	zero,0(zero)
 3a8:	fffffffc 	sdc3	$31,-4(ra)
	...
 3b4:	00000008 	jr	zero
 3b8:	0000001d 	0x1d
 3bc:	0000001f 	0x1f
 3c0:	00000000 	nop
 3c4:	80000000 	lb	zero,0(zero)
 3c8:	fffffffc 	sdc3	$31,-4(ra)
	...
 3d4:	00000008 	jr	zero
 3d8:	0000001d 	0x1d
 3dc:	0000001f 	0x1f
 3e0:	00000000 	nop
 3e4:	c0ff0000 	ll	ra,0(a3)
 3e8:	fffffffc 	sdc3	$31,-4(ra)
	...
 3f4:	00000040 	ssnop
 3f8:	0000001d 	0x1d
 3fc:	0000001f 	0x1f

Disassembly of section .debug_abbrev:

00000000 <.debug_abbrev>:
   0:	25011101 	addiu	at,t0,4353
   4:	030b130e 	0x30b130e
   8:	110e1b0e 	beq	t0,t6,6c44 <tty_printf+0x64d8>
   c:	10011201 	beq	zero,at,4814 <tty_printf+0x40a8>
  10:	02000006 	srlv	zero,zero,s0
  14:	0e030016 	jal	80c0058 <tty_printf+0x80bf8ec>
  18:	0b3b0b3a 	j	cec2ce8 <tty_printf+0xcec257c>
  1c:	00001349 	0x1349
  20:	0b000f03 	j	c003c0c <tty_printf+0xc0034a0>
  24:	000e030b 	0xe030b
  28:	01040400 	0x1040400
  2c:	0b0b0e03 	j	c2c380c <tty_printf+0xc2c30a0>
  30:	0b3b0b3a 	j	cec2ce8 <tty_printf+0xcec257c>
  34:	00001301 	0x1301
  38:	03002805 	0x3002805
  3c:	000d1c0e 	0xd1c0e
  40:	012e0600 	0x12e0600
  44:	0e030c3f 	jal	80c30fc <tty_printf+0x80c2990>
  48:	0b3b0b3a 	j	cec2ce8 <tty_printf+0xcec257c>
  4c:	13490c27 	beq	k0,t1,30ec <tty_printf+0x2980>
  50:	13010b20 	beq	t8,at,2cd4 <tty_printf+0x2568>
  54:	05070000 	0x5070000
  58:	3a0e0300 	xori	t6,s0,0x300
  5c:	490b3b0b 	bc2tl	$cc2,ec8c <tty_printf+0xe520>
  60:	08000013 	j	4c <.debug_abbrev+0x4c>
  64:	0e030034 	jal	80c00d0 <tty_printf+0x80bf964>
  68:	0b3b0b3a 	j	cec2ce8 <tty_printf+0xcec257c>
  6c:	00001349 	0x1349
  70:	0b002409 	j	c009024 <tty_printf+0xc0088b8>
  74:	030b3e0b 	0x30b3e0b
  78:	0a000008 	j	8000020 <tty_printf+0x7fff8b4>
  7c:	0c3f012e 	jal	fc04b8 <tty_printf+0xfbfd4c>
  80:	0b3a0e03 	j	ce8380c <tty_printf+0xce830a0>
  84:	13490b3b 	beq	k0,t1,2d74 <tty_printf+0x2608>
  88:	13010b20 	beq	t8,at,2d0c <tty_printf+0x25a0>
  8c:	0b0b0000 	j	c2c0000 <tty_printf+0xc2bf894>
  90:	0c000001 	jal	4 <.debug_abbrev+0x4>
  94:	13310034 	beq	t9,s1,168 <.debug_abbrev+0x168>
  98:	2e0d0000 	sltiu	t5,s0,0
  9c:	11133101 	beq	t0,s3,c4a4 <tty_printf+0xbd38>
  a0:	81011201 	lb	at,4609(t0)
  a4:	06400640 	bltz	s2,19a8 <tty_printf+0x123c>
  a8:	00001301 	0x1301
  ac:	3100050e 	andi	zero,t0,0x50e
  b0:	00060213 	0x60213
  b4:	00050f00 	sll	at,a1,0x1c
  b8:	0a021331 	j	8084cc4 <tty_printf+0x8084558>
  bc:	34100000 	li	s0,0x0
  c0:	02133100 	0x2133100
  c4:	11000006 	beqz	t0,e0 <.debug_abbrev+0xe0>
  c8:	13310034 	beq	t9,s1,19c <.debug_abbrev+0x19c>
  cc:	00000a02 	srl	at,zero,0x8
  d0:	31011d12 	andi	at,t0,0x1d12
  d4:	12011113 	beq	s0,at,4524 <tty_printf+0x3db8>
  d8:	590b5801 	0x590b5801
  dc:	1300000b 	beqz	t8,10c <.debug_abbrev+0x10c>
  e0:	13310005 	beq	t9,s1,f8 <.debug_abbrev+0xf8>
  e4:	0b140000 	j	c500000 <tty_printf+0xc4ff894>
  e8:	12011101 	beq	s0,at,44f0 <tty_printf+0x3d84>
  ec:	15000001 	bnez	t0,f4 <.debug_abbrev+0xf4>
  f0:	0c3f012e 	jal	fc04b8 <tty_printf+0xfbfd4c>
  f4:	0b3a0e03 	j	ce8380c <tty_printf+0xce830a0>
  f8:	13490b3b 	beq	k0,t1,2de8 <tty_printf+0x267c>
  fc:	01120111 	0x1120111
 100:	40064081 	0x40064081
 104:	00130106 	0x130106
 108:	00341600 	0x341600
 10c:	0b3a0e03 	j	ce8380c <tty_printf+0xce830a0>
 110:	13490b3b 	beq	k0,t1,2e00 <tty_printf+0x2694>
 114:	00000602 	srl	zero,zero,0x18
 118:	31011d17 	andi	at,t0,0x1d17
 11c:	12011113 	beq	s0,at,456c <tty_printf+0x3e00>
 120:	590b5801 	0x590b5801
 124:	0013010b 	0x13010b
 128:	012e1800 	0x12e1800
 12c:	0e030c3f 	jal	80c30fc <tty_printf+0x80c2990>
 130:	0b3b0b3a 	j	cec2ce8 <tty_printf+0xcec257c>
 134:	13490c27 	beq	k0,t1,31d4 <tty_printf+0x2a68>
 138:	01120111 	0x1120111
 13c:	40064081 	0x40064081
 140:	00130106 	0x130106
 144:	00051900 	sll	v1,a1,0x4
 148:	0b3a0e03 	j	ce8380c <tty_printf+0xce830a0>
 14c:	13490b3b 	beq	k0,t1,2e3c <tty_printf+0x26d0>
 150:	00000602 	srl	zero,zero,0x18
 154:	0300341a 	0x300341a
 158:	3b0b3a0e 	xori	t3,t8,0x3a0e
 15c:	0213490b 	0x213490b
 160:	1b00000a 	blez	t8,18c <.debug_abbrev+0x18c>
 164:	0b0b000f 	j	c2c003c <tty_printf+0xc2bf8d0>
 168:	00001349 	0x1349
 16c:	0b00241c 	j	c009070 <tty_printf+0xc008904>
 170:	030b3e0b 	0x30b3e0b
 174:	1d00000e 	bgtz	t0,1b0 <.debug_abbrev+0x1b0>
 178:	08030005 	j	c0014 <tty_printf+0xbf8a8>
 17c:	0b3b0b3a 	j	cec2ce8 <tty_printf+0xcec257c>
 180:	06021349 	bltzl	s0,4ea8 <tty_printf+0x473c>
 184:	341e0000 	li	s8,0x0
 188:	3a080300 	xori	t0,s0,0x300
 18c:	490b3b0b 	bc2tl	$cc2,edbc <tty_printf+0xe650>
 190:	000a0213 	0xa0213
 194:	00341f00 	0x341f00
 198:	0b3a0803 	j	ce8200c <tty_printf+0xce818a0>
 19c:	13490b3b 	beq	k0,t1,2e8c <tty_printf+0x2720>
 1a0:	1d200000 	bgtz	t1,1a4 <.debug_abbrev+0x1a4>
 1a4:	55133101 	bnel	t0,s3,c5ac <tty_printf+0xbe40>
 1a8:	590b5806 	0x590b5806
 1ac:	0013010b 	0x13010b
 1b0:	011d2100 	0x11d2100
 1b4:	06551331 	0x6551331
 1b8:	0b590b58 	j	d642d60 <tty_printf+0xd6425f4>
 1bc:	0b220000 	j	c880000 <tty_printf+0xc87f894>
 1c0:	00065501 	0x65501
 1c4:	01012300 	0x1012300
 1c8:	13011349 	beq	t8,at,4ef0 <tty_printf+0x4784>
 1cc:	21240000 	addi	a0,t1,0
 1d0:	2f134900 	sltiu	s3,t8,18688
 1d4:	2500000b 	addiu	zero,t0,11
 1d8:	0b0b0024 	j	c2c0090 <tty_printf+0xc2bf924>
 1dc:	00000b3e 	0xb3e
 1e0:	03003426 	0x3003426
 1e4:	3b0b3a08 	xori	t3,t8,0x3a08
 1e8:	0213490b 	0x213490b
 1ec:	27000006 	addiu	zero,t8,6
 1f0:	0c3f012e 	jal	fc04b8 <tty_printf+0xfbfd4c>
 1f4:	0b3a0e03 	j	ce8380c <tty_printf+0xce830a0>
 1f8:	0c27053b 	jal	9c14ec <tty_printf+0x9c0d80>
 1fc:	01111349 	0x1111349
 200:	40810112 	0x40810112
 204:	01064006 	srlv	t0,a2,t0
 208:	28000013 	slti	zero,zero,19
 20c:	0e030005 	jal	80c0014 <tty_printf+0x80bf8a8>
 210:	053b0b3a 	0x53b0b3a
 214:	0a021349 	j	8084d24 <tty_printf+0x80845b8>
 218:	05290000 	tgeiu	t1,0
 21c:	3a080300 	xori	t0,s0,0x300
 220:	49053b0b 	bc2t	$cc1,ee50 <tty_printf+0xe6e4>
 224:	00060213 	0x60213
 228:	011d2a00 	0x11d2a00
 22c:	06551331 	0x6551331
 230:	05590b58 	0x5590b58
 234:	1d2b0000 	0x1d2b0000
 238:	11133101 	beq	t0,s3,c640 <tty_printf+0xbed4>
 23c:	58011201 	0x58011201
 240:	0005590b 	0x5590b
 244:	00052c00 	sll	a1,a1,0x10
 248:	0b3a0e03 	j	ce8380c <tty_printf+0xce830a0>
 24c:	1349053b 	beq	k0,t1,173c <tty_printf+0xfd0>
 250:	00000602 	srl	zero,zero,0x18
 254:	0b000f2d 	j	c003cb4 <tty_printf+0xc003548>
 258:	2e00000b 	sltiu	zero,s0,11
 25c:	0c3f012e 	jal	fc04b8 <tty_printf+0xfbfd4c>
 260:	0b3a0e03 	j	ce8380c <tty_printf+0xce830a0>
 264:	1349053b 	beq	k0,t1,1754 <tty_printf+0xfe8>
 268:	01120111 	0x1120111
 26c:	40064081 	0x40064081
 270:	00130106 	0x130106
 274:	00342f00 	0x342f00
 278:	0b3a0803 	j	ce8200c <tty_printf+0xce818a0>
 27c:	1349053b 	beq	k0,t1,176c <tty_printf+0x1000>
 280:	00000a02 	srl	at,zero,0x8
 284:	00001830 	tge	zero,zero,0x60
 288:	000a3100 	sll	a2,t2,0x4
 28c:	0b3a0e03 	j	ce8380c <tty_printf+0xce830a0>
 290:	0000053b 	0x53b
 294:	03000a32 	tlt	t8,zero,0x28
 298:	3b0b3a0e 	xori	t3,t8,0x3a0e
 29c:	00011105 	0x11105
 2a0:	010b3300 	0x10b3300
 2a4:	13010655 	beq	t8,at,1bfc <tty_printf+0x1490>
 2a8:	34340000 	ori	s4,at,0x0
 2ac:	3a080300 	xori	t0,s0,0x300
 2b0:	49053b0b 	bc2t	$cc1,eee0 <tty_printf+0xe774>
 2b4:	00060213 	0x60213
 2b8:	00343500 	0x343500
 2bc:	0b3a0e03 	j	ce8380c <tty_printf+0xce830a0>
 2c0:	1349053b 	beq	k0,t1,17b0 <tty_printf+0x1044>
 2c4:	00000602 	srl	zero,zero,0x18
 2c8:	31011d36 	andi	at,t0,0x1d36
 2cc:	58065513 	0x58065513
 2d0:	0105590b 	0x105590b
 2d4:	37000013 	ori	zero,t8,0x13
 2d8:	1331011d 	beq	t9,s1,750 <rand+0x3c>
 2dc:	01120111 	0x1120111
 2e0:	05590b58 	0x5590b58
 2e4:	00001301 	0x1301
 2e8:	11010b38 	beq	t0,at,2fcc <tty_printf+0x2860>
 2ec:	01011201 	0x1011201
 2f0:	39000013 	xori	zero,t0,0x13
 2f4:	08030034 	j	c00d0 <tty_printf+0xbf964>
 2f8:	053b0b3a 	0x53b0b3a
 2fc:	00001349 	0x1349
 300:	0300343a 	0x300343a
 304:	3b0b3a0e 	xori	t3,t8,0x3a0e
 308:	02134905 	0x2134905
 30c:	3b00000a 	xori	zero,t8,0xa
 310:	13490026 	beq	k0,t1,3ac <tty_getw+0xd0>
 314:	Address 0x0000000000000314 is out of bounds.


Disassembly of section .debug_info:

00000000 <.debug_info>:
       0:	00001894 	0x1894
       4:	00000002 	srl	zero,zero,0x0
       8:	01040000 	0x1040000
       c:	00000202 	srl	zero,zero,0x8
      10:	0002d201 	0x2d201
      14:	00019a00 	sll	s3,at,0x8
      18:	00000000 	nop
      1c:	000ab000 	sll	s6,t2,0x0
      20:	00000000 	nop
      24:	03600200 	0x3600200
      28:	2b020000 	slti	v0,t8,0
      2c:	00000030 	tge	zero,zero
      30:	02fa0403 	0x2fa0403
      34:	bc020000 	cache	0x2,0(zero)
      38:	02000000 	0x2000000
      3c:	00002569 	0x2569
      40:	02110400 	0x2110400
      44:	03040000 	0x3040000
      48:	00006c04 	0x6c04
      4c:	03450500 	0x3450500
      50:	05000000 	bltz	t0,54 <.debug_info+0x54>
      54:	000003cd 	break	0x0,0xf
      58:	02330501 	0x2330501
      5c:	05020000 	bltzl	t0,60 <.debug_info+0x60>
      60:	000003be 	0x3be
      64:	02950503 	0x2950503
      68:	00040000 	sll	zero,a0,0x0
      6c:	0001be04 	0x1be04
      70:	04040400 	0x4040400
      74:	00000097 	0x97
      78:	00000f05 	0xf05
      7c:	17050000 	bne	t8,a1,80 <.debug_info+0x80>
      80:	01000000 	0x1000000
      84:	00000505 	0x505
      88:	51050200 	beql	t0,a1,88c <.debug_info+0x88c>
      8c:	03000000 	0x3000000
      90:	0002a805 	0x2a805
      94:	04000400 	bltz	zero,1098 <.debug_info+0x1098>
      98:	0000005c 	0x5c
      9c:	c2040504 	ll	a0,1284(s0)
      a0:	05000000 	bltz	t0,a4 <.debug_info+0xa4>
      a4:	00000128 	0x128
      a8:	02e90500 	0x2e90500
      ac:	05010000 	bgez	t0,b0 <.debug_info+0xb0>
      b0:	00000044 	0x44
      b4:	01300502 	0x1300502
      b8:	05030000 	bgezl	t0,bc <.debug_info+0xbc>
      bc:	0000024f 	0x24f
      c0:	d8040004 	ldc2	$4,4(zero)
      c4:	04000001 	bltz	zero,cc <.debug_info+0xcc>
      c8:	00ed0406 	0xed0406
      cc:	3d050000 	0x3d050000
      d0:	00000003 	sra	zero,zero,0x0
      d4:	00038105 	0x38105
      d8:	d1050100 	0xd1050100
      dc:	02000000 	0x2000000
      e0:	0003b405 	0x3b405
      e4:	ab050300 	swl	a1,768(t8)
      e8:	04000003 	bltz	zero,f8 <.debug_info+0xf8>
      ec:	2e010600 	sltiu	at,s0,1536
      f0:	01000000 	0x1000000
      f4:	016e011b 	0x16e011b
      f8:	6e030000 	0x6e030000
      fc:	07000001 	bltz	t8,104 <.debug_info+0x104>
     100:	000002f2 	tlt	zero,zero,0xb
     104:	016e1601 	0x16e1601
     108:	d9070000 	ldc2	$7,0(t0)
     10c:	01000000 	0x1000000
     110:	00016e17 	0x16e17
     114:	00df0700 	0xdf0700
     118:	18010000 	0x18010000
     11c:	0000016e 	0x16e
     120:	0000e507 	0xe507
     124:	6e190100 	0x6e190100
     128:	07000001 	bltz	t8,130 <.debug_info+0x130>
     12c:	000000eb 	0xeb
     130:	016e1a01 	0x16e1a01
     134:	aa080000 	swl	t0,0(s0)
     138:	01000000 	0x1000000
     13c:	00016e1c 	0x16e1c
     140:	00a30800 	0xa30800
     144:	1d010000 	0x1d010000
     148:	0000016e 	0x16e
     14c:	0000f108 	0xf108
     150:	6e1e0100 	0x6e1e0100
     154:	08000001 	j	4 <.debug_info+0x4>
     158:	000000f8 	0xf8
     15c:	016e1f01 	0x16e1f01
     160:	ff080000 	sdc3	$8,0(t8)
     164:	01000000 	0x1000000
     168:	00016e20 	0x16e20
     16c:	04090000 	tgeiu	zero,0
     170:	746e6905 	jalx	1b9a414 <tty_printf+0x1b99ca8>
     174:	06010a00 	bgez	s0,2978 <tty_printf+0x220c>
     178:	01000001 	movf	zero,t0,$fcc0
     17c:	00016e41 	0x16e41
     180:	01a40000 	0x1a40000
     184:	0b0b0000 	j	c2c0000 <tty_printf+0xc2bf894>
     188:	0001360c 	syscall	0x4d8
     18c:	01410c00 	0x1410c00
     190:	4c0c0000 	mfc3	t4,$0
     194:	0c000001 	jal	4 <.debug_info+0x4>
     198:	00000157 	0x157
     19c:	0001620c 	syscall	0x588
     1a0:	00000000 	nop
     1a4:	0000ed0d 	break	0x0,0x3b4
     1a8:	00000000 	nop
     1ac:	00002c00 	sll	a1,zero,0x10
     1b0:	00001000 	sll	v0,zero,0x0
     1b4:	00000000 	nop
     1b8:	00020f00 	sll	at,v0,0x1c
     1bc:	00ff0e00 	0xff0e00
     1c0:	001f0000 	sll	zero,ra,0x0
     1c4:	0a0e0000 	j	8380000 <tty_printf+0x837f894>
     1c8:	32000001 	andi	zero,s0,0x1
     1cc:	0e000000 	jal	8000000 <tty_printf+0x7fff894>
     1d0:	00000115 	0x115
     1d4:	00000045 	0x45
     1d8:	0001200e 	0x1200e
     1dc:	00005800 	sll	t3,zero,0x0
     1e0:	012b0f00 	0x12b0f00
     1e4:	91020000 	lbu	v0,0(t0)
     1e8:	01361010 	0x1361010
     1ec:	006b0000 	0x6b0000
     1f0:	41110000 	0x41110000
     1f4:	01000001 	movf	zero,t0,$fcc0
     1f8:	014c1154 	0x14c1154
     1fc:	55010000 	bnel	t0,at,200 <.debug_info+0x200>
     200:	00015711 	0x15711
     204:	11560100 	beq	t2,s6,608 <.debug_info+0x608>
     208:	00000162 	0x162
     20c:	0d005701 	jal	4015c04 <tty_printf+0x4015498>
     210:	00000175 	0x175
     214:	0000002c 	0x2c
     218:	00000058 	0x58
     21c:	00000028 	0x28
     220:	0000007e 	0x7e
     224:	00000281 	0x281
     228:	0000ed12 	0xed12
     22c:	00003400 	sll	a2,zero,0x10
     230:	00004c00 	sll	t1,zero,0x10
     234:	13420100 	beq	k0,v0,638 <.debug_info+0x638>
     238:	000001e1 	0x1e1
     23c:	0001d813 	0x1d813
     240:	01cf1300 	0x1cf1300
     244:	c6130000 	lwc1	$f19,0(s0)
     248:	13000001 	beqz	t8,250 <.debug_info+0x250>
     24c:	000001bd 	0x1bd
     250:	00003414 	0x3414
     254:	00004c00 	sll	t1,zero,0x10
     258:	01361000 	0x1361000
     25c:	009d0000 	0x9d0000
     260:	41110000 	0x41110000
     264:	01000001 	movf	zero,t0,$fcc0
     268:	014c1154 	0x14c1154
     26c:	55010000 	bnel	t0,at,270 <.debug_info+0x270>
     270:	00015711 	0x15711
     274:	11560100 	beq	t2,s6,678 <.debug_info+0x678>
     278:	00000162 	0x162
     27c:	00005701 	0x5701
     280:	64011500 	0x64011500
     284:	01000001 	movf	zero,t0,$fcc0
     288:	00016e4a 	0x16e4a
     28c:	00005800 	sll	t3,zero,0x0
     290:	00008400 	sll	s0,zero,0x10
     294:	00004000 	sll	t0,zero,0x0
     298:	0000b000 	sll	s6,zero,0x0
     29c:	0002fa00 	sll	ra,v0,0x8
     2a0:	00ed1200 	0xed1200
     2a4:	00600000 	0x600000
     2a8:	00780000 	0x780000
     2ac:	4b010000 	c2	0x1010000
     2b0:	0001e113 	0x1e113
     2b4:	01d81300 	0x1d81300
     2b8:	cf130000 	pref	0x13,0(t8)
     2bc:	13000001 	beqz	t8,2c4 <.debug_info+0x2c4>
     2c0:	000001c6 	0x1c6
     2c4:	0001bd13 	0x1bd13
     2c8:	00601400 	0x601400
     2cc:	00780000 	0x780000
     2d0:	36100000 	ori	s0,s0,0x0
     2d4:	cf000001 	pref	0x0,1(t8)
     2d8:	11000000 	beqz	t0,2dc <.debug_info+0x2dc>
     2dc:	00000141 	0x141
     2e0:	4c115401 	0x4c115401
     2e4:	01000001 	movf	zero,t0,$fcc0
     2e8:	01571155 	0x1571155
     2ec:	56010000 	bnel	s0,at,2f0 <.debug_info+0x2f0>
     2f0:	00016211 	0x16211
     2f4:	00570100 	0x570100
     2f8:	01150000 	0x1150000
     2fc:	00000195 	0x195
     300:	016e5301 	0x16e5301
     304:	00840000 	0x840000
     308:	00bc0000 	0xbc0000
     30c:	00580000 	0x580000
     310:	00e20000 	0xe20000
     314:	03d70000 	0x3d70000
     318:	6d160000 	0x6d160000
     31c:	01000001 	movf	zero,t0,$fcc0
     320:	00016e54 	0x16e54
     324:	00010100 	sll	zero,at,0x4
     328:	01751700 	0x1751700
     32c:	008c0000 	0x8c0000
     330:	00a40000 	0xa40000
     334:	54010000 	bnel	zero,at,338 <.debug_info+0x338>
     338:	0000037e 	0x37e
     33c:	0000ed12 	0xed12
     340:	00008c00 	sll	s1,zero,0x10
     344:	0000a400 	sll	s4,zero,0x10
     348:	14420100 	bne	v0,v0,74c <.debug_info+0x74c>
     34c:	0000008c 	syscall	0x2
     350:	000000a4 	0xa4
     354:	00013610 	0x13610
     358:	00011400 	sll	v0,at,0x10
     35c:	01411000 	0x1411000
     360:	01270000 	0x1270000
     364:	4c110000 	mfc3	s1,$0
     368:	01000001 	movf	zero,t0,$fcc0
     36c:	01571155 	0x1571155
     370:	56010000 	bnel	s0,at,374 <.debug_info+0x374>
     374:	00016211 	0x16211
     378:	00570100 	0x570100
     37c:	ed120000 	swc3	$18,0(t0)
     380:	a4000000 	sh	zero,0(zero)
     384:	b0000000 	0xb0000000
     388:	01000000 	0x1000000
     38c:	01e11355 	0x1e11355
     390:	d8130000 	ldc2	$19,0(zero)
     394:	13000001 	beqz	t8,39c <.debug_info+0x39c>
     398:	000001cf 	0x1cf
     39c:	0001c613 	0x1c613
     3a0:	01bd1300 	0x1bd1300
     3a4:	a4140000 	sh	s4,0(zero)
     3a8:	b0000000 	0xb0000000
     3ac:	10000000 	b	3b0 <.debug_info+0x3b0>
     3b0:	00000136 	tne	zero,zero,0x4
     3b4:	0000013a 	0x13a
     3b8:	00014111 	0x14111
     3bc:	11540100 	beq	t2,s4,7c0 <.debug_info+0x7c0>
     3c0:	0000014c 	syscall	0x5
     3c4:	57115501 	bnel	t8,s1,157cc <tty_printf+0x15060>
     3c8:	01000001 	movf	zero,t0,$fcc0
     3cc:	01621156 	0x1621156
     3d0:	57010000 	bnel	t8,at,3d4 <.debug_info+0x3d4>
     3d4:	18000000 	blez	zero,3d8 <.debug_info+0x3d8>
     3d8:	00015401 	0x15401
     3dc:	01660100 	0x1660100
     3e0:	0000016e 	0x16e
     3e4:	000000bc 	0xbc
     3e8:	00000130 	tge	zero,zero,0x4
     3ec:	00000070 	tge	zero,zero,0x1
     3f0:	0000014d 	break	0x0,0x5
     3f4:	000004d7 	0x4d7
     3f8:	00015d19 	0x15d19
     3fc:	d7650100 	ldc1	$f5,256(k1)
     400:	6c000004 	0x6c000004
     404:	16000001 	bnez	s0,40c <.debug_info+0x40c>
     408:	0000016d 	0x16d
     40c:	016e6701 	0x16e6701
     410:	018a0000 	0x18a0000
     414:	d11a0000 	0xd11a0000
     418:	01000001 	movf	zero,t0,$fcc0
     41c:	00016e68 	0x16e68
     420:	17560100 	bne	k0,s6,824 <.debug_info+0x824>
     424:	00000175 	0x175
     428:	000000cc 	syscall	0x3
     42c:	000000e4 	0xe4
     430:	047e6701 	0x47e6701
     434:	ed120000 	swc3	$18,0(t0)
     438:	cc000000 	pref	0x0,0(zero)
     43c:	e4000000 	swc1	$f0,0(zero)
     440:	01000000 	0x1000000
     444:	00cc1442 	0xcc1442
     448:	00e40000 	0xe40000
     44c:	36100000 	ori	s0,s0,0x0
     450:	9d000001 	0x9d000001
     454:	10000001 	b	45c <.debug_info+0x45c>
     458:	00000141 	0x141
     45c:	000001bb 	0x1bb
     460:	00014c10 	0x14c10
     464:	0001ce00 	sll	t9,at,0x18
     468:	01571000 	0x1571000
     46c:	01e10000 	0x1e10000
     470:	62100000 	0x62100000
     474:	ff000001 	sdc3	$0,1(t8)
     478:	00000001 	movf	zero,zero,$fcc0
     47c:	ed120000 	swc3	$18,0(t0)
     480:	0c000000 	jal	0 <.debug_info>
     484:	20000001 	addi	zero,zero,1
     488:	01000001 	movf	zero,t0,$fcc0
     48c:	01e1136c 	0x1e1136c
     490:	d8130000 	ldc2	$19,0(zero)
     494:	13000001 	beqz	t8,49c <.debug_info+0x49c>
     498:	000001cf 	0x1cf
     49c:	0001c613 	0x1c613
     4a0:	01bd1300 	0x1bd1300
     4a4:	0c140000 	jal	500000 <tty_printf+0x4ff894>
     4a8:	20000001 	addi	zero,zero,1
     4ac:	10000001 	b	4b4 <.debug_info+0x4b4>
     4b0:	00000136 	tne	zero,zero,0x4
     4b4:	00000212 	0x212
     4b8:	00014111 	0x14111
     4bc:	11540100 	beq	t2,s4,8c0 <.debug_info+0x8c0>
     4c0:	0000014c 	syscall	0x5
     4c4:	57115501 	bnel	t8,s1,158cc <tty_printf+0x15160>
     4c8:	01000001 	movf	zero,t0,$fcc0
     4cc:	01621156 	0x1621156
     4d0:	57010000 	bnel	t8,at,4d4 <.debug_info+0x4d4>
     4d4:	1b000000 	blez	t8,4d8 <.debug_info+0x4d8>
     4d8:	0004dd04 	0x4dd04
     4dc:	06011c00 	bgez	s0,74e0 <tty_printf+0x6d74>
     4e0:	00000290 	0x290
     4e4:	013f0118 	0x13f0118
     4e8:	79010000 	0x79010000
     4ec:	00016e01 	0x16e01
     4f0:	00013000 	sll	a2,at,0x0
     4f4:	00017400 	sll	t6,at,0x10
     4f8:	00008800 	sll	s1,zero,0x0
     4fc:	00022500 	sll	a0,v0,0x14
     500:	0005d500 	sll	k0,a1,0x14
     504:	01901900 	0x1901900
     508:	78010000 	0x78010000
     50c:	000004dd 	0x4dd
     510:	00000244 	0x244
     514:	00016d16 	0x16d16
     518:	6e7a0100 	0x6e7a0100
     51c:	63000001 	0x63000001
     520:	17000002 	bnez	t8,52c <.debug_info+0x52c>
     524:	00000175 	0x175
     528:	0000013c 	0x13c
     52c:	00000154 	0x154
     530:	057c7a01 	0x57c7a01
     534:	ed120000 	swc3	$18,0(t0)
     538:	3c000000 	lui	zero,0x0
     53c:	54000001 	bnezl	zero,544 <.debug_info+0x544>
     540:	01000001 	movf	zero,t0,$fcc0
     544:	013c1442 	0x13c1442
     548:	01540000 	0x1540000
     54c:	36100000 	ori	s0,s0,0x0
     550:	76000001 	jalx	8000004 <tty_printf+0x7fff898>
     554:	10000002 	b	560 <.debug_info+0x560>
     558:	00000141 	0x141
     55c:	00000289 	0x289
     560:	00014c10 	0x14c10
     564:	00029c00 	sll	s3,v0,0x10
     568:	01571000 	0x1571000
     56c:	02af0000 	0x2af0000
     570:	62110000 	0x62110000
     574:	01000001 	movf	zero,t0,$fcc0
     578:	00000057 	0x57
     57c:	0000ed12 	0xed12
     580:	00015400 	sll	t2,at,0x10
     584:	00016800 	sll	t5,at,0x0
     588:	137b0100 	beq	k1,k1,98c <.debug_info+0x98c>
     58c:	000001e1 	0x1e1
     590:	0001d813 	0x1d813
     594:	01cf1300 	0x1cf1300
     598:	c6130000 	lwc1	$f19,0(s0)
     59c:	13000001 	beqz	t8,5a4 <.debug_info+0x5a4>
     5a0:	000001bd 	0x1bd
     5a4:	00015414 	0x15414
     5a8:	00016800 	sll	t5,at,0x0
     5ac:	01361000 	0x1361000
     5b0:	02c20000 	0x2c20000
     5b4:	41110000 	0x41110000
     5b8:	01000001 	movf	zero,t0,$fcc0
     5bc:	014c1154 	0x14c1154
     5c0:	55010000 	bnel	t0,at,5c4 <.debug_info+0x5c4>
     5c4:	00015711 	0x15711
     5c8:	11560100 	beq	t2,s6,9cc <.debug_info+0x9cc>
     5cc:	00000162 	0x162
     5d0:	00005701 	0x5701
     5d4:	7b011800 	0x7b011800
     5d8:	01000002 	0x1000002
     5dc:	016e0188 	0x16e0188
     5e0:	01740000 	0x1740000
     5e4:	02100000 	0x2100000
     5e8:	00a00000 	0xa00000
     5ec:	02d50000 	0x2d50000
     5f0:	06d30000 	bgezall	s6,5f4 <.debug_info+0x5f4>
     5f4:	761d0000 	jalx	8740000 <tty_printf+0x873f894>
     5f8:	01006c61 	0x1006c61
     5fc:	00016e87 	0x16e87
     600:	0002f400 	sll	s8,v0,0x10
     604:	016d1600 	0x16d1600
     608:	89010000 	lwl	at,0(t0)
     60c:	0000016e 	0x16e
     610:	00000312 	0x312
     614:	6675621e 	0x6675621e
     618:	d38a0100 	0xd38a0100
     61c:	02000006 	srlv	zero,zero,s0
     620:	691f6891 	0x691f6891
     624:	6e8b0100 	0x6e8b0100
     628:	20000001 	addi	zero,zero,1
     62c:	00000175 	0x175
     630:	00000000 	nop
     634:	067a8901 	0x67a8901
     638:	ed210000 	swc3	$1,0(t1)
     63c:	18000000 	blez	zero,640 <.debug_info+0x640>
     640:	01000000 	0x1000000
     644:	00302242 	ror	a0,s0,0x9
     648:	36100000 	ori	s0,s0,0x0
     64c:	25000001 	addiu	zero,t0,1
     650:	10000003 	b	660 <.debug_info+0x660>
     654:	00000141 	0x141
     658:	00000338 	0x338
     65c:	00014c10 	0x14c10
     660:	00034b00 	sll	t1,v1,0xc
     664:	01571000 	0x1571000
     668:	035e0000 	0x35e0000
     66c:	62100000 	0x62100000
     670:	71000001 	maddu	t0,zero
     674:	00000003 	sra	zero,zero,0x0
     678:	ed120000 	swc3	$18,0(t0)
     67c:	e8000000 	swc2	$0,0(zero)
     680:	00000001 	movf	zero,zero,$fcc0
     684:	01000002 	0x1000002
     688:	01e11390 	0x1e11390
     68c:	d8130000 	ldc2	$19,0(zero)
     690:	13000001 	beqz	t8,698 <.debug_info+0x698>
     694:	000001cf 	0x1cf
     698:	0001c613 	0x1c613
     69c:	01bd1300 	0x1bd1300
     6a0:	e8140000 	swc2	$20,0(zero)
     6a4:	00000001 	movf	zero,zero,$fcc0
     6a8:	10000002 	b	6b4 <.debug_info+0x6b4>
     6ac:	00000136 	tne	zero,zero,0x4
     6b0:	00000384 	0x384
     6b4:	00014111 	0x14111
     6b8:	11540100 	beq	t2,s4,abc <.debug_info+0xabc>
     6bc:	0000014c 	syscall	0x5
     6c0:	57115501 	bnel	t8,s1,15ac8 <tty_printf+0x1535c>
     6c4:	01000001 	movf	zero,t0,$fcc0
     6c8:	01621156 	0x1621156
     6cc:	57010000 	bnel	t8,at,6d0 <.debug_info+0x6d0>
     6d0:	23000000 	addi	zero,t8,0
     6d4:	000004dd 	0x4dd
     6d8:	000006e3 	0x6e3
     6dc:	0006e324 	0x6e324
     6e0:	25000900 	addiu	zero,t0,2304
     6e4:	01180704 	0x1180704
     6e8:	0000036f 	0x36f
     6ec:	6e01a101 	0x6e01a101
     6f0:	10000001 	b	6f8 <.debug_info+0x6f8>
     6f4:	90000002 	lbu	zero,2(zero)
     6f8:	b8000002 	swr	zero,2(zero)
     6fc:	97000000 	lhu	zero,0(t8)
     700:	dc000003 	ldc3	$0,3(zero)
     704:	1d000007 	bgtz	t0,724 <.debug_info+0x724>
     708:	00667562 	0x667562
     70c:	04d7a001 	0x4d7a001
     710:	03b60000 	0x3b60000
     714:	0c190000 	jal	640000 <tty_printf+0x63f894>
     718:	01000003 	0x1000003
     71c:	00016ea0 	0x16ea0
     720:	0003df00 	sll	k1,v1,0x1c
     724:	016d1600 	0x16d1600
     728:	a2010000 	sb	at,0(s0)
     72c:	0000016e 	0x16e
     730:	00000408 	jr.hb	zero
     734:	74657226 	jalx	195c898 <tty_printf+0x195c12c>
     738:	6ea30100 	0x6ea30100
     73c:	1b000001 	blez	t8,744 <.debug_info+0x744>
     740:	17000004 	bnez	t8,754 <.debug_info+0x754>
     744:	00000175 	0x175
     748:	00000228 	0x228
     74c:	00000240 	sll	zero,zero,0x9
     750:	079ca201 	0x79ca201
     754:	ed120000 	swc3	$18,0(t0)
     758:	28000000 	slti	zero,zero,0
     75c:	40000002 	mfc0	zero,$0,2
     760:	01000002 	0x1000002
     764:	02281442 	0x2281442
     768:	02400000 	0x2400000
     76c:	36100000 	ori	s0,s0,0x0
     770:	39000001 	xori	zero,t0,0x1
     774:	10000004 	b	788 <.debug_info+0x788>
     778:	00000141 	0x141
     77c:	0000044c 	syscall	0x11
     780:	00014c10 	0x14c10
     784:	00045f00 	sll	t3,a0,0x1c
     788:	01571000 	0x1571000
     78c:	04720000 	bltzall	v1,790 <.debug_info+0x790>
     790:	62110000 	0x62110000
     794:	01000001 	movf	zero,t0,$fcc0
     798:	00000057 	0x57
     79c:	0000ed12 	0xed12
     7a0:	00024000 	sll	t0,v0,0x0
     7a4:	00025400 	sll	t2,v0,0x10
     7a8:	14a70100 	bne	a1,a3,bac <.debug_info+0xbac>
     7ac:	00000240 	sll	zero,zero,0x9
     7b0:	00000254 	0x254
     7b4:	00013610 	0x13610
     7b8:	00048500 	sll	s0,a0,0x14
     7bc:	01411100 	0x1411100
     7c0:	54010000 	bnel	zero,at,7c4 <.debug_info+0x7c4>
     7c4:	00014c11 	0x14c11
     7c8:	11550100 	beq	t2,s5,bcc <.debug_info+0xbcc>
     7cc:	00000157 	0x157
     7d0:	62115601 	0x62115601
     7d4:	01000001 	movf	zero,t0,$fcc0
     7d8:	00000057 	0x57
     7dc:	032f0118 	0x32f0118
     7e0:	b6010000 	0xb6010000
     7e4:	00016e01 	0x16e01
     7e8:	00029000 	sll	s2,v0,0x0
     7ec:	0002dc00 	sll	k1,v0,0x10
     7f0:	0000d400 	sll	k0,zero,0x10
     7f4:	0004a300 	sll	s4,a0,0xc
     7f8:	0008cd00 	sll	t9,t0,0x14
     7fc:	75621d00 	jalx	5887400 <tty_printf+0x5886c94>
     800:	b5010066 	0xb5010066
     804:	000004d7 	0x4d7
     808:	000004c2 	srl	zero,zero,0x13
     80c:	00016d16 	0x16d16
     810:	6eb70100 	0x6eb70100
     814:	e0000001 	sc	zero,1(zero)
     818:	17000004 	bnez	t8,82c <.debug_info+0x82c>
     81c:	00000175 	0x175
     820:	000002a0 	0x2a0
     824:	000002b8 	0x2b8
     828:	0874b701 	j	1d2dc04 <tty_printf+0x1d2d498>
     82c:	ed120000 	swc3	$18,0(t0)
     830:	a0000000 	sb	zero,0(zero)
     834:	b8000002 	swr	zero,2(zero)
     838:	01000002 	0x1000002
     83c:	02a01442 	0x2a01442
     840:	02b80000 	0x2b80000
     844:	36100000 	ori	s0,s0,0x0
     848:	f3000001 	0xf3000001
     84c:	10000004 	b	860 <.debug_info+0x860>
     850:	00000141 	0x141
     854:	00000506 	0x506
     858:	00014c10 	0x14c10
     85c:	00051900 	sll	v1,a1,0x4
     860:	01571000 	0x1571000
     864:	052c0000 	teqi	t1,0
     868:	62110000 	0x62110000
     86c:	01000001 	movf	zero,t0,$fcc0
     870:	00000057 	0x57
     874:	0000ed12 	0xed12
     878:	0002b800 	sll	s7,v0,0x0
     87c:	0002cc00 	sll	t9,v0,0x10
     880:	13b80100 	beq	sp,t8,c84 <.debug_info+0xc84>
     884:	000001e1 	0x1e1
     888:	0001d813 	0x1d813
     88c:	01cf1300 	0x1cf1300
     890:	c6130000 	lwc1	$f19,0(s0)
     894:	13000001 	beqz	t8,89c <.debug_info+0x89c>
     898:	000001bd 	0x1bd
     89c:	0002b814 	0x2b814
     8a0:	0002cc00 	sll	t9,v0,0x10
     8a4:	01361000 	0x1361000
     8a8:	053f0000 	0x53f0000
     8ac:	41110000 	0x41110000
     8b0:	01000001 	movf	zero,t0,$fcc0
     8b4:	014c1154 	0x14c1154
     8b8:	55010000 	bnel	t0,at,8bc <.debug_info+0x8bc>
     8bc:	00015711 	0x15711
     8c0:	11560100 	beq	t2,s6,cc4 <.debug_info+0xcc4>
     8c4:	00000162 	0x162
     8c8:	00005701 	0x5701
     8cc:	78011800 	0x78011800
     8d0:	01000003 	0x1000003
     8d4:	016e01c9 	0x16e01c9
     8d8:	02dc0000 	0x2dc0000
     8dc:	03bc0000 	0x3bc0000
     8e0:	00ec0000 	0xec0000
     8e4:	05520000 	bltzall	t2,8e8 <.debug_info+0x8e8>
     8e8:	09dc0000 	j	7700000 <tty_printf+0x76ff894>
     8ec:	00190000 	sll	zero,t9,0x0
     8f0:	01000000 	0x1000000
     8f4:	0009dcc8 	0x9dcc8
     8f8:	00057100 	sll	t6,a1,0x4
     8fc:	016d1600 	0x16d1600
     900:	ca010000 	lwc2	$1,0(s0)
     904:	0000016e 	0x16e
     908:	000005a5 	0x5a5
     90c:	6675621e 	0x6675621e
     910:	e2cb0100 	sc	t3,256(s6)
     914:	02000009 	jalr	zero,s0
     918:	76266091 	jalx	8998244 <tty_printf+0x8997ad8>
     91c:	01006c61 	0x1006c61
     920:	00016ecc 	syscall	0x5bb
     924:	0005b800 	sll	s7,a1,0x0
     928:	00691f00 	0x691f00
     92c:	016ecd01 	0x16ecd01
     930:	72260000 	madd	s1,a2
     934:	01007465 	0x1007465
     938:	00016ece 	0x16ece
     93c:	0005d600 	sll	k0,a1,0x18
     940:	01751700 	0x1751700
     944:	02ec0000 	0x2ec0000
     948:	03040000 	0x3040000
     94c:	ca010000 	lwc2	$1,0(s0)
     950:	0000099c 	0x99c
     954:	0000ed12 	0xed12
     958:	0002ec00 	sll	sp,v0,0x10
     95c:	00030400 	sll	zero,v1,0x10
     960:	14420100 	bne	v0,v0,d64 <.debug_info+0xd64>
     964:	000002ec 	0x2ec
     968:	00000304 	0x304
     96c:	00013610 	0x13610
     970:	00060a00 	sll	at,a2,0x8
     974:	01411000 	0x1411000
     978:	061d0000 	0x61d0000
     97c:	4c100000 	mfc3	s0,$0
     980:	30000001 	andi	zero,zero,0x1
     984:	10000006 	b	9a0 <.debug_info+0x9a0>
     988:	00000157 	0x157
     98c:	00000643 	sra	zero,zero,0x19
     990:	00016210 	0x16210
     994:	00065600 	sll	t2,a2,0x18
     998:	00000000 	nop
     99c:	0000ed21 	0xed21
     9a0:	00004800 	sll	t1,zero,0x0
     9a4:	22d20100 	addi	s2,s6,256
     9a8:	00000060 	0x60
     9ac:	00013610 	0x13610
     9b0:	00067400 	sll	t6,a2,0x10
     9b4:	01411000 	0x1411000
     9b8:	06a80000 	tgei	s5,0
     9bc:	4c100000 	mfc3	s0,$0
     9c0:	c6000001 	lwc1	$f0,1(s0)
     9c4:	10000006 	b	9e0 <.debug_info+0x9e0>
     9c8:	00000157 	0x157
     9cc:	000006e4 	0x6e4
     9d0:	00016210 	0x16210
     9d4:	00070200 	sll	zero,a3,0x8
     9d8:	00000000 	nop
     9dc:	016e041b 	0x16e041b
     9e0:	f2230000 	0xf2230000
     9e4:	f2000009 	0xf2000009
     9e8:	24000009 	li	zero,9
     9ec:	000006e3 	0x6e3
     9f0:	011c0013 	0x11c0013
     9f4:	0001f408 	0x1f408
     9f8:	da012700 	ldc2	$1,9984(s0)
     9fc:	01000002 	0x1000002
     a00:	6e01014c 	0x6e01014c
     a04:	bc000001 	cache	0x0,1(zero)
     a08:	e4000003 	swc1	$f0,3(zero)
     a0c:	04000003 	bltz	zero,a1c <.debug_info+0xa1c>
     a10:	20000001 	addi	zero,zero,1
     a14:	8b000007 	lwl	zero,7(t8)
     a18:	2800000a 	slti	zero,zero,10
     a1c:	00000284 	0x284
     a20:	6e014b01 	0x6e014b01
     a24:	01000001 	movf	zero,t0,$fcc0
     a28:	61762954 	0x61762954
     a2c:	4b01006c 	c2	0x101006c
     a30:	00016e01 	0x16e01
     a34:	00073f00 	sll	a3,a3,0x1c
     a38:	00ed2a00 	0xed2a00
     a3c:	00780000 	0x780000
     a40:	4d010000 	bc3t	a44 <.debug_info+0xa44>
     a44:	01e11301 	0x1e11301
     a48:	d8130000 	ldc2	$19,0(zero)
     a4c:	13000001 	beqz	t8,a54 <.debug_info+0xa54>
     a50:	000001cf 	0x1cf
     a54:	0001c613 	0x1c613
     a58:	01bd1300 	0x1bd1300
     a5c:	90220000 	lbu	v0,0(at)
     a60:	10000000 	b	a64 <.debug_info+0xa64>
     a64:	00000136 	tne	zero,zero,0x4
     a68:	00000752 	0x752
     a6c:	00014111 	0x14111
     a70:	11540100 	beq	t2,s4,e74 <.debug_info+0xe74>
     a74:	0000014c 	syscall	0x5
     a78:	57115501 	bnel	t8,s1,15e80 <tty_printf+0x15714>
     a7c:	01000001 	movf	zero,t0,$fcc0
     a80:	01621156 	0x1621156
     a84:	57010000 	bnel	t8,at,a88 <.debug_info+0xa88>
     a88:	27000000 	addiu	zero,t8,0
     a8c:	00038901 	0x38901
     a90:	01570100 	0x1570100
     a94:	00016e01 	0x16e01
     a98:	0003e400 	sll	gp,v1,0x10
     a9c:	00040c00 	sll	at,a0,0x10
     aa0:	00011c00 	sll	v1,at,0x10
     aa4:	00076500 	sll	t4,a3,0x14
     aa8:	000b1d00 	sll	v1,t3,0x14
     aac:	02842800 	0x2842800
     ab0:	56010000 	bnel	s0,at,ab4 <.debug_info+0xab4>
     ab4:	00016e01 	0x16e01
     ab8:	29540100 	slti	s4,t2,256
     abc:	006c6176 	tne	v1,t4,0x185
     ac0:	6e015601 	0x6e015601
     ac4:	84000001 	lh	zero,1(zero)
     ac8:	2a000007 	slti	zero,s0,7
     acc:	000000ed 	0xed
     ad0:	000000a8 	0xa8
     ad4:	13015801 	beq	t8,at,16adc <tty_printf+0x16370>
     ad8:	000001e1 	0x1e1
     adc:	0001d813 	0x1d813
     ae0:	01cf1300 	0x1cf1300
     ae4:	c6130000 	lwc1	$f19,0(s0)
     ae8:	13000001 	beqz	t8,af0 <.debug_info+0xaf0>
     aec:	000001bd 	0x1bd
     af0:	0000c022 	neg	t8,zero
     af4:	01361000 	0x1361000
     af8:	07970000 	0x7970000
     afc:	41110000 	0x41110000
     b00:	01000001 	movf	zero,t0,$fcc0
     b04:	014c1154 	0x14c1154
     b08:	55010000 	bnel	t0,at,b0c <.debug_info+0xb0c>
     b0c:	00015711 	0x15711
     b10:	11560100 	beq	t2,s6,f14 <.debug_info+0xf14>
     b14:	00000162 	0x162
     b18:	00005701 	0x5701
     b1c:	14012700 	bne	zero,at,a720 <tty_printf+0x9fb4>
     b20:	01000003 	0x1000003
     b24:	6e010162 	0x6e010162
     b28:	0c000001 	jal	4 <.debug_info+0x4>
     b2c:	34000004 	li	zero,0x4
     b30:	34000004 	li	zero,0x4
     b34:	aa000001 	swl	zero,1(s0)
     b38:	a7000007 	sh	zero,7(t8)
     b3c:	2800000b 	slti	zero,zero,11
     b40:	00000284 	0x284
     b44:	6e016101 	0x6e016101
     b48:	01000001 	movf	zero,t0,$fcc0
     b4c:	00ed2b54 	0xed2b54
     b50:	04140000 	0x4140000
     b54:	04280000 	tgei	at,0
     b58:	63010000 	0x63010000
     b5c:	01e11301 	0x1e11301
     b60:	d8130000 	ldc2	$19,0(zero)
     b64:	13000001 	beqz	t8,b6c <.debug_info+0xb6c>
     b68:	000001cf 	0x1cf
     b6c:	0001c613 	0x1c613
     b70:	01bd1300 	0x1bd1300
     b74:	14140000 	bne	zero,s4,b78 <.debug_info+0xb78>
     b78:	28000004 	slti	zero,zero,4
     b7c:	10000004 	b	b90 <.debug_info+0xb90>
     b80:	00000136 	tne	zero,zero,0x4
     b84:	000007c9 	0x7c9
     b88:	00014111 	0x14111
     b8c:	11540100 	beq	t2,s4,f90 <.debug_info+0xf90>
     b90:	0000014c 	syscall	0x5
     b94:	57115501 	bnel	t8,s1,15f9c <tty_printf+0x15830>
     b98:	01000001 	movf	zero,t0,$fcc0
     b9c:	01621156 	0x1621156
     ba0:	57010000 	bnel	t8,at,ba4 <.debug_info+0xba4>
     ba4:	27000000 	addiu	zero,t8,0
     ba8:	00024001 	0x24001
     bac:	016c0100 	0x16c0100
     bb0:	00016e01 	0x16e01
     bb4:	00043400 	sll	a2,a0,0x10
     bb8:	00045c00 	sll	t3,a0,0x10
     bbc:	00014c00 	sll	t1,at,0x10
     bc0:	0007dc00 	sll	k1,a3,0x10
     bc4:	000c3900 	sll	a3,t4,0x4
     bc8:	02842800 	0x2842800
     bcc:	6b010000 	0x6b010000
     bd0:	00016e01 	0x16e01
     bd4:	2c540100 	sltiu	s4,v0,256
     bd8:	0000025d 	0x25d
     bdc:	dc016b01 	ldc3	$1,27393(zero)
     be0:	fb000009 	sdc2	$0,9(t8)
     be4:	2a000007 	slti	zero,s0,7
     be8:	000000ed 	0xed
     bec:	000000d8 	0xd8
     bf0:	13016d01 	beq	t8,at,1bff8 <tty_printf+0x1b88c>
     bf4:	000001e1 	0x1e1
     bf8:	0001d813 	0x1d813
     bfc:	01cf1300 	0x1cf1300
     c00:	c6130000 	lwc1	$f19,0(s0)
     c04:	13000001 	beqz	t8,c0c <.debug_info+0xc0c>
     c08:	000001bd 	0x1bd
     c0c:	0000f022 	neg	s8,zero
     c10:	01361000 	0x1361000
     c14:	080e0000 	j	380000 <tty_printf+0x37f894>
     c18:	41110000 	0x41110000
     c1c:	01000001 	movf	zero,t0,$fcc0
     c20:	014c1154 	0x14c1154
     c24:	55010000 	bnel	t0,at,c28 <.debug_info+0xc28>
     c28:	00015711 	0x15711
     c2c:	11560100 	beq	t2,s6,1030 <.debug_info+0x1030>
     c30:	00000162 	0x162
     c34:	00005701 	0x5701
     c38:	8b012700 	lwl	at,9984(t8)
     c3c:	01000000 	0x1000000
     c40:	6e01017d 	0x6e01017d
     c44:	5c000001 	bgtzl	zero,c4c <.debug_info+0xc4c>
     c48:	88000004 	lwl	zero,4(zero)
     c4c:	64000004 	0x64000004
     c50:	21000001 	addi	zero,t0,1
     c54:	bd000008 	cache	0x0,8(t0)
     c58:	2900000c 	slti	zero,t0,12
     c5c:	006c6176 	tne	v1,t4,0x185
     c60:	6e017c01 	0x6e017c01
     c64:	40000001 	mfc0	zero,$0,1
     c68:	2a000008 	slti	zero,s0,8
     c6c:	000000ed 	0xed
     c70:	00000108 	0x108
     c74:	13017e01 	beq	t8,at,2047c <tty_printf+0x1fd10>
     c78:	000001e1 	0x1e1
     c7c:	0001d813 	0x1d813
     c80:	01cf1300 	0x1cf1300
     c84:	c6130000 	lwc1	$f19,0(s0)
     c88:	13000001 	beqz	t8,c90 <.debug_info+0xc90>
     c8c:	000001bd 	0x1bd
     c90:	00012022 	neg	a0,at
     c94:	01361000 	0x1361000
     c98:	08530000 	j	14c0000 <tty_printf+0x14bf894>
     c9c:	41110000 	0x41110000
     ca0:	01000001 	movf	zero,t0,$fcc0
     ca4:	014c1154 	0x14c1154
     ca8:	55010000 	bnel	t0,at,cac <.debug_info+0xcac>
     cac:	00015711 	0x15711
     cb0:	11560100 	beq	t2,s6,10b4 <.debug_info+0x10b4>
     cb4:	00000162 	0x162
     cb8:	00005701 	0x5701
     cbc:	97012700 	lhu	at,9984(t8)
     cc0:	01000000 	0x1000000
     cc4:	6e010188 	0x6e010188
     cc8:	88000001 	lwl	zero,1(zero)
     ccc:	b4000004 	0xb4000004
     cd0:	7c000004 	0x7c000004
     cd4:	66000001 	0x66000001
     cd8:	41000008 	bc0f	cfc <.debug_info+0xcfc>
     cdc:	2900000d 	slti	zero,t0,13
     ce0:	006c6176 	tne	v1,t4,0x185
     ce4:	6e018701 	0x6e018701
     ce8:	85000001 	lh	zero,1(t0)
     cec:	2a000008 	slti	zero,s0,8
     cf0:	000000ed 	0xed
     cf4:	00000138 	0x138
     cf8:	13018901 	beq	t8,at,fffe3100 <tty_printf+0xfffe2994>
     cfc:	000001e1 	0x1e1
     d00:	0001d813 	0x1d813
     d04:	01cf1300 	0x1cf1300
     d08:	c6130000 	lwc1	$f19,0(s0)
     d0c:	13000001 	beqz	t8,d14 <.debug_info+0xd14>
     d10:	000001bd 	0x1bd
     d14:	00015022 	neg	t2,at
     d18:	01361000 	0x1361000
     d1c:	08980000 	j	2600000 <tty_printf+0x25ff894>
     d20:	41110000 	0x41110000
     d24:	01000001 	movf	zero,t0,$fcc0
     d28:	014c1154 	0x14c1154
     d2c:	55010000 	bnel	t0,at,d30 <.debug_info+0xd30>
     d30:	00015711 	0x15711
     d34:	11560100 	beq	t2,s6,1138 <.debug_info+0x1138>
     d38:	00000162 	0x162
     d3c:	00005701 	0x5701
     d40:	d8012700 	ldc2	$1,9984(zero)
     d44:	01000003 	0x1000003
     d48:	6e010193 	0x6e010193
     d4c:	b4000001 	0xb4000001
     d50:	e0000004 	sc	zero,4(zero)
     d54:	94000004 	lhu	zero,4(zero)
     d58:	ab000001 	swl	zero,1(t8)
     d5c:	cd000008 	pref	0x0,8(t0)
     d60:	2900000d 	slti	zero,t0,13
     d64:	006c6176 	tne	v1,t4,0x185
     d68:	6e019201 	0x6e019201
     d6c:	ca000001 	lwc2	$0,1(s0)
     d70:	2b000008 	slti	zero,t8,8
     d74:	000000ed 	0xed
     d78:	000004bc 	0x4bc
     d7c:	000004d4 	0x4d4
     d80:	13019401 	beq	t8,at,fffe5d88 <tty_printf+0xfffe561c>
     d84:	000001e1 	0x1e1
     d88:	0001d813 	0x1d813
     d8c:	01cf1300 	0x1cf1300
     d90:	c6130000 	lwc1	$f19,0(s0)
     d94:	13000001 	beqz	t8,d9c <.debug_info+0xd9c>
     d98:	000001bd 	0x1bd
     d9c:	0004bc14 	0x4bc14
     da0:	0004d400 	sll	k0,a0,0x10
     da4:	01361000 	0x1361000
     da8:	08dd0000 	j	3740000 <tty_printf+0x373f894>
     dac:	41110000 	0x41110000
     db0:	01000001 	movf	zero,t0,$fcc0
     db4:	014c1154 	0x14c1154
     db8:	55010000 	bnel	t0,at,dbc <.debug_info+0xdbc>
     dbc:	00015711 	0x15711
     dc0:	11560100 	beq	t2,s6,11c4 <.debug_info+0x11c4>
     dc4:	00000162 	0x162
     dc8:	00005701 	0x5701
     dcc:	1f012700 	0x1f012700
     dd0:	01000000 	0x1000000
     dd4:	6e01019e 	0x6e01019e
     dd8:	e0000001 	sc	zero,1(zero)
     ddc:	0c000004 	jal	10 <.debug_info+0x10>
     de0:	ac000005 	sw	zero,5(zero)
     de4:	f0000001 	0xf0000001
     de8:	51000008 	beqzl	t0,e0c <.debug_info+0xe0c>
     dec:	2900000e 	slti	zero,t0,14
     df0:	006c6176 	tne	v1,t4,0x185
     df4:	dc019d01 	ldc3	$1,-25343(zero)
     df8:	0f000009 	jal	c000024 <tty_printf+0xbfff8b8>
     dfc:	2a000009 	slti	zero,s0,9
     e00:	000000ed 	0xed
     e04:	00000168 	0x168
     e08:	13019f01 	beq	t8,at,fffe8a10 <tty_printf+0xfffe82a4>
     e0c:	000001e1 	0x1e1
     e10:	0001d813 	0x1d813
     e14:	01cf1300 	0x1cf1300
     e18:	c6130000 	lwc1	$f19,0(s0)
     e1c:	13000001 	beqz	t8,e24 <.debug_info+0xe24>
     e20:	000001bd 	0x1bd
     e24:	00018022 	neg	s0,at
     e28:	01361000 	0x1361000
     e2c:	09220000 	j	4880000 <tty_printf+0x487f894>
     e30:	41110000 	0x41110000
     e34:	01000001 	movf	zero,t0,$fcc0
     e38:	014c1154 	0x14c1154
     e3c:	55010000 	bnel	t0,at,e40 <.debug_info+0xe40>
     e40:	00015711 	0x15711
     e44:	11560100 	beq	t2,s6,1248 <.debug_info+0x1248>
     e48:	00000162 	0x162
     e4c:	00005701 	0x5701
     e50:	51012700 	beql	t0,at,aa54 <tty_printf+0xa2e8>
     e54:	01000003 	0x1000003
     e58:	6e0101a9 	0x6e0101a9
     e5c:	0c000001 	jal	4 <.debug_info+0x4>
     e60:	38000005 	xori	zero,zero,0x5
     e64:	c4000005 	lwc1	$f0,5(zero)
     e68:	35000001 	ori	zero,t0,0x1
     e6c:	d5000009 	ldc1	$f0,9(t0)
     e70:	2900000e 	slti	zero,t0,14
     e74:	006c6176 	tne	v1,t4,0x185
     e78:	dc01a801 	ldc3	$1,-22527(zero)
     e7c:	54000009 	bnezl	zero,ea4 <.debug_info+0xea4>
     e80:	2a000009 	slti	zero,s0,9
     e84:	000000ed 	0xed
     e88:	00000198 	0x198
     e8c:	1301aa01 	beq	t8,at,fffeb694 <tty_printf+0xfffeaf28>
     e90:	000001e1 	0x1e1
     e94:	0001d813 	0x1d813
     e98:	01cf1300 	0x1cf1300
     e9c:	c6130000 	lwc1	$f19,0(s0)
     ea0:	13000001 	beqz	t8,ea8 <.debug_info+0xea8>
     ea4:	000001bd 	0x1bd
     ea8:	0001b022 	neg	s6,at
     eac:	01361000 	0x1361000
     eb0:	09670000 	j	59c0000 <tty_printf+0x59bf894>
     eb4:	41110000 	0x41110000
     eb8:	01000001 	movf	zero,t0,$fcc0
     ebc:	014c1154 	0x14c1154
     ec0:	55010000 	bnel	t0,at,ec4 <.debug_info+0xec4>
     ec4:	00015711 	0x15711
     ec8:	11560100 	beq	t2,s6,12cc <.debug_info+0x12cc>
     ecc:	00000162 	0x162
     ed0:	00005701 	0x5701
     ed4:	c4012700 	lwc1	$f1,9984(zero)
     ed8:	01000000 	0x1000000
     edc:	6e0101b9 	0x6e0101b9
     ee0:	38000001 	xori	zero,zero,0x1
     ee4:	64000005 	0x64000005
     ee8:	dc000005 	ldc3	$0,5(zero)
     eec:	7a000001 	0x7a000001
     ef0:	59000009 	blezl	t0,f18 <.debug_info+0xf18>
     ef4:	2900000f 	slti	zero,t0,15
     ef8:	006c6176 	tne	v1,t4,0x185
     efc:	6e01b801 	0x6e01b801
     f00:	99000001 	lwr	zero,1(t0)
     f04:	2a000009 	slti	zero,s0,9
     f08:	000000ed 	0xed
     f0c:	000001c8 	0x1c8
     f10:	1301ba01 	beq	t8,at,fffef718 <tty_printf+0xfffeefac>
     f14:	000001e1 	0x1e1
     f18:	0001d813 	0x1d813
     f1c:	01cf1300 	0x1cf1300
     f20:	c6130000 	lwc1	$f19,0(s0)
     f24:	13000001 	beqz	t8,f2c <.debug_info+0xf2c>
     f28:	000001bd 	0x1bd
     f2c:	0001e022 	neg	gp,at
     f30:	01361000 	0x1361000
     f34:	09ac0000 	j	6b00000 <tty_printf+0x6aff894>
     f38:	41110000 	0x41110000
     f3c:	01000001 	movf	zero,t0,$fcc0
     f40:	014c1154 	0x14c1154
     f44:	55010000 	bnel	t0,at,f48 <.debug_info+0xf48>
     f48:	00015711 	0x15711
     f4c:	11560100 	beq	t2,s6,1350 <.debug_info+0x1350>
     f50:	00000162 	0x162
     f54:	00005701 	0x5701
     f58:	b8012700 	swr	at,9984(zero)
     f5c:	01000002 	0x1000002
     f60:	6e0101c5 	0x6e0101c5
     f64:	64000001 	0x64000001
     f68:	90000005 	lbu	zero,5(zero)
     f6c:	f4000005 	sdc1	$f0,5(zero)
     f70:	bf000001 	cache	0x0,1(t8)
     f74:	dd000009 	ldc3	$0,9(t0)
     f78:	2900000f 	slti	zero,t0,15
     f7c:	006c6176 	tne	v1,t4,0x185
     f80:	6e01c401 	0x6e01c401
     f84:	de000001 	ldc3	$0,1(s0)
     f88:	2a000009 	slti	zero,s0,9
     f8c:	000000ed 	0xed
     f90:	000001f8 	0x1f8
     f94:	1301c601 	beq	t8,at,ffff279c <tty_printf+0xffff2030>
     f98:	000001e1 	0x1e1
     f9c:	0001d813 	0x1d813
     fa0:	01cf1300 	0x1cf1300
     fa4:	c6130000 	lwc1	$f19,0(s0)
     fa8:	13000001 	beqz	t8,fb0 <.debug_info+0xfb0>
     fac:	000001bd 	0x1bd
     fb0:	00021022 	neg	v0,v0
     fb4:	01361000 	0x1361000
     fb8:	09f10000 	j	7c40000 <tty_printf+0x7c3f894>
     fbc:	41110000 	0x41110000
     fc0:	01000001 	movf	zero,t0,$fcc0
     fc4:	014c1154 	0x14c1154
     fc8:	55010000 	bnel	t0,at,fcc <.debug_info+0xfcc>
     fcc:	00015711 	0x15711
     fd0:	11560100 	beq	t2,s6,13d4 <.debug_info+0x13d4>
     fd4:	00000162 	0x162
     fd8:	00005701 	0x5701
     fdc:	37012700 	ori	at,t8,0x2700
     fe0:	01000000 	0x1000000
     fe4:	6e0101d0 	0x6e0101d0
     fe8:	90000001 	lbu	zero,1(zero)
     fec:	bc000005 	cache	0x0,5(zero)
     ff0:	0c000005 	jal	14 <.debug_info+0x14>
     ff4:	04000002 	bltz	zero,1000 <.debug_info+0x1000>
     ff8:	6100000a 	0x6100000a
     ffc:	2c000010 	sltiu	zero,zero,16
    1000:	000002b1 	tgeu	zero,zero,0xa
    1004:	dc01cf01 	ldc3	$1,-12543(zero)
    1008:	23000009 	addi	zero,t8,9
    100c:	2a00000a 	slti	zero,s0,10
    1010:	000000ed 	0xed
    1014:	00000228 	0x228
    1018:	1301d101 	beq	t8,at,ffff5420 <tty_printf+0xffff4cb4>
    101c:	000001e1 	0x1e1
    1020:	0001d813 	0x1d813
    1024:	01cf1300 	0x1cf1300
    1028:	c6130000 	lwc1	$f19,0(s0)
    102c:	13000001 	beqz	t8,1034 <.debug_info+0x1034>
    1030:	000001bd 	0x1bd
    1034:	00024022 	neg	t0,v0
    1038:	01361000 	0x1361000
    103c:	0a360000 	j	8d80000 <tty_printf+0x8d7f894>
    1040:	41110000 	0x41110000
    1044:	01000001 	movf	zero,t0,$fcc0
    1048:	014c1154 	0x14c1154
    104c:	55010000 	bnel	t0,at,1050 <.debug_info+0x1050>
    1050:	00015711 	0x15711
    1054:	11560100 	beq	t2,s6,1458 <.debug_info+0x1458>
    1058:	00000162 	0x162
    105c:	00005701 	0x5701
    1060:	7e012700 	0x7e012700
    1064:	01000000 	0x1000000
    1068:	6e0101db 	0x6e0101db
    106c:	bc000001 	cache	0x0,1(zero)
    1070:	e8000005 	swc2	$0,5(zero)
    1074:	24000005 	li	zero,5
    1078:	49000002 	bc2f	1084 <.debug_info+0x1084>
    107c:	e500000a 	swc1	$f0,10(t0)
    1080:	2c000010 	sltiu	zero,zero,16
    1084:	000002b1 	tgeu	zero,zero,0xa
    1088:	dc01da01 	ldc3	$1,-9727(zero)
    108c:	68000009 	0x68000009
    1090:	2a00000a 	slti	zero,s0,10
    1094:	000000ed 	0xed
    1098:	00000258 	0x258
    109c:	1301dc01 	beq	t8,at,ffff80a4 <tty_printf+0xffff7938>
    10a0:	000001e1 	0x1e1
    10a4:	0001d813 	0x1d813
    10a8:	01cf1300 	0x1cf1300
    10ac:	c6130000 	lwc1	$f19,0(s0)
    10b0:	13000001 	beqz	t8,10b8 <.debug_info+0x10b8>
    10b4:	000001bd 	0x1bd
    10b8:	00027022 	neg	t6,v0
    10bc:	01361000 	0x1361000
    10c0:	0a7b0000 	j	9ec0000 <tty_printf+0x9ebf894>
    10c4:	41110000 	0x41110000
    10c8:	01000001 	movf	zero,t0,$fcc0
    10cc:	014c1154 	0x14c1154
    10d0:	55010000 	bnel	t0,at,10d4 <.debug_info+0x10d4>
    10d4:	00015711 	0x15711
    10d8:	11560100 	beq	t2,s6,14dc <.debug_info+0x14dc>
    10dc:	00000162 	0x162
    10e0:	00005701 	0x5701
    10e4:	0d012700 	jal	4049c00 <tty_printf+0x4049494>
    10e8:	01000001 	movf	zero,t0,$fcc0
    10ec:	6e0101e7 	0x6e0101e7
    10f0:	e8000001 	swc2	$0,1(zero)
    10f4:	14000005 	bnez	zero,110c <.debug_info+0x110c>
    10f8:	3c000006 	lui	zero,0x6
    10fc:	8e000002 	lw	zero,2(s0)
    1100:	6900000a 	0x6900000a
    1104:	2c000011 	sltiu	zero,zero,17
    1108:	000002b1 	tgeu	zero,zero,0xa
    110c:	dc01e601 	ldc3	$1,-6655(zero)
    1110:	ad000009 	sw	zero,9(t0)
    1114:	2a00000a 	slti	zero,s0,10
    1118:	000000ed 	0xed
    111c:	00000288 	0x288
    1120:	1301e801 	beq	t8,at,ffffb128 <tty_printf+0xffffa9bc>
    1124:	000001e1 	0x1e1
    1128:	0001d813 	0x1d813
    112c:	01cf1300 	0x1cf1300
    1130:	c6130000 	lwc1	$f19,0(s0)
    1134:	13000001 	beqz	t8,113c <.debug_info+0x113c>
    1138:	000001bd 	0x1bd
    113c:	0002a022 	neg	s4,v0
    1140:	01361000 	0x1361000
    1144:	0ac00000 	j	b000000 <tty_printf+0xafff894>
    1148:	41110000 	0x41110000
    114c:	01000001 	movf	zero,t0,$fcc0
    1150:	014c1154 	0x14c1154
    1154:	55010000 	bnel	t0,at,1158 <.debug_info+0x1158>
    1158:	00015711 	0x15711
    115c:	11560100 	beq	t2,s6,1560 <.debug_info+0x1560>
    1160:	00000162 	0x162
    1164:	00005701 	0x5701
    1168:	81012700 	lb	at,9984(t0)
    116c:	01000001 	movf	zero,t0,$fcc0
    1170:	6e0101f7 	0x6e0101f7
    1174:	14000001 	bnez	zero,117c <.debug_info+0x117c>
    1178:	40000006 	mfc0	zero,$0,6
    117c:	54000006 	bnezl	zero,1198 <.debug_info+0x1198>
    1180:	d3000002 	0xd3000002
    1184:	eb00000a 	swc2	$0,10(t8)
    1188:	29000011 	slti	zero,t0,17
    118c:	f6010070 	sdc1	$f1,112(s0)
    1190:	0011eb01 	0x11eb01
    1194:	000af200 	sll	s8,t2,0x8
    1198:	00ed2a00 	0xed2a00
    119c:	02b80000 	0x2b80000
    11a0:	f8010000 	sdc2	$1,0(zero)
    11a4:	01e11301 	0x1e11301
    11a8:	d8130000 	ldc2	$19,0(zero)
    11ac:	13000001 	beqz	t8,11b4 <.debug_info+0x11b4>
    11b0:	000001cf 	0x1cf
    11b4:	0001c613 	0x1c613
    11b8:	01bd1300 	0x1bd1300
    11bc:	d0220000 	0xd0220000
    11c0:	10000002 	b	11cc <.debug_info+0x11cc>
    11c4:	00000136 	tne	zero,zero,0x4
    11c8:	00000b05 	0xb05
    11cc:	00014111 	0x14111
    11d0:	11540100 	beq	t2,s4,15d4 <.debug_info+0x15d4>
    11d4:	0000014c 	syscall	0x5
    11d8:	57115501 	bnel	t8,s1,165e0 <tty_printf+0x15e74>
    11dc:	01000001 	movf	zero,t0,$fcc0
    11e0:	01621156 	0x1621156
    11e4:	57010000 	bnel	t8,at,11e8 <.debug_info+0x11e8>
    11e8:	2d000000 	sltiu	zero,t0,0
    11ec:	1b012704 	0x1b012704
    11f0:	01000001 	movf	zero,t0,$fcc0
    11f4:	6e010202 	0x6e010202
    11f8:	40000001 	mfc0	zero,$0,1
    11fc:	6c000006 	0x6c000006
    1200:	6c000006 	0x6c000006
    1204:	18000002 	blez	zero,1210 <.debug_info+0x1210>
    1208:	6f00000b 	0x6f00000b
    120c:	29000012 	slti	zero,t0,18
    1210:	01010070 	tge	t0,at,0x1
    1214:	0011eb02 	srl	sp,s1,0xc
    1218:	000b3700 	sll	a2,t3,0x1c
    121c:	00ed2a00 	0xed2a00
    1220:	02e80000 	0x2e80000
    1224:	03010000 	0x3010000
    1228:	01e11302 	0x1e11302
    122c:	d8130000 	ldc2	$19,0(zero)
    1230:	13000001 	beqz	t8,1238 <.debug_info+0x1238>
    1234:	000001cf 	0x1cf
    1238:	0001c613 	0x1c613
    123c:	01bd1300 	0x1bd1300
    1240:	00220000 	0x220000
    1244:	10000003 	b	1254 <.debug_info+0x1254>
    1248:	00000136 	tne	zero,zero,0x4
    124c:	00000b4a 	0xb4a
    1250:	00014111 	0x14111
    1254:	11540100 	beq	t2,s4,1658 <.debug_info+0x1658>
    1258:	0000014c 	syscall	0x5
    125c:	57115501 	bnel	t8,s1,16664 <tty_printf+0x15ef8>
    1260:	01000001 	movf	zero,t0,$fcc0
    1264:	01621156 	0x1621156
    1268:	57010000 	bnel	t8,at,126c <.debug_info+0x126c>
    126c:	27000000 	addiu	zero,t8,0
    1270:	00006f01 	0x6f01
    1274:	020d0100 	0x20d0100
    1278:	00016e01 	0x16e01
    127c:	00066c00 	sll	t5,a2,0x10
    1280:	00069800 	sll	s3,a2,0x0
    1284:	00028400 	sll	s0,v0,0x10
    1288:	000b5d00 	sll	t3,t3,0x14
    128c:	0012f300 	sll	s8,s2,0xc
    1290:	61762900 	0x61762900
    1294:	0c01006c 	jal	401b0 <tty_printf+0x3fa44>
    1298:	00016e02 	srl	t5,at,0x18
    129c:	000b7c00 	sll	t7,t3,0x10
    12a0:	00ed2a00 	0xed2a00
    12a4:	03180000 	0x3180000
    12a8:	0e010000 	jal	8040000 <tty_printf+0x803f894>
    12ac:	01e11302 	0x1e11302
    12b0:	d8130000 	ldc2	$19,0(zero)
    12b4:	13000001 	beqz	t8,12bc <.debug_info+0x12bc>
    12b8:	000001cf 	0x1cf
    12bc:	0001c613 	0x1c613
    12c0:	01bd1300 	0x1bd1300
    12c4:	30220000 	andi	v0,at,0x0
    12c8:	10000003 	b	12d8 <.debug_info+0x12d8>
    12cc:	00000136 	tne	zero,zero,0x4
    12d0:	00000b8f 	0xb8f
    12d4:	00014111 	0x14111
    12d8:	11540100 	beq	t2,s4,16dc <.debug_info+0x16dc>
    12dc:	0000014c 	syscall	0x5
    12e0:	57115501 	bnel	t8,s1,166e8 <tty_printf+0x15f7c>
    12e4:	01000001 	movf	zero,t0,$fcc0
    12e8:	01621156 	0x1621156
    12ec:	57010000 	bnel	t8,at,12f0 <.debug_info+0x12f0>
    12f0:	2e000000 	sltiu	zero,s0,0
    12f4:	00017701 	0x17701
    12f8:	02180100 	0x2180100
    12fc:	0000016e 	0x16e
    1300:	00000698 	0x698
    1304:	000006c4 	0x6c4
    1308:	0000029c 	0x29c
    130c:	00000ba2 	0xba2
    1310:	0000136e 	0x136e
    1314:	0000ed2b 	0xed2b
    1318:	0006a000 	sll	s4,a2,0x0
    131c:	0006b800 	sll	s7,a2,0x0
    1320:	02190100 	0x2190100
    1324:	0001e113 	0x1e113
    1328:	01d81300 	0x1d81300
    132c:	cf130000 	pref	0x13,0(t8)
    1330:	13000001 	beqz	t8,1338 <.debug_info+0x1338>
    1334:	000001c6 	0x1c6
    1338:	0001bd13 	0x1bd13
    133c:	06a01400 	bltz	s5,6340 <tty_printf+0x5bd4>
    1340:	06b80000 	0x6b80000
    1344:	36100000 	ori	s0,s0,0x0
    1348:	c1000001 	ll	zero,1(t0)
    134c:	1100000b 	beqz	t0,137c <.debug_info+0x137c>
    1350:	00000141 	0x141
    1354:	4c115401 	0x4c115401
    1358:	01000001 	movf	zero,t0,$fcc0
    135c:	01571155 	0x1571155
    1360:	56010000 	bnel	s0,at,1364 <.debug_info+0x1364>
    1364:	00016211 	0x16211
    1368:	00570100 	0x570100
    136c:	01270000 	0x1270000
    1370:	000001eb 	0x1eb
    1374:	01022b01 	0x1022b01
    1378:	0000016e 	0x16e
    137c:	000006c4 	0x6c4
    1380:	000006ec 	0x6ec
    1384:	000002b4 	teq	zero,zero,0xa
    1388:	00000bd4 	0xbd4
    138c:	000013f8 	0x13f8
    1390:	0002c728 	0x2c728
    1394:	022a0100 	0x22a0100
    1398:	0000016e 	0x16e
    139c:	ed2b5401 	swc3	$11,21505(t1)
    13a0:	cc000000 	pref	0x0,0(zero)
    13a4:	e0000006 	sc	zero,6(zero)
    13a8:	01000006 	srlv	zero,zero,t0
    13ac:	e113022c 	sc	s3,556(t0)
    13b0:	13000001 	beqz	t8,13b8 <.debug_info+0x13b8>
    13b4:	000001d8 	0x1d8
    13b8:	0001cf13 	0x1cf13
    13bc:	01c61300 	0x1c61300
    13c0:	bd130000 	cache	0x13,0(t0)
    13c4:	14000001 	bnez	zero,13cc <.debug_info+0x13cc>
    13c8:	000006cc 	syscall	0x1b
    13cc:	000006e0 	0x6e0
    13d0:	00013610 	0x13610
    13d4:	000bf300 	sll	s8,t3,0xc
    13d8:	01411100 	0x1411100
    13dc:	54010000 	bnel	zero,at,13e0 <.debug_info+0x13e0>
    13e0:	00014c11 	0x14c11
    13e4:	11550100 	beq	t2,s5,17e8 <.debug_info+0x17e8>
    13e8:	00000157 	0x157
    13ec:	62115601 	0x62115601
    13f0:	01000001 	movf	zero,t0,$fcc0
    13f4:	00000057 	0x57
    13f8:	02620127 	0x2620127
    13fc:	37010000 	ori	at,t8,0x0
    1400:	016e0102 	0x16e0102
    1404:	06ec0000 	teqi	s7,0
    1408:	07140000 	0x7140000
    140c:	02cc0000 	0x2cc0000
    1410:	0c060000 	jal	180000 <tty_printf+0x17f894>
    1414:	14820000 	bne	a0,v0,1418 <.debug_info+0x1418>
    1418:	c7280000 	lwc1	$f8,0(t9)
    141c:	01000002 	0x1000002
    1420:	016e0236 	tne	t3,t6,0x8
    1424:	54010000 	bnel	zero,at,1428 <.debug_info+0x1428>
    1428:	0000ed2b 	0xed2b
    142c:	0006f400 	sll	s8,a2,0x10
    1430:	00070800 	sll	at,a3,0x0
    1434:	02380100 	0x2380100
    1438:	0001e113 	0x1e113
    143c:	01d81300 	0x1d81300
    1440:	cf130000 	pref	0x13,0(t8)
    1444:	13000001 	beqz	t8,144c <.debug_info+0x144c>
    1448:	000001c6 	0x1c6
    144c:	0001bd13 	0x1bd13
    1450:	06f41400 	0x6f41400
    1454:	07080000 	tgei	t8,0
    1458:	36100000 	ori	s0,s0,0x0
    145c:	25000001 	addiu	zero,t0,1
    1460:	1100000c 	beqz	t0,1494 <.debug_info+0x1494>
    1464:	00000141 	0x141
    1468:	4c115401 	0x4c115401
    146c:	01000001 	movf	zero,t0,$fcc0
    1470:	01571155 	0x1571155
    1474:	56010000 	bnel	s0,at,1478 <.debug_info+0x1478>
    1478:	00016211 	0x16211
    147c:	00570100 	0x570100
    1480:	012e0000 	0x12e0000
    1484:	00000338 	0x338
    1488:	6e024101 	0x6e024101
    148c:	14000001 	bnez	zero,1494 <.debug_info+0x1494>
    1490:	6c000007 	0x6c000007
    1494:	e4000007 	swc1	$f0,7(zero)
    1498:	38000002 	xori	zero,zero,0x2
    149c:	f000000c 	0xf000000c
    14a0:	2f000014 	sltiu	zero,t8,20
    14a4:	42010078 	c0	0x10078
    14a8:	00016e02 	srl	t5,at,0x18
    14ac:	2b530100 	slti	s3,k0,256
    14b0:	000000ed 	0xed
    14b4:	0000071c 	0x71c
    14b8:	00000738 	0x738
    14bc:	14024301 	bne	zero,v0,120c4 <tty_printf+0x11958>
    14c0:	0000071c 	0x71c
    14c4:	00000738 	0x738
    14c8:	00013610 	0x13610
    14cc:	000c5700 	sll	t2,t4,0x1c
    14d0:	01411100 	0x1411100
    14d4:	54010000 	bnel	zero,at,14d8 <.debug_info+0x14d8>
    14d8:	00014c11 	0x14c11
    14dc:	11550100 	beq	t2,s5,18e0 <tty_printf+0x1174>
    14e0:	00000157 	0x157
    14e4:	62115601 	0x62115601
    14e8:	01000001 	movf	zero,t0,$fcc0
    14ec:	00000057 	0x57
    14f0:	03240118 	0x3240118
    14f4:	eb010000 	swc2	$1,0(t8)
    14f8:	00016e01 	0x16e01
    14fc:	00076c00 	sll	t5,a3,0x10
    1500:	000ab000 	sll	s6,t2,0x0
    1504:	0002fc00 	sll	ra,v0,0x10
    1508:	000c6a00 	sll	t5,t4,0x8
    150c:	00186b00 	sll	t5,t8,0xc
    1510:	01481900 	0x1481900
    1514:	ea010000 	swc2	$1,0(s0)
    1518:	000004d7 	0x4d7
    151c:	00000c8a 	0xc8a
    1520:	70611e30 	0x70611e30
    1524:	36ec0100 	ori	t4,s7,0x100
    1528:	02000000 	0x2000000
    152c:	6f31008d 	0x6f31008d
    1530:	01000002 	0x1000002
    1534:	9a320139 	lwr	s2,313(s1)
    1538:	01000003 	0x1000003
    153c:	08900105 	j	2400414 <tty_printf+0x23ffca8>
    1540:	48330000 	0x48330000
    1544:	9f000003 	0x9f000003
    1548:	34000017 	li	zero,0x17
    154c:	006c6176 	tne	v1,t4,0x185
    1550:	6e010801 	0x6e010801
    1554:	63000001 	0x63000001
    1558:	2f00000d 	sltiu	zero,t8,13
    155c:	00667562 	0x667562
    1560:	6b010901 	0x6b010901
    1564:	02000018 	mult	s0,zero
    1568:	4f354491 	c3	0x1354491
    156c:	01000001 	movf	zero,t0,$fcc0
    1570:	04d7010a 	0x4d7010a
    1574:	0def0000 	jal	7bc0000 <tty_printf+0x7bbf894>
    1578:	6c340000 	0x6c340000
    157c:	01006e65 	0x1006e65
    1580:	187b010b 	0x187b010b
    1584:	0e390000 	jal	8e40000 <tty_printf+0x8e3f894>
    1588:	69340000 	0x69340000
    158c:	010d0100 	0x10d0100
    1590:	0000187b 	0x187b
    1594:	00000e57 	0xe57
    1598:	0000ed36 	tne	zero,zero,0x3b4
    159c:	00037000 	sll	t6,v1,0x0
    15a0:	01260100 	0x1260100
    15a4:	000015dc 	0x15dc
    15a8:	00039022 	neg	s2,v1
    15ac:	01361000 	0x1361000
    15b0:	0e8b0000 	jal	a2c0000 <tty_printf+0xa2bf894>
    15b4:	41100000 	0x41100000
    15b8:	a9000001 	swl	zero,1(t0)
    15bc:	1000000e 	b	15f8 <.debug_info+0x15f8>
    15c0:	0000014c 	syscall	0x5
    15c4:	00000ec7 	0xec7
    15c8:	00015710 	0x15710
    15cc:	000f1100 	sll	v0,t7,0x4
    15d0:	01621000 	0x1621000
    15d4:	0f2f0000 	jal	cbc0000 <tty_printf+0xcbbf894>
    15d8:	00000000 	nop
    15dc:	00017537 	0x17537
    15e0:	0008d800 	sll	k1,t0,0x0
    15e4:	0008ec00 	sll	sp,t0,0x10
    15e8:	01180100 	0x1180100
    15ec:	00001638 	0x1638
    15f0:	0000ed12 	0xed12
    15f4:	0008d800 	sll	k1,t0,0x0
    15f8:	0008ec00 	sll	sp,t0,0x10
    15fc:	14420100 	bne	v0,v0,1a00 <tty_printf+0x1294>
    1600:	000008d8 	0x8d8
    1604:	000008ec 	0x8ec
    1608:	00013610 	0x13610
    160c:	000f4200 	sll	t0,t7,0x8
    1610:	01411000 	0x1411000
    1614:	0f550000 	jal	d540000 <tty_printf+0xd53f894>
    1618:	4c100000 	mfc3	s0,$0
    161c:	68000001 	0x68000001
    1620:	1000000f 	b	1660 <.debug_info+0x1660>
    1624:	00000157 	0x157
    1628:	00000f7b 	0xf7b
    162c:	00016210 	0x16210
    1630:	000f8e00 	sll	s1,t7,0x18
    1634:	00000000 	nop
    1638:	0000ed37 	0xed37
    163c:	0008ec00 	sll	sp,t0,0x10
    1640:	00090c00 	sll	at,t1,0x10
    1644:	01180100 	0x1180100
    1648:	00001684 	0x1684
    164c:	0008ec14 	0x8ec14
    1650:	00090c00 	sll	at,t1,0x10
    1654:	01361000 	0x1361000
    1658:	0fa10000 	jal	e840000 <tty_printf+0xe83f894>
    165c:	41100000 	0x41100000
    1660:	b4000001 	0xb4000001
    1664:	1000000f 	b	16a4 <.debug_info+0x16a4>
    1668:	0000014c 	syscall	0x5
    166c:	00000fc7 	0xfc7
    1670:	00015710 	0x15710
    1674:	000fda00 	sll	k1,t7,0x8
    1678:	01621000 	0x1621000
    167c:	0fed0000 	jal	fb40000 <tty_printf+0xfb3f894>
    1680:	00000000 	nop
    1684:	00017537 	0x17537
    1688:	00096400 	sll	t4,t1,0x10
    168c:	00097c00 	sll	t7,t1,0x10
    1690:	013c0100 	0x13c0100
    1694:	000016e0 	0x16e0
    1698:	0000ed12 	0xed12
    169c:	00096400 	sll	t4,t1,0x10
    16a0:	00097c00 	sll	t7,t1,0x10
    16a4:	14420100 	bne	v0,v0,1aa8 <tty_printf+0x133c>
    16a8:	00000964 	0x964
    16ac:	0000097c 	0x97c
    16b0:	00013610 	0x13610
    16b4:	00100000 	sll	zero,s0,0x0
    16b8:	01411000 	0x1411000
    16bc:	10130000 	beq	zero,s3,16c0 <.debug_info+0x16c0>
    16c0:	4c100000 	mfc3	s0,$0
    16c4:	26000001 	addiu	zero,s0,1
    16c8:	10000010 	b	170c <.debug_info+0x170c>
    16cc:	00000157 	0x157
    16d0:	00001039 	0x1039
    16d4:	00016210 	0x16210
    16d8:	00104c00 	sll	t1,s0,0x10
    16dc:	00000000 	nop
    16e0:	0000ed37 	0xed37
    16e4:	00097c00 	sll	t7,t1,0x10
    16e8:	00099000 	sll	s2,t1,0x0
    16ec:	013c0100 	0x13c0100
    16f0:	0000172c 	0x172c
    16f4:	00097c14 	0x97c14
    16f8:	00099000 	sll	s2,t1,0x0
    16fc:	01361000 	0x1361000
    1700:	10960000 	beq	a0,s6,1704 <.debug_info+0x1704>
    1704:	41100000 	0x41100000
    1708:	bf000001 	cache	0x0,1(t8)
    170c:	10000010 	b	1750 <.debug_info+0x1750>
    1710:	0000014c 	syscall	0x5
    1714:	000010d2 	0x10d2
    1718:	00015710 	0x15710
    171c:	00112700 	sll	a0,s1,0x1c
    1720:	01621000 	0x1621000
    1724:	11870000 	beq	t4,a3,1728 <.debug_info+0x1728>
    1728:	00000000 	nop
    172c:	00099c38 	0x99c38
    1730:	0009c800 	sll	t9,t1,0x0
    1734:	00174600 	sll	t0,s7,0x18
    1738:	74733900 	jalx	1cce400 <tty_printf+0x1ccdc94>
    173c:	33010072 	andi	at,t8,0x72
    1740:	0004d701 	0x4d701
    1744:	752b0000 	jalx	4ac0000 <tty_printf+0x4abf894>
    1748:	c8000001 	lwc2	$0,1(zero)
    174c:	e0000009 	sc	zero,9(zero)
    1750:	01000009 	jalr	zero,t0
    1754:	ed120126 	swc3	$18,294(t0)
    1758:	c8000000 	lwc2	$0,0(zero)
    175c:	e0000009 	sc	zero,9(zero)
    1760:	01000009 	jalr	zero,t0
    1764:	09c81442 	j	7205108 <tty_printf+0x720499c>
    1768:	09e00000 	j	7800000 <tty_printf+0x77ff894>
    176c:	36100000 	ori	s0,s0,0x0
    1770:	dc000001 	ldc3	$0,1(zero)
    1774:	10000011 	b	17bc <.debug_info+0x17bc>
    1778:	00000141 	0x141
    177c:	000011ef 	0x11ef
    1780:	00014c10 	0x14c10
    1784:	00120200 	sll	zero,s2,0x8
    1788:	01571000 	0x1571000
    178c:	12150000 	beq	s0,s5,1790 <.debug_info+0x1790>
    1790:	62100000 	0x62100000
    1794:	28000001 	slti	zero,zero,1
    1798:	00000012 	mflo	zero
    179c:	33000000 	andi	zero,t8,0x0
    17a0:	000003b0 	tge	zero,zero,0xe
    17a4:	00001858 	0x1858
    17a8:	01006926 	0x1006926
    17ac:	00187bf2 	tlt	zero,t8,0x1ef
    17b0:	00123b00 	sll	a3,s2,0xc
    17b4:	00ed1700 	0xed1700
    17b8:	08700000 	j	1c00000 <tty_printf+0x1bff894>
    17bc:	08880000 	j	2200000 <tty_printf+0x21ff894>
    17c0:	f6010000 	sdc1	$f1,0(s0)
    17c4:	00001800 	sll	v1,zero,0x0
    17c8:	00087014 	0x87014
    17cc:	00088800 	sll	s1,t0,0x0
    17d0:	01361000 	0x1361000
    17d4:	12590000 	beq	s2,t9,17d8 <.debug_info+0x17d8>
    17d8:	41100000 	0x41100000
    17dc:	82000001 	lb	zero,1(s0)
    17e0:	10000012 	b	182c <.debug_info+0x182c>
    17e4:	0000014c 	syscall	0x5
    17e8:	00001295 	0x1295
    17ec:	00015710 	0x15710
    17f0:	0012ea00 	sll	sp,s2,0x8
    17f4:	01621000 	0x1621000
    17f8:	134a0000 	beq	k0,t2,17fc <.debug_info+0x17fc>
    17fc:	00000000 	nop
    1800:	00017512 	0x17512
    1804:	00085c00 	sll	t3,t0,0x10
    1808:	00087000 	sll	t6,t0,0x0
    180c:	12f60100 	beq	s7,s6,1c10 <tty_printf+0x14a4>
    1810:	000000ed 	0xed
    1814:	0000085c 	0x85c
    1818:	00000870 	tge	zero,zero,0x21
    181c:	5c144201 	0x5c144201
    1820:	70000008 	0x70000008
    1824:	10000008 	b	1848 <.debug_info+0x1848>
    1828:	00000136 	tne	zero,zero,0x4
    182c:	0000139f 	0x139f
    1830:	00014110 	0x14110
    1834:	0013b200 	sll	s6,s3,0x8
    1838:	014c1000 	0x14c1000
    183c:	13c50000 	beq	s8,a1,1840 <.debug_info+0x1840>
    1840:	57100000 	bnel	t8,s0,1844 <.debug_info+0x1844>
    1844:	d8000001 	ldc2	$0,1(zero)
    1848:	10000013 	b	1898 <tty_printf+0x112c>
    184c:	00000162 	0x162
    1850:	000013eb 	0x13eb
    1854:	00000000 	nop
    1858:	0002a03a 	0x2a03a
    185c:	010c0100 	0x10c0100
    1860:	00001892 	0x1892
    1864:	00580305 	0x580305
    1868:	23000000 	addi	zero,t8,0
    186c:	000004dd 	0x4dd
    1870:	0000187b 	0x187b
    1874:	0006e324 	0x6e324
    1878:	1c001300 	bgtz	zero,647c <tty_printf+0x5d10>
    187c:	02260704 	0x2260704
    1880:	dd230000 	ldc3	$3,0(t1)
    1884:	92000004 	lbu	zero,4(s0)
    1888:	24000018 	li	zero,24
    188c:	000006e3 	0x6e3
    1890:	823b0010 	lb	k1,16(s1)
    1894:	00000018 	mult	zero,zero

Disassembly of section .debug_line:

00000000 <.debug_line>:
   0:	000003f1 	tgeu	zero,zero,0xf
   4:	00970002 	0x970002
   8:	01010000 	0x1010000
   c:	000d0efb 	0xd0efb
  10:	01010101 	0x1010101
  14:	01000000 	0x1000000
  18:	2f010000 	sltiu	at,t8,0
  1c:	2f74706f 	sltiu	s4,k1,28783
  20:	2d636367 	sltiu	v1,t3,25447
  24:	736f7263 	0x736f7263
  28:	696d2d73 	0x696d2d73
  2c:	6c657370 	0x6c657370
  30:	332e342f 	andi	t6,t9,0x342f
  34:	6c2f332e 	0x6c2f332e
  38:	34366269 	ori	s6,at,0x6269
  3c:	6363672f 	0x6363672f
  40:	70696d2f 	0x70696d2f
  44:	2d6c6573 	sltiu	t4,t3,25971
  48:	6e6b6e75 	0x6e6b6e75
  4c:	2d6e776f 	sltiu	t6,t3,30575
  50:	2f666c65 	sltiu	a2,k1,27749
  54:	2e332e34 	sltiu	s3,s1,11828
  58:	6e692f33 	0x6e692f33
  5c:	64756c63 	0x64756c63
  60:	73000065 	0x73000065
  64:	6f696474 	0x6f696474
  68:	0000632e 	0x632e
  6c:	74730000 	jalx	1cc0000 <tty_printf+0x1cbf894>
  70:	67726164 	0x67726164
  74:	0100682e 	0x100682e
  78:	69740000 	0x69740000
  7c:	2e72656d 	sltiu	s2,s3,25965
  80:	00000068 	0x68
  84:	64636700 	0x64636700
  88:	0000682e 	0x682e
  8c:	63690000 	0x63690000
  90:	00682e75 	0x682e75
  94:	64000000 	0x64000000
  98:	682e616d 	0x682e616d
  9c:	00000000 	nop
  a0:	02050000 	0x2050000
  a4:	00000000 	nop
  a8:	4b011a03 	c2	0x1011a03
  ac:	4b4b4c49 	c2	0x14b4c49
  b0:	18034c4b 	0x18034c4b
  b4:	5b03c14a 	0x5b03c14a
  b8:	4b4b4b82 	c2	0x14b4b82
  bc:	22034c4b 	addi	v1,s0,19531
  c0:	5203c04a 	beql	s0,v1,ffff01ec <tty_printf+0xfffefa80>
  c4:	4b4b4b82 	c2	0x14b4b82
  c8:	2b034c4b 	slti	v1,t8,19531
  cc:	4903c04a 	bc2tl	ffff01f8 <tty_printf+0xfffefa8c>
  d0:	4b4b4b82 	c2	0x14b4b82
  d4:	49454c4b 	0x49454c4b
  d8:	4a360350 	c2	0x360350
  dc:	baba0e03 	swr	k0,3587(s5)
  e0:	4a7fb603 	c2	0x7fb603
  e4:	4b4b4b4b 	c2	0x14b4b4b
  e8:	00c7034c 	syscall	0x31c0d
  ec:	0349f34a 	0x349f34a
  f0:	3c087fb4 	lui	t0,0x7fb4
  f4:	4c4c4c49 	0x4c4c4c49
  f8:	4a00cf03 	c2	0xcf03
  fc:	7fa303fa 	0x7fa303fa
 100:	4b4b4bba 	c2	0x14b4bba
 104:	48474c4b 	0x48474c4b
 108:	0350484b 	0x350484b
 10c:	c24a00de 	ll	t2,222(s2)
 110:	7f9403ba 	0x7f9403ba
 114:	4b4b4b4a 	c2	0x14b4b4a
 118:	17034c4b 	bne	t8,v1,13248 <tty_printf+0x12adc>
 11c:	00d4034a 	0xd4034a
 120:	7fac034a 	0x7fac034a
 124:	00d40382 	0xd40382
 128:	132c0282 	beq	t9,t4,b34 <tty_printf+0x3c8>
 12c:	7f910348 	0x7f910348
 130:	4b4c4982 	c2	0x14c4982
 134:	f3034c4b 	0xf3034c4b
 138:	0c034a00 	jal	d2800 <tty_printf+0xd2094>
 13c:	7efb03f2 	0x7efb03f2
 140:	4b4b7408 	c2	0x14b7408
 144:	454c4b4b 	0x454c4b4b
 148:	4e4c474c 	c3	0x4c474c
 14c:	4a018603 	c2	0x18603
 150:	4f454f83 	c3	0x1454f83
 154:	3c087a03 	lui	t0,0x7a03
 158:	03bafa50 	0x3bafa50
 15c:	4b4a7ee6 	c2	0x14a7ee6
 160:	4c4b4b4b 	0x4c4b4b4b
 164:	484b4847 	0x484b4847
 168:	019b0350 	0x19b0350
 16c:	f20c034a 	0xf20c034a
 170:	7ed303ba 	0x7ed303ba
 174:	4b4b4b4a 	c2	0x14b4b4a
 178:	a9034c4b 	swl	v1,19531(t0)
 17c:	d2034a01 	0xd2034a01
 180:	012c027e 	0x12c027e
 184:	4a01ae03 	c2	0x1ae03
 188:	4a7ed103 	c2	0x7ed103
 18c:	034d4b4c 	syscall	0xd352d
 190:	834a01b1 	lb	t2,433(k0)
 194:	83494bf3 	lb	t1,19443(k0)
 198:	83814b49 	lb	at,19273(gp)
 19c:	820a0348 	lb	t2,840(s0)
 1a0:	75038745 	jalx	40e1d14 <tty_printf+0x40e15a8>
 1a4:	4a0b03ba 	c2	0xb03ba
 1a8:	ba00ee03 	swr	zero,-4605(s0)
 1ac:	4a7dd303 	c2	0x7dd303
 1b0:	4a02ad03 	c2	0x2ad03
 1b4:	4a7dd003 	c2	0x7dd003
 1b8:	034c4c4c 	syscall	0xd3131
 1bc:	bf4a02b0 	cache	0xa,688(k0)
 1c0:	4a7dc803 	c2	0x7dc803
 1c4:	4a02b803 	c2	0x2b803
 1c8:	4a7dc503 	c2	0x7dc503
 1cc:	034c4c4c 	syscall	0xd3131
 1d0:	bf4a02bb 	cache	0xa,699(k0)
 1d4:	827dba03 	lb	sp,-17917(s3)
 1d8:	4c4b4b4c 	0x4c4b4b4c
 1dc:	4a02c503 	c2	0x2c503
 1e0:	7db303bf 	0x7db303bf
 1e4:	02cd034a 	0x2cd034a
 1e8:	7db0034a 	0x7db0034a
 1ec:	4c4c4c4a 	0x4c4c4c4a
 1f0:	4a02d003 	c2	0x2d003
 1f4:	03ba0b03 	0x3ba0b03
 1f8:	034a7da1 	0x34a7da1
 1fc:	034a02df 	0x34a02df
 200:	4b4a7d9f 	c2	0x14a7d9f
 204:	034c4b4c 	syscall	0xd312d
 208:	c04a02e0 	ll	t2,736(v0)
 20c:	4a7d9603 	c2	0x7d9603
 210:	4a02ea03 	c2	0x2ea03
 214:	4a7d9403 	c2	0x7d9403
 218:	4c4b4c4b 	0x4c4b4c4b
 21c:	4a02eb03 	c2	0x2eb03
 220:	7d8903c0 	0x7d8903c0
 224:	4b4b4b82 	c2	0x14b4b82
 228:	f5034c4b 	sdc1	$f3,19531(t0)
 22c:	03c14a02 	0x3c14a02
 230:	034a7d80 	0x34a7d80
 234:	034a0380 	0x34a0380
 238:	4b4a7cfe 	c2	0x14a7cfe
 23c:	034c4b4c 	syscall	0xd312d
 240:	c04a0381 	ll	t2,897(v0)
 244:	4a7cf503 	c2	0x7cf503
 248:	4a038b03 	c2	0x38b03
 24c:	4a7cf303 	c2	0x7cf303
 250:	4c4b4c4b 	0x4c4b4c4b
 254:	4a038c03 	c2	0x38c03
 258:	03ba0b03 	0x3ba0b03
 25c:	034a7ce5 	0x34a7ce5
 260:	034a039b 	0x34a039b
 264:	4b4a7ce3 	c2	0x14a7ce3
 268:	034c4b4c 	syscall	0xd312d
 26c:	c14a039c 	ll	t2,924(t2)
 270:	4a7cd903 	c2	0x7cd903
 274:	4a03a703 	c2	0x3a703
 278:	4a7cd703 	c2	0x7cd703
 27c:	4c4b4c4b 	0x4c4b4c4b
 280:	4a03a803 	c2	0x3a803
 284:	7cce03c0 	0x7cce03c0
 288:	03b2034a 	0x3b2034a
 28c:	7ccc034a 	0x7ccc034a
 290:	4b4c4b4a 	c2	0x14c4b4a
 294:	03b3034c 	syscall	0xecc0d
 298:	c303c04a 	ll	v1,-16310(t8)
 29c:	bd034a7c 	cache	0x3,19068(t0)
 2a0:	c1034a03 	ll	v1,18947(t0)
 2a4:	4c4b4a7c 	0x4c4b4a7c
 2a8:	be034c4b 	cache	0x3,19531(s0)
 2ac:	03c14a03 	0x3c14a03
 2b0:	034a7cb7 	0x34a7cb7
 2b4:	034a03c9 	0x34a03c9
 2b8:	4b4a7cb5 	c2	0x14a7cb5
 2bc:	034c4b4c 	syscall	0xd312d
 2c0:	034a03ca 	0x34a03ca
 2c4:	a703ba0b 	sh	v1,-17909(t8)
 2c8:	d9034a7c 	ldc2	$3,19068(t0)
 2cc:	a5034a03 	sh	v1,18947(t0)
 2d0:	4c4b4a7c 	0x4c4b4a7c
 2d4:	da034c4b 	ldc2	$3,19531(s0)
 2d8:	03c04a03 	0x3c04a03
 2dc:	034a7c9c 	0x34a7c9c
 2e0:	034a03e4 	0x34a03e4
 2e4:	4b4a7c9a 	c2	0x14a7c9a
 2e8:	034c4b4c 	syscall	0xd312d
 2ec:	c04a03e5 	ll	t2,997(v0)
 2f0:	4a7c9103 	c2	0x7c9103
 2f4:	4a03ef03 	c2	0x3ef03
 2f8:	4a7c8f03 	c2	0x7c8f03
 2fc:	4c4b4c4b 	0x4c4b4c4b
 300:	4a03f003 	c2	0x3f003
 304:	7c8403c0 	0x7c8403c0
 308:	4b4b4b82 	c2	0x14b4b82
 30c:	fa034c4b 	sdc2	$3,19531(s0)
 310:	0f034a03 	jal	c0d280c <tty_printf+0xc0d20a0>
 314:	7bf103ba 	0x7bf103ba
 318:	4b4b4c82 	c2	0x14b4c82
 31c:	048d034c 	0x48d034c
 320:	e503c24a 	swc1	$f3,-15798(t0)
 324:	4b4c827b 	c2	0x14c827b
 328:	99034c4b 	lwr	v1,19531(t0)
 32c:	03c04a04 	0x3c04a04
 330:	4b827bdb 	c2	0x1827bdb
 334:	4c4b4b4b 	0x4c4b4b4b
 338:	034a1703 	0x34a1703
 33c:	f44a048b 	sdc1	$f10,1163(v0)
 340:	4cf04b49 	0x4cf04b49
 344:	827da503 	lb	sp,-23293(s3)
 348:	8222034c 	lb	v0,844(s1)
 34c:	024a5c03 	0x24a5c03
 350:	24031228 	li	v1,4648
 354:	7e8f03f2 	0x7e8f03f2
 358:	01f10382 	0x1f10382
 35c:	4a100382 	c2	0x100382
 360:	4a7dff03 	c2	0x7dff03
 364:	4a028103 	c2	0x28103
 368:	804a5403 	lb	t2,21507(v0)
 36c:	ae087608 	sw	t0,30216(s0)
 370:	82750389 	lb	s5,905(s3)
 374:	8200d103 	lb	zero,-12029(s0)
 378:	027dda03 	0x27dda03
 37c:	4c4b0134 	0x4c4b0134
 380:	4b454c4b 	c2	0x1454c4b
 384:	0350474b 	0x350474b
 388:	038201da 	0x38201da
 38c:	7503820c 	jalx	40e0830 <tty_printf+0x40e00c4>
 390:	4a0b034a 	c2	0xb034a
 394:	192c0289 	0x192c0289
 398:	7e850383 	0x7e850383
 39c:	4c4b4b4a 	0x4c4b4b4a
 3a0:	4b49464c 	c2	0x149464c
 3a4:	034d4d48 	0x34d4d48
 3a8:	4bba01fc 	c2	0x1ba01fc
 3ac:	b8133002 	swr	s3,12290(zero)
 3b0:	7df903f7 	0x7df903f7
 3b4:	4b4b4b82 	c2	0x14b4b82
 3b8:	4b454c4b 	c2	0x1454c4b
 3bc:	0350474b 	0x350474b
 3c0:	034a01ed 	0x34a01ed
 3c4:	e803ba25 	swc2	$3,-17883(zero)
 3c8:	012c027d 	0x12c027d
 3cc:	4b4b4b4b 	c2	0x14b4b4b
 3d0:	4b48474c 	c2	0x148474c
 3d4:	89035048 	lwl	v1,20552(t0)
 3d8:	4983ba02 	0x4983ba02
 3dc:	b84bb94b 	swr	t3,-18101(v0)
 3e0:	49e508f3 	0x49e508f3
 3e4:	bd4bb94b 	cache	0xb,-18101(t2)
 3e8:	03ba6303 	0x3ba6303
 3ec:	bf4ff218 	cache	0xf,-3560(k0)
 3f0:	01000802 	0x1000802
 3f4:	Address 0x00000000000003f4 is out of bounds.


Disassembly of section .rodata.str1.4:

00000000 <$LC0>:
   0:	64636261 	0x64636261
   4:	68676665 	0x68676665
   8:	6c6c6a69 	0x6c6c6a69
   c:	706f6e6d 	0x706f6e6d
  10:	00737271 	tgeu	v1,s3,0x1c9
  14:	00000000 	nop

00000018 <$LC1>:
  18:	0000002d 	0x2d

0000001c <$LC2>:
  1c:	00007830 	tge	zero,zero,0x1e0

Disassembly of section .rodata:

00000000 <HexaTab.996-0x58>:
   0:	00000a88 	0xa88
   4:	000008cc 	syscall	0x23
   8:	00000990 	0x990
   c:	00000990 	0x990
  10:	00000990 	0x990
  14:	00000990 	0x990
  18:	00000990 	0x990
  1c:	00000990 	0x990
  20:	00000990 	0x990
  24:	00000990 	0x990
  28:	00000990 	0x990
  2c:	00000990 	0x990
  30:	00000990 	0x990
  34:	00000990 	0x990
  38:	00000990 	0x990
  3c:	00000990 	0x990
  40:	0000099c 	0x99c
  44:	00000990 	0x990
  48:	00000904 	0x904
  4c:	00000990 	0x990
  50:	00000990 	0x990
  54:	000009c8 	0x9c8

00000058 <HexaTab.996>:
  58:	33323130 	andi	s2,t9,0x3130
  5c:	37363534 	ori	s6,t9,0x3534
  60:	42413938 	c0	0x413938
  64:	46454443 	c1	0x454443
  68:	00000000 	nop

Disassembly of section .debug_frame:

00000000 <.debug_frame>:
   0:	0000000c 	syscall
   4:	ffffffff 	sdc3	$31,-1(ra)
   8:	7c010001 	0x7c010001
   c:	001d0c1f 	0x1d0c1f
  10:	00000014 	0x14
	...
  1c:	0000002c 	0x2c
  20:	48080e44 	0x48080e44
  24:	0000019f 	0x19f
  28:	00000014 	0x14
  2c:	00000000 	nop
  30:	0000002c 	0x2c
  34:	0000002c 	0x2c
  38:	44080e44 	0x44080e44
  3c:	0000019f 	0x19f
  40:	00000014 	0x14
  44:	00000000 	nop
  48:	00000058 	0x58
  4c:	0000002c 	0x2c
  50:	44080e44 	0x44080e44
  54:	0000019f 	0x19f
  58:	00000014 	0x14
  5c:	00000000 	nop
  60:	00000084 	0x84
  64:	00000038 	0x38
  68:	44080e44 	0x44080e44
  6c:	0000019f 	0x19f
  70:	00000014 	0x14
  74:	00000000 	nop
  78:	000000bc 	0xbc
  7c:	00000074 	teq	zero,zero,0x1
  80:	48080e44 	0x48080e44
  84:	0290019f 	0x290019f
  88:	00000014 	0x14
  8c:	00000000 	nop
  90:	00000130 	tge	zero,zero,0x4
  94:	00000044 	0x44
  98:	48080e44 	0x48080e44
  9c:	0000019f 	0x19f
  a0:	00000014 	0x14
  a4:	00000000 	nop
  a8:	00000174 	teq	zero,zero,0x5
  ac:	0000009c 	0x9c
  b0:	48180e44 	0x48180e44
  b4:	0290019f 	0x290019f
  b8:	00000018 	mult	zero,zero
  bc:	00000000 	nop
  c0:	00000210 	0x210
  c4:	00000080 	sll	zero,zero,0x2
  c8:	48100e44 	0x48100e44
  cc:	02910390 	0x2910390
  d0:	00019f4c 	syscall	0x67d
  d4:	00000014 	0x14
  d8:	00000000 	nop
  dc:	00000290 	0x290
  e0:	0000004c 	syscall	0x1
  e4:	48080e44 	0x48080e44
  e8:	0290019f 	0x290019f
  ec:	00000014 	0x14
  f0:	00000000 	nop
  f4:	000002dc 	0x2dc
  f8:	000000e0 	0xe0
  fc:	48200e44 	0x48200e44
 100:	0290019f 	0x290019f
 104:	00000014 	0x14
 108:	00000000 	nop
 10c:	000003bc 	0x3bc
 110:	00000028 	0x28
 114:	48080e44 	0x48080e44
 118:	0000019f 	0x19f
 11c:	00000014 	0x14
 120:	00000000 	nop
 124:	000003e4 	0x3e4
 128:	00000028 	0x28
 12c:	48080e44 	0x48080e44
 130:	0000019f 	0x19f
 134:	00000014 	0x14
 138:	00000000 	nop
 13c:	0000040c 	syscall	0x10
 140:	00000028 	0x28
 144:	44080e44 	0x44080e44
 148:	0000019f 	0x19f
 14c:	00000014 	0x14
 150:	00000000 	nop
 154:	00000434 	teq	zero,zero,0x10
 158:	00000028 	0x28
 15c:	48080e44 	0x48080e44
 160:	0000019f 	0x19f
 164:	00000014 	0x14
 168:	00000000 	nop
 16c:	0000045c 	0x45c
 170:	0000002c 	0x2c
 174:	48080e44 	0x48080e44
 178:	0000019f 	0x19f
 17c:	00000014 	0x14
 180:	00000000 	nop
 184:	00000488 	0x488
 188:	0000002c 	0x2c
 18c:	48080e44 	0x48080e44
 190:	0000019f 	0x19f
 194:	00000014 	0x14
 198:	00000000 	nop
 19c:	000004b4 	teq	zero,zero,0x12
 1a0:	0000002c 	0x2c
 1a4:	44080e44 	0x44080e44
 1a8:	0000019f 	0x19f
 1ac:	00000014 	0x14
 1b0:	00000000 	nop
 1b4:	000004e0 	0x4e0
 1b8:	0000002c 	0x2c
 1bc:	48080e44 	0x48080e44
 1c0:	0000019f 	0x19f
 1c4:	00000014 	0x14
 1c8:	00000000 	nop
 1cc:	0000050c 	syscall	0x14
 1d0:	0000002c 	0x2c
 1d4:	48080e44 	0x48080e44
 1d8:	0000019f 	0x19f
 1dc:	00000014 	0x14
 1e0:	00000000 	nop
 1e4:	00000538 	0x538
 1e8:	0000002c 	0x2c
 1ec:	48080e44 	0x48080e44
 1f0:	0000019f 	0x19f
 1f4:	00000014 	0x14
 1f8:	00000000 	nop
 1fc:	00000564 	0x564
 200:	0000002c 	0x2c
 204:	48080e44 	0x48080e44
 208:	0000019f 	0x19f
 20c:	00000014 	0x14
 210:	00000000 	nop
 214:	00000590 	0x590
 218:	0000002c 	0x2c
 21c:	48080e44 	0x48080e44
 220:	0000019f 	0x19f
 224:	00000014 	0x14
 228:	00000000 	nop
 22c:	000005bc 	0x5bc
 230:	0000002c 	0x2c
 234:	48080e44 	0x48080e44
 238:	0000019f 	0x19f
 23c:	00000014 	0x14
 240:	00000000 	nop
 244:	000005e8 	0x5e8
 248:	0000002c 	0x2c
 24c:	48080e44 	0x48080e44
 250:	0000019f 	0x19f
 254:	00000014 	0x14
 258:	00000000 	nop
 25c:	00000614 	0x614
 260:	0000002c 	0x2c
 264:	48080e44 	0x48080e44
 268:	0000019f 	0x19f
 26c:	00000014 	0x14
 270:	00000000 	nop
 274:	00000640 	sll	zero,zero,0x19
 278:	0000002c 	0x2c
 27c:	48080e44 	0x48080e44
 280:	0000019f 	0x19f
 284:	00000014 	0x14
 288:	00000000 	nop
 28c:	0000066c 	0x66c
 290:	0000002c 	0x2c
 294:	48080e44 	0x48080e44
 298:	0000019f 	0x19f
 29c:	00000014 	0x14
 2a0:	00000000 	nop
 2a4:	00000698 	0x698
 2a8:	0000002c 	0x2c
 2ac:	44080e44 	0x44080e44
 2b0:	0000019f 	0x19f
 2b4:	00000014 	0x14
 2b8:	00000000 	nop
 2bc:	000006c4 	0x6c4
 2c0:	00000028 	0x28
 2c4:	44080e44 	0x44080e44
 2c8:	0000019f 	0x19f
 2cc:	00000014 	0x14
 2d0:	00000000 	nop
 2d4:	000006ec 	0x6ec
 2d8:	00000028 	0x28
 2dc:	44080e44 	0x44080e44
 2e0:	0000019f 	0x19f
 2e4:	00000014 	0x14
 2e8:	00000000 	nop
 2ec:	00000714 	0x714
 2f0:	00000058 	0x58
 2f4:	44080e44 	0x44080e44
 2f8:	0000019f 	0x19f
 2fc:	00000024 	and	zero,zero,zero
 300:	00000000 	nop
 304:	0000076c 	0x76c
 308:	00000344 	0x344
 30c:	74400e44 	jalx	1003910 <tty_printf+0x10031a4>
 310:	09910a90 	j	6442a40 <tty_printf+0x64422d4>
 314:	0892019f 	j	248067c <tty_printf+0x247ff10>
 318:	06940793 	0x6940793
 31c:	04960595 	0x4960595
 320:	029e0397 	0x29e0397

Disassembly of section .debug_loc:

00000000 <.debug_loc>:
       0:	00000000 	nop
       4:	00000004 	sllv	zero,zero,zero
       8:	046d0001 	0x46d0001
       c:	2c000000 	sltiu	zero,zero,0
      10:	02000000 	0x2000000
      14:	00088d00 	sll	s1,t0,0x14
	...
      20:	10000000 	b	24 <.debug_loc+0x24>
      24:	01000000 	0x1000000
      28:	00005400 	sll	t2,zero,0x10
	...
      34:	00140000 	sll	zero,s4,0x0
      38:	00010000 	sll	zero,at,0x0
      3c:	00000055 	0x55
	...
      48:	00001800 	sll	v1,zero,0x0
      4c:	56000100 	bnezl	s0,450 <.debug_loc+0x450>
      50:	00000000 	nop
	...
      5c:	0000001c 	0x1c
      60:	00570001 	0x570001
      64:	00000000 	nop
      68:	08000000 	j	0 <.debug_loc>
      6c:	24000000 	li	zero,0
      70:	01000000 	0x1000000
      74:	00005200 	sll	t2,zero,0x8
      78:	00000000 	nop
      7c:	002c0000 	0x2c0000
      80:	00300000 	0x300000
      84:	00010000 	sll	zero,at,0x0
      88:	0000306d 	0x306d
      8c:	00005800 	sll	t3,zero,0x0
      90:	8d000200 	lw	zero,512(t0)
      94:	00000008 	jr	zero
      98:	00000000 	nop
      9c:	00003800 	sll	a3,zero,0x0
      a0:	00005000 	sll	t2,zero,0x0
      a4:	52000100 	beqzl	s0,4a8 <.debug_loc+0x4a8>
      a8:	00000000 	nop
      ac:	00000000 	nop
      b0:	00000058 	0x58
      b4:	0000005c 	0x5c
      b8:	5c6d0001 	0x5c6d0001
      bc:	84000000 	lh	zero,0(zero)
      c0:	02000000 	0x2000000
      c4:	00088d00 	sll	s1,t0,0x14
      c8:	00000000 	nop
      cc:	64000000 	0x64000000
      d0:	7c000000 	0x7c000000
      d4:	01000000 	0x1000000
      d8:	00005200 	sll	t2,zero,0x8
      dc:	00000000 	nop
      e0:	00840000 	0x840000
      e4:	00880000 	0x880000
      e8:	00010000 	sll	zero,at,0x0
      ec:	0000886d 	0x886d
      f0:	0000bc00 	sll	s7,zero,0x10
      f4:	8d000200 	lw	zero,512(t0)
      f8:	00000008 	jr	zero
      fc:	00000000 	nop
     100:	0000a800 	sll	s5,zero,0x0
     104:	0000ac00 	sll	s5,zero,0x10
     108:	52000100 	beqzl	s0,50c <.debug_loc+0x50c>
     10c:	00000000 	nop
     110:	00000000 	nop
     114:	00000090 	0x90
     118:	000000ac 	0xac
     11c:	00520001 	0x520001
     120:	00000000 	nop
     124:	94000000 	lhu	zero,0(zero)
     128:	a8000000 	swl	zero,0(zero)
     12c:	01000000 	0x1000000
     130:	00005400 	sll	t2,zero,0x10
     134:	00000000 	nop
     138:	00ac0000 	0xac0000
     13c:	00b40000 	0xb40000
     140:	00010000 	sll	zero,at,0x0
     144:	00000052 	mflhxu	zero
     148:	00000000 	nop
     14c:	0000bc00 	sll	s7,zero,0x10
     150:	0000c000 	sll	t8,zero,0x0
     154:	6d000100 	0x6d000100
     158:	000000c0 	sll	zero,zero,0x3
     15c:	00000130 	tge	zero,zero,0x4
     160:	088d0002 	j	2340008 <tty_printf+0x233f89c>
     164:	00000000 	nop
     168:	00000000 	nop
     16c:	000000bc 	0xbc
     170:	000000d4 	0xd4
     174:	d4540001 	ldc1	$f20,1(v0)
     178:	28000000 	slti	zero,zero,0
     17c:	01000001 	movf	zero,t0,$fcc0
     180:	00006000 	sll	t4,zero,0x0
     184:	00000000 	nop
     188:	00e80000 	0xe80000
     18c:	01180000 	0x1180000
     190:	00010000 	sll	zero,at,0x0
     194:	00000055 	0x55
     198:	00000000 	nop
     19c:	0000d000 	sll	k0,zero,0x0
     1a0:	0000fc00 	sll	ra,zero,0x10
     1a4:	52000100 	beqzl	s0,5a8 <.debug_loc+0x5a8>
     1a8:	0000010c 	syscall	0x4
     1ac:	00000114 	0x114
     1b0:	00520001 	0x520001
     1b4:	00000000 	nop
     1b8:	d4000000 	ldc1	$f0,0(zero)
     1bc:	e8000000 	swc2	$0,0(zero)
     1c0:	01000000 	0x1000000
     1c4:	00005400 	sll	t2,zero,0x10
     1c8:	00000000 	nop
     1cc:	00d80000 	0xd80000
     1d0:	00e80000 	0xe80000
     1d4:	00010000 	sll	zero,at,0x0
     1d8:	00000055 	0x55
     1dc:	00000000 	nop
     1e0:	0000dc00 	sll	k1,zero,0x10
     1e4:	0000f400 	sll	s8,zero,0x10
     1e8:	56000100 	bnezl	s0,5ec <.debug_loc+0x5ec>
     1ec:	0000010c 	syscall	0x4
     1f0:	00000130 	tge	zero,zero,0x4
     1f4:	00560001 	0x560001
     1f8:	00000000 	nop
     1fc:	e0000000 	sc	zero,0(zero)
     200:	1c000000 	bgtz	zero,204 <.debug_loc+0x204>
     204:	01000001 	movf	zero,t0,$fcc0
     208:	00005700 	sll	t2,zero,0x1c
     20c:	00000000 	nop
     210:	01140000 	0x1140000
     214:	01240000 	0x1240000
     218:	00010000 	sll	zero,at,0x0
     21c:	00000052 	mflhxu	zero
     220:	00000000 	nop
     224:	00013000 	sll	a2,at,0x0
     228:	00013400 	sll	a2,at,0x10
     22c:	6d000100 	0x6d000100
     230:	00000134 	teq	zero,zero,0x4
     234:	00000174 	teq	zero,zero,0x5
     238:	088d0002 	j	2340008 <tty_printf+0x233f89c>
     23c:	00000000 	nop
     240:	00000000 	nop
     244:	00000130 	tge	zero,zero,0x4
     248:	00000144 	0x144
     24c:	44540001 	0x44540001
     250:	74000001 	jalx	4 <.debug_loc+0x4>
     254:	02000001 	movf	zero,s0,$fcc0
     258:	00088d00 	sll	s1,t0,0x14
     25c:	00000000 	nop
     260:	5c000000 	bgtzl	zero,264 <.debug_loc+0x264>
     264:	64000001 	0x64000001
     268:	01000001 	movf	zero,t0,$fcc0
     26c:	00005200 	sll	t2,zero,0x8
     270:	00000000 	nop
     274:	01400000 	0x1400000
     278:	01640000 	0x1640000
     27c:	00010000 	sll	zero,at,0x0
     280:	00000052 	mflhxu	zero
     284:	00000000 	nop
     288:	00014400 	sll	t0,at,0x10
     28c:	00015c00 	sll	t3,at,0x10
     290:	54000100 	bnezl	zero,694 <.debug_loc+0x694>
     294:	00000000 	nop
     298:	00000000 	nop
     29c:	00000148 	0x148
     2a0:	00000160 	0x160
     2a4:	00550001 	movt	zero,v0,$fcc5
     2a8:	00000000 	nop
     2ac:	4c000000 	mfc3	zero,$0
     2b0:	58000001 	blezl	zero,2b8 <.debug_loc+0x2b8>
     2b4:	01000001 	movf	zero,t0,$fcc0
     2b8:	00005600 	sll	t2,zero,0x18
     2bc:	00000000 	nop
     2c0:	01640000 	0x1640000
     2c4:	016c0000 	0x16c0000
     2c8:	00010000 	sll	zero,at,0x0
     2cc:	00000052 	mflhxu	zero
     2d0:	00000000 	nop
     2d4:	00017400 	sll	t6,at,0x10
     2d8:	00017800 	sll	t7,at,0x0
     2dc:	6d000100 	0x6d000100
     2e0:	00000178 	0x178
     2e4:	00000210 	0x210
     2e8:	188d0002 	0x188d0002
	...
     2f4:	00000174 	teq	zero,zero,0x5
     2f8:	0000018c 	syscall	0x6
     2fc:	8c540001 	lw	s4,1(v0)
     300:	08000001 	j	4 <.debug_loc+0x4>
     304:	01000002 	0x1000002
     308:	00006000 	sll	t4,zero,0x0
     30c:	00000000 	nop
     310:	01a00000 	0x1a00000
     314:	02000000 	0x2000000
     318:	00010000 	sll	zero,at,0x0
     31c:	00000059 	0x59
     320:	00000000 	nop
     324:	00018800 	sll	s1,at,0x0
     328:	0001a400 	sll	s4,at,0x10
     32c:	52000100 	beqzl	s0,730 <.debug_loc+0x730>
     330:	00000000 	nop
     334:	00000000 	nop
     338:	0000018c 	syscall	0x6
     33c:	000001c0 	sll	zero,zero,0x7
     340:	00540001 	movf	zero,v0,$fcc5
     344:	00000000 	nop
     348:	90000000 	lbu	zero,0(zero)
     34c:	b8000001 	swr	zero,1(zero)
     350:	01000001 	movf	zero,t0,$fcc0
     354:	00005500 	sll	t2,zero,0x14
     358:	00000000 	nop
     35c:	01940000 	0x1940000
     360:	01ac0000 	0x1ac0000
     364:	00010000 	sll	zero,at,0x0
     368:	00000056 	0x56
     36c:	00000000 	nop
     370:	00019800 	sll	s3,at,0x0
     374:	0001b000 	sll	s6,at,0x0
     378:	57000100 	bnezl	t8,77c <.debug_loc+0x77c>
     37c:	00000000 	nop
     380:	00000000 	nop
     384:	000001f0 	tge	zero,zero,0x7
     388:	00000204 	0x204
     38c:	00520001 	0x520001
     390:	00000000 	nop
     394:	10000000 	b	398 <.debug_loc+0x398>
     398:	14000002 	bnez	zero,3a4 <.debug_loc+0x3a4>
     39c:	01000002 	0x1000002
     3a0:	02146d00 	0x2146d00
     3a4:	02900000 	0x2900000
     3a8:	00020000 	sll	zero,v0,0x0
     3ac:	0000108d 	break	0x0,0x42
     3b0:	00000000 	nop
     3b4:	02100000 	0x2100000
     3b8:	02300000 	0x2300000
     3bc:	00010000 	sll	zero,at,0x0
     3c0:	00023054 	0x23054
     3c4:	00026c00 	sll	t5,v0,0x10
     3c8:	61000100 	0x61000100
     3cc:	00000278 	0x278
     3d0:	00000284 	0x284
     3d4:	00610001 	movt	zero,v1,$fcc0
     3d8:	00000000 	nop
     3dc:	10000000 	b	3e0 <.debug_loc+0x3e0>
     3e0:	34000002 	li	zero,0x2
     3e4:	01000002 	0x1000002
     3e8:	02345500 	0x2345500
     3ec:	02700000 	0x2700000
     3f0:	00010000 	sll	zero,at,0x0
     3f4:	00027860 	0x27860
     3f8:	00028800 	sll	s1,v0,0x0
     3fc:	60000100 	0x60000100
	...
     408:	00000244 	0x244
     40c:	0000024c 	syscall	0x9
     410:	00520001 	0x520001
     414:	00000000 	nop
     418:	5c000000 	bgtzl	zero,41c <.debug_loc+0x41c>
     41c:	5c000002 	bgtzl	zero,428 <.debug_loc+0x428>
     420:	01000002 	0x1000002
     424:	02785200 	0x2785200
     428:	02800000 	0x2800000
     42c:	00010000 	sll	zero,at,0x0
     430:	00000052 	mflhxu	zero
     434:	00000000 	nop
     438:	00022c00 	sll	a1,v0,0x10
     43c:	00024c00 	sll	t1,v0,0x10
     440:	52000100 	beqzl	s0,844 <.debug_loc+0x844>
     444:	00000000 	nop
     448:	00000000 	nop
     44c:	00000230 	tge	zero,zero,0x8
     450:	00000244 	0x244
     454:	00540001 	movf	zero,v0,$fcc5
     458:	00000000 	nop
     45c:	34000000 	li	zero,0x0
     460:	50000002 	beqzl	zero,46c <.debug_loc+0x46c>
     464:	01000002 	0x1000002
     468:	00005500 	sll	t2,zero,0x14
     46c:	00000000 	nop
     470:	02380000 	0x2380000
     474:	02480000 	0x2480000
     478:	00010000 	sll	zero,at,0x0
     47c:	00000056 	0x56
     480:	00000000 	nop
     484:	00024c00 	sll	t1,v0,0x10
     488:	00025c00 	sll	t3,v0,0x10
     48c:	52000100 	beqzl	s0,890 <.debug_loc+0x890>
     490:	00000278 	0x278
     494:	00000280 	sll	zero,zero,0xa
     498:	00520001 	0x520001
     49c:	00000000 	nop
     4a0:	90000000 	lbu	zero,0(zero)
     4a4:	94000002 	lhu	zero,2(zero)
     4a8:	01000002 	0x1000002
     4ac:	02946d00 	0x2946d00
     4b0:	02dc0000 	0x2dc0000
     4b4:	00020000 	sll	zero,v0,0x0
     4b8:	0000088d 	break	0x0,0x22
     4bc:	00000000 	nop
     4c0:	02900000 	0x2900000
     4c4:	02a80000 	0x2a80000
     4c8:	00010000 	sll	zero,at,0x0
     4cc:	0002a854 	0x2a854
     4d0:	0002d400 	sll	k0,v0,0x10
     4d4:	60000100 	0x60000100
	...
     4e0:	000002c0 	sll	zero,zero,0xb
     4e4:	000002c8 	0x2c8
     4e8:	00520001 	0x520001
     4ec:	00000000 	nop
     4f0:	a4000000 	sh	zero,0(zero)
     4f4:	c8000002 	lwc2	$0,2(zero)
     4f8:	01000002 	0x1000002
     4fc:	00005200 	sll	t2,zero,0x8
     500:	00000000 	nop
     504:	02a80000 	0x2a80000
     508:	02c00000 	0x2c00000
     50c:	00010000 	sll	zero,at,0x0
     510:	00000054 	0x54
     514:	00000000 	nop
     518:	0002ac00 	sll	s5,v0,0x10
     51c:	0002c400 	sll	t8,v0,0x10
     520:	55000100 	bnezl	t0,924 <.debug_loc+0x924>
     524:	00000000 	nop
     528:	00000000 	nop
     52c:	000002b0 	tge	zero,zero,0xa
     530:	000002bc 	0x2bc
     534:	00560001 	0x560001
     538:	00000000 	nop
     53c:	c8000000 	lwc2	$0,0(zero)
     540:	d0000002 	0xd0000002
     544:	01000002 	0x1000002
     548:	00005200 	sll	t2,zero,0x8
     54c:	00000000 	nop
     550:	02dc0000 	0x2dc0000
     554:	02e00000 	0x2e00000
     558:	00010000 	sll	zero,at,0x0
     55c:	0002e06d 	0x2e06d
     560:	0003bc00 	sll	s7,v1,0x10
     564:	8d000200 	lw	zero,512(t0)
     568:	00000020 	add	zero,zero,zero
     56c:	00000000 	nop
     570:	0002dc00 	sll	k1,v0,0x10
     574:	0002f400 	sll	s8,v0,0x10
     578:	54000100 	bnezl	zero,97c <.debug_loc+0x97c>
     57c:	000002f4 	teq	zero,zero,0xb
     580:	000003a4 	0x3a4
     584:	ac600001 	sw	zero,1(v1)
     588:	b4000003 	0xb4000003
     58c:	01000003 	0x1000003
     590:	03bc6000 	0x3bc6000
     594:	03bc0000 	0x3bc0000
     598:	00010000 	sll	zero,at,0x0
     59c:	00000060 	0x60
     5a0:	00000000 	nop
     5a4:	00033400 	sll	a2,v1,0x10
     5a8:	00033c00 	sll	a3,v1,0x10
     5ac:	52000100 	beqzl	s0,9b0 <.debug_loc+0x9b0>
     5b0:	00000000 	nop
     5b4:	00000000 	nop
     5b8:	00000360 	0x360
     5bc:	000003ac 	0x3ac
     5c0:	bc570001 	cache	0x17,1(v0)
     5c4:	bc000003 	cache	0x0,3(zero)
     5c8:	01000003 	0x1000003
     5cc:	00005700 	sll	t2,zero,0x1c
     5d0:	00000000 	nop
     5d4:	03500000 	0x3500000
     5d8:	03740000 	0x3740000
     5dc:	00010000 	sll	zero,at,0x0
     5e0:	00039452 	0x39452
     5e4:	0003a000 	sll	s4,v1,0x0
     5e8:	52000100 	beqzl	s0,9ec <.debug_loc+0x9ec>
     5ec:	000003ac 	0x3ac
     5f0:	000003b0 	tge	zero,zero,0xe
     5f4:	bc520001 	cache	0x12,1(v0)
     5f8:	bc000003 	cache	0x0,3(zero)
     5fc:	01000003 	0x1000003
     600:	00005200 	sll	t2,zero,0x8
     604:	00000000 	nop
     608:	02f00000 	0x2f00000
     60c:	033c0000 	0x33c0000
     610:	00010000 	sll	zero,at,0x0
     614:	00000052 	mflhxu	zero
     618:	00000000 	nop
     61c:	0002f400 	sll	s8,v0,0x10
     620:	00030800 	sll	at,v1,0x0
     624:	54000100 	bnezl	zero,a28 <.debug_loc+0xa28>
     628:	00000000 	nop
     62c:	00000000 	nop
     630:	000002f8 	0x2f8
     634:	00000310 	0x310
     638:	00550001 	movt	zero,v0,$fcc5
     63c:	00000000 	nop
     640:	fc000000 	sdc3	$0,0(zero)
     644:	14000002 	bnez	zero,650 <.debug_loc+0x650>
     648:	01000003 	0x1000003
     64c:	00005600 	sll	t2,zero,0x18
     650:	00000000 	nop
     654:	03000000 	0x3000000
     658:	03600000 	0x3600000
     65c:	00010000 	sll	zero,at,0x0
     660:	0003ac57 	0x3ac57
     664:	0003bc00 	sll	s7,v1,0x10
     668:	57000100 	bnezl	t8,a6c <.debug_loc+0xa6c>
     66c:	00000000 	nop
     670:	00000000 	nop
     674:	0000033c 	0x33c
     678:	00000374 	teq	zero,zero,0xd
     67c:	94520001 	lhu	s2,1(v0)
     680:	a0000003 	sb	zero,3(zero)
     684:	01000003 	0x1000003
     688:	03ac5200 	0x3ac5200
     68c:	03b00000 	0x3b00000
     690:	00010000 	sll	zero,at,0x0
     694:	0003bc52 	0x3bc52
     698:	0003bc00 	sll	s7,v1,0x10
     69c:	52000100 	beqzl	s0,aa0 <.debug_loc+0xaa0>
     6a0:	00000000 	nop
     6a4:	00000000 	nop
     6a8:	00000334 	teq	zero,zero,0xc
     6ac:	00000368 	0x368
     6b0:	94540001 	lhu	s4,1(v0)
     6b4:	bc000003 	cache	0x0,3(zero)
     6b8:	01000003 	0x1000003
     6bc:	00005400 	sll	t2,zero,0x10
     6c0:	00000000 	nop
     6c4:	03400000 	0x3400000
     6c8:	03640000 	0x3640000
     6cc:	00010000 	sll	zero,at,0x0
     6d0:	00039455 	0x39455
     6d4:	0003bc00 	sll	s7,v1,0x10
     6d8:	55000100 	bnezl	t0,adc <.debug_loc+0xadc>
     6dc:	00000000 	nop
     6e0:	00000000 	nop
     6e4:	00000344 	0x344
     6e8:	00000360 	0x360
     6ec:	94560001 	lhu	s6,1(v0)
     6f0:	bc000003 	cache	0x0,3(zero)
     6f4:	01000003 	0x1000003
     6f8:	00005600 	sll	t2,zero,0x18
     6fc:	00000000 	nop
     700:	03480000 	0x3480000
     704:	03600000 	0x3600000
     708:	00010000 	sll	zero,at,0x0
     70c:	0003ac57 	0x3ac57
     710:	0003bc00 	sll	s7,v1,0x10
     714:	57000100 	bnezl	t8,b18 <.debug_loc+0xb18>
     718:	00000000 	nop
     71c:	00000000 	nop
     720:	000003bc 	0x3bc
     724:	000003c0 	sll	zero,zero,0xf
     728:	c06d0001 	ll	t5,1(v1)
     72c:	e4000003 	swc1	$f0,3(zero)
     730:	02000003 	0x2000003
     734:	00088d00 	sll	s1,t0,0x14
     738:	00000000 	nop
     73c:	bc000000 	cache	0x0,0(zero)
     740:	d0000003 	0xd0000003
     744:	01000003 	0x1000003
     748:	00005500 	sll	t2,zero,0x14
     74c:	00000000 	nop
     750:	03cc0000 	0x3cc0000
     754:	03dc0000 	0x3dc0000
     758:	00010000 	sll	zero,at,0x0
     75c:	00000052 	mflhxu	zero
     760:	00000000 	nop
     764:	0003e400 	sll	gp,v1,0x10
     768:	0003e800 	sll	sp,v1,0x0
     76c:	6d000100 	0x6d000100
     770:	000003e8 	0x3e8
     774:	0000040c 	syscall	0x10
     778:	088d0002 	j	2340008 <tty_printf+0x233f89c>
     77c:	00000000 	nop
     780:	00000000 	nop
     784:	000003e4 	0x3e4
     788:	000003f8 	0x3f8
     78c:	00550001 	movt	zero,v0,$fcc5
     790:	00000000 	nop
     794:	f4000000 	sdc1	$f0,0(zero)
     798:	04000003 	bltz	zero,7a8 <.debug_loc+0x7a8>
     79c:	01000004 	sllv	zero,zero,t0
     7a0:	00005200 	sll	t2,zero,0x8
     7a4:	00000000 	nop
     7a8:	040c0000 	teqi	zero,0
     7ac:	04100000 	bltzal	zero,7b0 <.debug_loc+0x7b0>
     7b0:	00010000 	sll	zero,at,0x0
     7b4:	0004106d 	0x4106d
     7b8:	00043400 	sll	a2,a0,0x10
     7bc:	8d000200 	lw	zero,512(t0)
     7c0:	00000008 	jr	zero
     7c4:	00000000 	nop
     7c8:	00041800 	sll	v1,a0,0x0
     7cc:	00042c00 	sll	a1,a0,0x10
     7d0:	52000100 	beqzl	s0,bd4 <.debug_loc+0xbd4>
     7d4:	00000000 	nop
     7d8:	00000000 	nop
     7dc:	00000434 	teq	zero,zero,0x10
     7e0:	00000438 	0x438
     7e4:	386d0001 	xori	t5,v1,0x1
     7e8:	5c000004 	bgtzl	zero,7fc <.debug_loc+0x7fc>
     7ec:	02000004 	sllv	zero,zero,s0
     7f0:	00088d00 	sll	s1,t0,0x14
     7f4:	00000000 	nop
     7f8:	34000000 	li	zero,0x0
     7fc:	48000004 	mfc2	zero,$0,4
     800:	01000004 	sllv	zero,zero,t0
     804:	00005500 	sll	t2,zero,0x14
     808:	00000000 	nop
     80c:	04440000 	0x4440000
     810:	04540000 	0x4540000
     814:	00010000 	sll	zero,at,0x0
     818:	00000052 	mflhxu	zero
     81c:	00000000 	nop
     820:	00045c00 	sll	t3,a0,0x10
     824:	00046000 	sll	t4,a0,0x0
     828:	6d000100 	0x6d000100
     82c:	00000460 	0x460
     830:	00000488 	0x488
     834:	088d0002 	j	2340008 <tty_printf+0x233f89c>
     838:	00000000 	nop
     83c:	00000000 	nop
     840:	0000045c 	0x45c
     844:	00000470 	tge	zero,zero,0x11
     848:	00540001 	movf	zero,v0,$fcc5
     84c:	00000000 	nop
     850:	6c000000 	0x6c000000
     854:	80000004 	lb	zero,4(zero)
     858:	01000004 	sllv	zero,zero,t0
     85c:	00005200 	sll	t2,zero,0x8
     860:	00000000 	nop
     864:	04880000 	tgei	a0,0
     868:	048c0000 	teqi	a0,0
     86c:	00010000 	sll	zero,at,0x0
     870:	00048c6d 	0x48c6d
     874:	0004b400 	sll	s6,a0,0x10
     878:	8d000200 	lw	zero,512(t0)
     87c:	00000008 	jr	zero
     880:	00000000 	nop
     884:	00048800 	sll	s1,a0,0x0
     888:	00049c00 	sll	s3,a0,0x10
     88c:	54000100 	bnezl	zero,c90 <.debug_loc+0xc90>
     890:	00000000 	nop
     894:	00000000 	nop
     898:	00000498 	0x498
     89c:	000004ac 	0x4ac
     8a0:	00520001 	0x520001
     8a4:	00000000 	nop
     8a8:	b4000000 	0xb4000000
     8ac:	b8000004 	swr	zero,4(zero)
     8b0:	01000004 	sllv	zero,zero,t0
     8b4:	04b86d00 	0x4b86d00
     8b8:	04e00000 	bltz	a3,8bc <.debug_loc+0x8bc>
     8bc:	00020000 	sll	zero,v0,0x0
     8c0:	0000088d 	break	0x0,0x22
     8c4:	00000000 	nop
     8c8:	04b40000 	0x4b40000
     8cc:	04c40000 	0x4c40000
     8d0:	00010000 	sll	zero,at,0x0
     8d4:	00000054 	0x54
     8d8:	00000000 	nop
     8dc:	0004c000 	sll	t8,a0,0x0
     8e0:	0004d800 	sll	k1,a0,0x0
     8e4:	52000100 	beqzl	s0,ce8 <.debug_loc+0xce8>
     8e8:	00000000 	nop
     8ec:	00000000 	nop
     8f0:	000004e0 	0x4e0
     8f4:	000004e4 	0x4e4
     8f8:	e46d0001 	swc1	$f13,1(v1)
     8fc:	0c000004 	jal	10 <.debug_loc+0x10>
     900:	02000005 	0x2000005
     904:	00088d00 	sll	s1,t0,0x14
     908:	00000000 	nop
     90c:	e0000000 	sc	zero,0(zero)
     910:	f4000004 	sdc1	$f0,4(zero)
     914:	01000004 	sllv	zero,zero,t0
     918:	00005400 	sll	t2,zero,0x10
     91c:	00000000 	nop
     920:	04f00000 	bltzal	a3,924 <.debug_loc+0x924>
     924:	05040000 	0x5040000
     928:	00010000 	sll	zero,at,0x0
     92c:	00000052 	mflhxu	zero
     930:	00000000 	nop
     934:	00050c00 	sll	at,a1,0x10
     938:	00051000 	sll	v0,a1,0x0
     93c:	6d000100 	0x6d000100
     940:	00000510 	0x510
     944:	00000538 	0x538
     948:	088d0002 	j	2340008 <tty_printf+0x233f89c>
     94c:	00000000 	nop
     950:	00000000 	nop
     954:	0000050c 	syscall	0x14
     958:	00000520 	0x520
     95c:	00540001 	movf	zero,v0,$fcc5
     960:	00000000 	nop
     964:	1c000000 	bgtz	zero,968 <.debug_loc+0x968>
     968:	30000005 	andi	zero,zero,0x5
     96c:	01000005 	0x1000005
     970:	00005200 	sll	t2,zero,0x8
     974:	00000000 	nop
     978:	05380000 	0x5380000
     97c:	053c0000 	0x53c0000
     980:	00010000 	sll	zero,at,0x0
     984:	00053c6d 	0x53c6d
     988:	00056400 	sll	t4,a1,0x10
     98c:	8d000200 	lw	zero,512(t0)
     990:	00000008 	jr	zero
     994:	00000000 	nop
     998:	00053800 	sll	a3,a1,0x0
     99c:	00054c00 	sll	t1,a1,0x10
     9a0:	54000100 	bnezl	zero,da4 <.debug_loc+0xda4>
     9a4:	00000000 	nop
     9a8:	00000000 	nop
     9ac:	00000548 	0x548
     9b0:	0000055c 	0x55c
     9b4:	00520001 	0x520001
     9b8:	00000000 	nop
     9bc:	64000000 	0x64000000
     9c0:	68000005 	0x68000005
     9c4:	01000005 	0x1000005
     9c8:	05686d00 	tgei	t3,27904
     9cc:	05900000 	bltzal	t4,9d0 <.debug_loc+0x9d0>
     9d0:	00020000 	sll	zero,v0,0x0
     9d4:	0000088d 	break	0x0,0x22
     9d8:	00000000 	nop
     9dc:	05640000 	0x5640000
     9e0:	05780000 	0x5780000
     9e4:	00010000 	sll	zero,at,0x0
     9e8:	00000054 	0x54
     9ec:	00000000 	nop
     9f0:	00057400 	sll	t6,a1,0x10
     9f4:	00058800 	sll	s1,a1,0x0
     9f8:	52000100 	beqzl	s0,dfc <.debug_loc+0xdfc>
     9fc:	00000000 	nop
     a00:	00000000 	nop
     a04:	00000590 	0x590
     a08:	00000594 	0x594
     a0c:	946d0001 	lhu	t5,1(v1)
     a10:	bc000005 	cache	0x0,5(zero)
     a14:	02000005 	0x2000005
     a18:	00088d00 	sll	s1,t0,0x14
     a1c:	00000000 	nop
     a20:	90000000 	lbu	zero,0(zero)
     a24:	a4000005 	sh	zero,5(zero)
     a28:	01000005 	0x1000005
     a2c:	00005400 	sll	t2,zero,0x10
     a30:	00000000 	nop
     a34:	05a00000 	bltz	t5,a38 <.debug_loc+0xa38>
     a38:	05b40000 	0x5b40000
     a3c:	00010000 	sll	zero,at,0x0
     a40:	00000052 	mflhxu	zero
     a44:	00000000 	nop
     a48:	0005bc00 	sll	s7,a1,0x10
     a4c:	0005c000 	sll	t8,a1,0x0
     a50:	6d000100 	0x6d000100
     a54:	000005c0 	sll	zero,zero,0x17
     a58:	000005e8 	0x5e8
     a5c:	088d0002 	j	2340008 <tty_printf+0x233f89c>
     a60:	00000000 	nop
     a64:	00000000 	nop
     a68:	000005bc 	0x5bc
     a6c:	000005d0 	0x5d0
     a70:	00540001 	movf	zero,v0,$fcc5
     a74:	00000000 	nop
     a78:	cc000000 	pref	0x0,0(zero)
     a7c:	e0000005 	sc	zero,5(zero)
     a80:	01000005 	0x1000005
     a84:	00005200 	sll	t2,zero,0x8
     a88:	00000000 	nop
     a8c:	05e80000 	tgei	t7,0
     a90:	05ec0000 	teqi	t7,0
     a94:	00010000 	sll	zero,at,0x0
     a98:	0005ec6d 	0x5ec6d
     a9c:	00061400 	sll	v0,a2,0x10
     aa0:	8d000200 	lw	zero,512(t0)
     aa4:	00000008 	jr	zero
     aa8:	00000000 	nop
     aac:	0005e800 	sll	sp,a1,0x0
     ab0:	0005fc00 	sll	ra,a1,0x10
     ab4:	54000100 	bnezl	zero,eb8 <.debug_loc+0xeb8>
     ab8:	00000000 	nop
     abc:	00000000 	nop
     ac0:	000005f8 	0x5f8
     ac4:	0000060c 	syscall	0x18
     ac8:	00520001 	0x520001
     acc:	00000000 	nop
     ad0:	14000000 	bnez	zero,ad4 <.debug_loc+0xad4>
     ad4:	18000006 	blez	zero,af0 <.debug_loc+0xaf0>
     ad8:	01000006 	srlv	zero,zero,t0
     adc:	06186d00 	0x6186d00
     ae0:	06400000 	bltz	s2,ae4 <.debug_loc+0xae4>
     ae4:	00020000 	sll	zero,v0,0x0
     ae8:	0000088d 	break	0x0,0x22
     aec:	00000000 	nop
     af0:	06140000 	0x6140000
     af4:	06280000 	tgei	s1,0
     af8:	00010000 	sll	zero,at,0x0
     afc:	00000054 	0x54
     b00:	00000000 	nop
     b04:	00062400 	sll	a0,a2,0x10
     b08:	00063800 	sll	a3,a2,0x0
     b0c:	52000100 	beqzl	s0,f10 <.debug_loc+0xf10>
     b10:	00000000 	nop
     b14:	00000000 	nop
     b18:	00000640 	sll	zero,zero,0x19
     b1c:	00000644 	0x644
     b20:	446d0001 	0x446d0001
     b24:	6c000006 	0x6c000006
     b28:	02000006 	srlv	zero,zero,s0
     b2c:	00088d00 	sll	s1,t0,0x14
     b30:	00000000 	nop
     b34:	40000000 	mfc0	zero,c0_index
     b38:	54000006 	bnezl	zero,b54 <.debug_loc+0xb54>
     b3c:	01000006 	srlv	zero,zero,t0
     b40:	00005400 	sll	t2,zero,0x10
     b44:	00000000 	nop
     b48:	06500000 	bltzal	s2,b4c <.debug_loc+0xb4c>
     b4c:	06640000 	0x6640000
     b50:	00010000 	sll	zero,at,0x0
     b54:	00000052 	mflhxu	zero
     b58:	00000000 	nop
     b5c:	00066c00 	sll	t5,a2,0x10
     b60:	00067000 	sll	t6,a2,0x0
     b64:	6d000100 	0x6d000100
     b68:	00000670 	tge	zero,zero,0x19
     b6c:	00000698 	0x698
     b70:	088d0002 	j	2340008 <tty_printf+0x233f89c>
     b74:	00000000 	nop
     b78:	00000000 	nop
     b7c:	0000066c 	0x66c
     b80:	00000680 	sll	zero,zero,0x1a
     b84:	00540001 	movf	zero,v0,$fcc5
     b88:	00000000 	nop
     b8c:	7c000000 	0x7c000000
     b90:	90000006 	lbu	zero,6(zero)
     b94:	01000006 	srlv	zero,zero,t0
     b98:	00005200 	sll	t2,zero,0x8
     b9c:	00000000 	nop
     ba0:	06980000 	0x6980000
     ba4:	069c0000 	0x69c0000
     ba8:	00010000 	sll	zero,at,0x0
     bac:	00069c6d 	0x69c6d
     bb0:	0006c400 	sll	t8,a2,0x10
     bb4:	8d000200 	lw	zero,512(t0)
     bb8:	00000008 	jr	zero
     bbc:	00000000 	nop
     bc0:	0006a400 	sll	s4,a2,0x10
     bc4:	0006bc00 	sll	s7,a2,0x10
     bc8:	52000100 	beqzl	s0,fcc <.debug_loc+0xfcc>
     bcc:	00000000 	nop
     bd0:	00000000 	nop
     bd4:	000006c4 	0x6c4
     bd8:	000006c8 	0x6c8
     bdc:	c86d0001 	lwc2	$13,1(v1)
     be0:	ec000006 	swc3	$0,6(zero)
     be4:	02000006 	srlv	zero,zero,s0
     be8:	00088d00 	sll	s1,t0,0x14
     bec:	00000000 	nop
     bf0:	d0000000 	0xd0000000
     bf4:	e4000006 	swc1	$f0,6(zero)
     bf8:	01000006 	srlv	zero,zero,t0
     bfc:	00005200 	sll	t2,zero,0x8
     c00:	00000000 	nop
     c04:	06ec0000 	teqi	s7,0
     c08:	06f00000 	bltzal	s7,c0c <.debug_loc+0xc0c>
     c0c:	00010000 	sll	zero,at,0x0
     c10:	0006f06d 	0x6f06d
     c14:	00071400 	sll	v0,a3,0x10
     c18:	8d000200 	lw	zero,512(t0)
     c1c:	00000008 	jr	zero
     c20:	00000000 	nop
     c24:	0006f800 	sll	ra,a2,0x0
     c28:	00070c00 	sll	at,a3,0x10
     c2c:	52000100 	beqzl	s0,1030 <.debug_loc+0x1030>
     c30:	00000000 	nop
     c34:	00000000 	nop
     c38:	00000714 	0x714
     c3c:	00000718 	0x718
     c40:	186d0001 	0x186d0001
     c44:	6c000007 	0x6c000007
     c48:	02000007 	srav	zero,zero,s0
     c4c:	00088d00 	sll	s1,t0,0x14
     c50:	00000000 	nop
     c54:	20000000 	addi	zero,zero,0
     c58:	3c000007 	lui	zero,0x7
     c5c:	01000007 	srav	zero,zero,t0
     c60:	00005200 	sll	t2,zero,0x8
     c64:	00000000 	nop
     c68:	076c0000 	teqi	k1,0
     c6c:	07700000 	bltzal	k1,c70 <.debug_loc+0xc70>
     c70:	00010000 	sll	zero,at,0x0
     c74:	0007706d 	0x7706d
     c78:	000ab000 	sll	s6,t2,0x0
     c7c:	8d000300 	lw	zero,768(t0)
     c80:	000000c0 	sll	zero,zero,0x3
     c84:	00000000 	nop
     c88:	076c0000 	teqi	k1,0
     c8c:	07c80000 	tgei	s8,0
     c90:	00010000 	sll	zero,at,0x0
     c94:	0007c854 	0x7c854
     c98:	0007f400 	sll	s8,a3,0x10
     c9c:	62000100 	0x62000100
     ca0:	000007f4 	teq	zero,zero,0x1f
     ca4:	00000828 	0x828
     ca8:	28610001 	slti	at,v1,1
     cac:	4c000008 	0x4c000008
     cb0:	01000008 	jr	t0
     cb4:	084c6200 	j	1318800 <tty_printf+0x1318094>
     cb8:	08500000 	j	1400000 <tty_printf+0x13ff894>
     cbc:	00010000 	sll	zero,at,0x0
     cc0:	00085c61 	0x85c61
     cc4:	00089800 	sll	s3,t0,0x0
     cc8:	61000100 	0x61000100
     ccc:	00000898 	0x898
     cd0:	000008b8 	0x8b8
     cd4:	b8620001 	swr	v0,1(v1)
     cd8:	64000008 	0x64000008
     cdc:	01000009 	jalr	zero,t0
     ce0:	09646100 	j	5918400 <tty_printf+0x5917c94>
     ce4:	099c0000 	j	6700000 <tty_printf+0x66ff894>
     ce8:	00010000 	sll	zero,at,0x0
     cec:	00099c62 	0x99c62
     cf0:	0009c000 	sll	t8,t1,0x0
     cf4:	61000100 	0x61000100
     cf8:	000009c0 	sll	at,zero,0x7
     cfc:	000009c8 	0x9c8
     d00:	c8620001 	lwc2	$2,1(v1)
     d04:	80000009 	lb	zero,9(zero)
     d08:	0100000a 	movz	zero,t0,zero
     d0c:	0a806100 	j	a018400 <tty_printf+0xa017c94>
     d10:	0a880000 	j	a200000 <tty_printf+0xa1ff894>
     d14:	00010000 	sll	zero,at,0x0
     d18:	000a8862 	0xa8862
     d1c:	000a9000 	sll	s2,t2,0x0
     d20:	61000100 	0x61000100
     d24:	00000a90 	0xa90
     d28:	00000a98 	0xa98
     d2c:	98620001 	lwr	v0,1(v1)
     d30:	a000000a 	sb	zero,10(zero)
     d34:	0100000a 	movz	zero,t0,zero
     d38:	0aa06100 	j	a818400 <tty_printf+0xa817c94>
     d3c:	0aa80000 	j	aa00000 <tty_printf+0xa9ff894>
     d40:	00010000 	sll	zero,at,0x0
     d44:	000aa862 	0xaa862
     d48:	000aa800 	sll	s5,t2,0x0
     d4c:	61000100 	0x61000100
     d50:	00000aa8 	0xaa8
     d54:	00000ab0 	tge	zero,zero,0x2a
     d58:	00620001 	0x620001
     d5c:	00000000 	nop
     d60:	dc000000 	ldc3	$0,0(zero)
     d64:	f4000007 	sdc1	$f0,7(zero)
     d68:	01000007 	srav	zero,zero,t0
     d6c:	08286000 	j	a18000 <tty_printf+0xa17894>
     d70:	08540000 	j	1500000 <tty_printf+0x14ff894>
     d74:	00010000 	sll	zero,at,0x0
     d78:	0008a460 	0x8a460
     d7c:	00094c00 	sll	t1,t1,0x10
     d80:	60000100 	0x60000100
     d84:	0000094c 	syscall	0x25
     d88:	00000964 	0x964
     d8c:	64530001 	0x64530001
     d90:	18000009 	blez	zero,db8 <.debug_loc+0xdb8>
     d94:	0100000a 	movz	zero,t0,zero
     d98:	0a186000 	j	8618000 <tty_printf+0x8617894>
     d9c:	0a200000 	j	8800000 <tty_printf+0x87ff894>
     da0:	00010000 	sll	zero,at,0x0
     da4:	000a2052 	0xa2052
     da8:	000a6c00 	sll	t5,t2,0x10
     dac:	60000100 	0x60000100
     db0:	00000a6c 	0xa6c
     db4:	00000a74 	teq	zero,zero,0x29
     db8:	74520001 	jalx	1480004 <tty_printf+0x147f898>
     dbc:	8000000a 	lb	zero,10(zero)
     dc0:	0100000a 	movz	zero,t0,zero
     dc4:	0a886000 	j	a218000 <tty_printf+0xa217894>
     dc8:	0a900000 	j	a400000 <tty_printf+0xa3ff894>
     dcc:	00010000 	sll	zero,at,0x0
     dd0:	000a9860 	0xa9860
     dd4:	000aa000 	sll	s4,t2,0x0
     dd8:	60000100 	0x60000100
     ddc:	00000aa8 	0xaa8
     de0:	00000ab0 	tge	zero,zero,0x2a
     de4:	00600001 	movf	zero,v1,$fcc0
     de8:	00000000 	nop
     dec:	dc000000 	ldc3	$0,0(zero)
     df0:	f4000007 	sdc1	$f0,7(zero)
     df4:	01000007 	srav	zero,zero,t0
     df8:	08286000 	j	a18000 <tty_printf+0xa17894>
     dfc:	08540000 	j	1500000 <tty_printf+0x14ff894>
     e00:	00010000 	sll	zero,at,0x0
     e04:	00096060 	0x96060
     e08:	00099c00 	sll	s3,t1,0x10
     e0c:	60000100 	0x60000100
     e10:	00000a80 	sll	at,zero,0xa
     e14:	00000a88 	0xa88
     e18:	90600001 	lbu	zero,1(v1)
     e1c:	9800000a 	lwr	zero,10(zero)
     e20:	0100000a 	movz	zero,t0,zero
     e24:	0aa06000 	j	a818000 <tty_printf+0xa817894>
     e28:	0aa80000 	j	aa00000 <tty_printf+0xa9ff894>
     e2c:	00010000 	sll	zero,at,0x0
     e30:	00000060 	0x60
     e34:	00000000 	nop
     e38:	00096400 	sll	t4,t1,0x10
     e3c:	00097400 	sll	t6,t1,0x10
     e40:	56000100 	bnezl	s0,1244 <.debug_loc+0x1244>
     e44:	000009a8 	0x9a8
     e48:	000009c8 	0x9c8
     e4c:	00560001 	0x560001
     e50:	00000000 	nop
     e54:	08000000 	j	0 <.debug_loc>
     e58:	64000009 	0x64000009
     e5c:	01000009 	jalr	zero,t0
     e60:	09645600 	j	5915800 <tty_printf+0x5915094>
     e64:	097c0000 	j	5f00000 <tty_printf+0x5eff894>
     e68:	00010000 	sll	zero,at,0x0
     e6c:	0009f858 	0x9f858
     e70:	000a8800 	sll	s1,t2,0x0
     e74:	58000100 	blezl	zero,1278 <.debug_loc+0x1278>
     e78:	00000a98 	0xa98
     e7c:	00000aa8 	0xaa8
     e80:	00580001 	movf	zero,v0,$fcc6
     e84:	00000000 	nop
     e88:	f0000000 	0xf0000000
     e8c:	04000009 	bltz	zero,eb4 <.debug_loc+0xeb4>
     e90:	0100000a 	movz	zero,t0,zero
     e94:	0a385200 	j	8e14800 <tty_printf+0x8e14094>
     e98:	0a3c0000 	j	8f00000 <tty_printf+0x8eff894>
     e9c:	00010000 	sll	zero,at,0x0
     ea0:	00000052 	mflhxu	zero
     ea4:	00000000 	nop
     ea8:	0009e800 	sll	sp,t1,0x0
     eac:	000a1000 	sll	v0,t2,0x0
     eb0:	54000100 	bnezl	zero,12b4 <.debug_loc+0x12b4>
     eb4:	00000a38 	0xa38
     eb8:	00000a64 	0xa64
     ebc:	00540001 	movf	zero,v0,$fcc5
     ec0:	00000000 	nop
     ec4:	d0000000 	0xd0000000
     ec8:	34000007 	li	zero,0x7
     ecc:	01000008 	jr	t0
     ed0:	085c6e00 	j	171b800 <tty_printf+0x171b094>
     ed4:	0a040000 	j	8100000 <tty_printf+0x80ff894>
     ed8:	00010000 	sll	zero,at,0x0
     edc:	000a046e 	0xa046e
     ee0:	000a1c00 	sll	v1,t2,0x10
     ee4:	55000100 	bnezl	t0,12e8 <.debug_loc+0x12e8>
     ee8:	00000a1c 	0xa1c
     eec:	00000a4c 	syscall	0x29
     ef0:	4c6e0001 	0x4c6e0001
     ef4:	7000000a 	0x7000000a
     ef8:	0100000a 	movz	zero,t0,zero
     efc:	0a705500 	j	9c15400 <tty_printf+0x9c14c94>
     f00:	0ab00000 	j	ac00000 <tty_printf+0xabff894>
     f04:	00010000 	sll	zero,at,0x0
     f08:	0000006e 	0x6e
     f0c:	00000000 	nop
     f10:	0009e400 	sll	gp,t1,0x10
     f14:	000a0c00 	sll	at,t2,0x10
     f18:	56000100 	bnezl	s0,131c <.debug_loc+0x131c>
     f1c:	00000a38 	0xa38
     f20:	00000a60 	0xa60
     f24:	00560001 	0x560001
     f28:	00000000 	nop
     f2c:	f4000000 	sdc1	$f0,0(zero)
     f30:	fc000009 	sdc3	$0,9(zero)
     f34:	01000009 	jalr	zero,t0
     f38:	00005700 	sll	t2,zero,0x1c
     f3c:	00000000 	nop
     f40:	08dc0000 	j	3700000 <tty_printf+0x36ff894>
     f44:	08f40000 	j	3d00000 <tty_printf+0x3cff894>
     f48:	00010000 	sll	zero,at,0x0
     f4c:	00000052 	mflhxu	zero
     f50:	00000000 	nop
     f54:	0008e000 	sll	gp,t0,0x0
     f58:	0008f400 	sll	s8,t0,0x10
     f5c:	54000100 	bnezl	zero,1360 <.debug_loc+0x1360>
     f60:	00000000 	nop
     f64:	00000000 	nop
     f68:	000008e4 	0x8e4
     f6c:	000008f0 	tge	zero,zero,0x23
     f70:	00550001 	movt	zero,v0,$fcc5
     f74:	00000000 	nop
     f78:	e4000000 	swc1	$f0,0(zero)
     f7c:	00000008 	jr	zero
     f80:	01000009 	jalr	zero,t0
     f84:	00005600 	sll	t2,zero,0x18
     f88:	00000000 	nop
     f8c:	08e80000 	j	3a00000 <tty_printf+0x39ff894>
     f90:	09100000 	j	4400000 <tty_printf+0x43ff894>
     f94:	00010000 	sll	zero,at,0x0
     f98:	00000057 	0x57
     f9c:	00000000 	nop
     fa0:	0008fc00 	sll	ra,t0,0x10
     fa4:	00092c00 	sll	a1,t1,0x10
     fa8:	52000100 	beqzl	s0,13ac <.debug_loc+0x13ac>
     fac:	00000000 	nop
     fb0:	00000000 	nop
     fb4:	000008f4 	teq	zero,zero,0x23
     fb8:	00000918 	0x918
     fbc:	00540001 	movf	zero,v0,$fcc5
     fc0:	00000000 	nop
     fc4:	f0000000 	0xf0000000
     fc8:	0c000008 	jal	20 <.debug_loc+0x20>
     fcc:	01000009 	jalr	zero,t0
     fd0:	00005500 	sll	t2,zero,0x14
     fd4:	00000000 	nop
     fd8:	09000000 	j	4000000 <tty_printf+0x3fff894>
     fdc:	09080000 	j	4200000 <tty_printf+0x41ff894>
     fe0:	00010000 	sll	zero,at,0x0
     fe4:	00000056 	0x56
     fe8:	00000000 	nop
     fec:	00090400 	sll	zero,t1,0x10
     ff0:	00091000 	sll	v0,t1,0x0
     ff4:	57000100 	bnezl	t8,13f8 <.debug_loc+0x13f8>
     ff8:	00000000 	nop
     ffc:	00000000 	nop
    1000:	00000968 	0x968
    1004:	00000980 	sll	at,zero,0x6
    1008:	00520001 	0x520001
    100c:	00000000 	nop
    1010:	6c000000 	0x6c000000
    1014:	80000009 	lb	zero,9(zero)
    1018:	01000009 	jalr	zero,t0
    101c:	00005400 	sll	t2,zero,0x10
    1020:	00000000 	nop
    1024:	09700000 	j	5c00000 <tty_printf+0x5bff894>
    1028:	09840000 	j	6100000 <tty_printf+0x60ff894>
    102c:	00010000 	sll	zero,at,0x0
    1030:	00000055 	0x55
    1034:	00000000 	nop
    1038:	00097400 	sll	t6,t1,0x10
    103c:	00098800 	sll	s1,t1,0x0
    1040:	56000100 	bnezl	s0,1444 <tty_printf+0xcd8>
    1044:	00000000 	nop
    1048:	00000000 	nop
    104c:	000007dc 	0x7dc
    1050:	0000086c 	0x86c
    1054:	90570001 	lbu	s7,1(v0)
    1058:	e8000008 	swc2	$0,8(zero)
    105c:	01000008 	jr	t0
    1060:	09045700 	j	4115c00 <tty_printf+0x4115494>
    1064:	09100000 	j	4400000 <tty_printf+0x43ff894>
    1068:	00010000 	sll	zero,at,0x0
    106c:	00096457 	0x96457
    1070:	0009dc00 	sll	k1,t1,0x10
    1074:	57000100 	bnezl	t8,1478 <tty_printf+0xd0c>
    1078:	00000a88 	0xa88
    107c:	00000a98 	0xa98
    1080:	a8570001 	swl	s7,1(v0)
    1084:	b000000a 	0xb000000a
    1088:	0100000a 	movz	zero,t0,zero
    108c:	00005700 	sll	t2,zero,0x1c
    1090:	00000000 	nop
    1094:	07dc0000 	0x7dc0000
    1098:	07f00000 	bltzal	ra,109c <.debug_loc+0x109c>
    109c:	00010000 	sll	zero,at,0x0
    10a0:	00082852 	0x82852
    10a4:	00083000 	sll	a2,t0,0x0
    10a8:	52000100 	beqzl	s0,14ac <tty_printf+0xd40>
    10ac:	0000098c 	syscall	0x26
    10b0:	0000099c 	0x99c
    10b4:	00520001 	0x520001
    10b8:	00000000 	nop
    10bc:	80000000 	lb	zero,0(zero)
    10c0:	94000009 	lhu	zero,9(zero)
    10c4:	01000009 	jalr	zero,t0
    10c8:	00005400 	sll	t2,zero,0x10
    10cc:	00000000 	nop
    10d0:	07dc0000 	0x7dc0000
    10d4:	08640000 	j	1900000 <tty_printf+0x18ff894>
    10d8:	00010000 	sll	zero,at,0x0
    10dc:	00089055 	0x89055
    10e0:	0008e400 	sll	gp,t0,0x10
    10e4:	55000100 	bnezl	t0,14e8 <tty_printf+0xd7c>
    10e8:	00000904 	0x904
    10ec:	0000090c 	syscall	0x24
    10f0:	64550001 	0x64550001
    10f4:	70000009 	0x70000009
    10f8:	01000009 	jalr	zero,t0
    10fc:	09845500 	j	6115400 <tty_printf+0x6114c94>
    1100:	09d40000 	j	7500000 <tty_printf+0x74ff894>
    1104:	00010000 	sll	zero,at,0x0
    1108:	000a8855 	0xa8855
    110c:	000a9800 	sll	s3,t2,0x0
    1110:	55000100 	bnezl	t0,1514 <tty_printf+0xda8>
    1114:	00000aa8 	0xaa8
    1118:	00000ab0 	tge	zero,zero,0x2a
    111c:	00550001 	movt	zero,v0,$fcc5
    1120:	00000000 	nop
    1124:	dc000000 	ldc3	$0,0(zero)
    1128:	68000007 	0x68000007
    112c:	01000008 	jr	t0
    1130:	08905600 	j	2415800 <tty_printf+0x2415094>
    1134:	08e40000 	j	3900000 <tty_printf+0x38ff894>
    1138:	00010000 	sll	zero,at,0x0
    113c:	00090456 	0x90456
    1140:	00090800 	sll	at,t1,0x0
    1144:	56000100 	bnezl	s0,1548 <tty_printf+0xddc>
    1148:	00000964 	0x964
    114c:	00000974 	teq	zero,zero,0x25
    1150:	88560001 	lwl	s6,1(v0)
    1154:	a8000009 	swl	zero,9(zero)
    1158:	01000009 	jalr	zero,t0
    115c:	09c85600 	j	7215800 <tty_printf+0x7215094>
    1160:	09d80000 	j	7600000 <tty_printf+0x75ff894>
    1164:	00010000 	sll	zero,at,0x0
    1168:	000a8856 	0xa8856
    116c:	000a9800 	sll	s3,t2,0x0
    1170:	56000100 	bnezl	s0,1574 <tty_printf+0xe08>
    1174:	00000aa8 	0xaa8
    1178:	00000ab0 	tge	zero,zero,0x2a
    117c:	00560001 	0x560001
    1180:	00000000 	nop
    1184:	dc000000 	ldc3	$0,0(zero)
    1188:	6c000007 	0x6c000007
    118c:	01000008 	jr	t0
    1190:	08905700 	j	2415c00 <tty_printf+0x2415494>
    1194:	08e80000 	j	3a00000 <tty_printf+0x39ff894>
    1198:	00010000 	sll	zero,at,0x0
    119c:	00090457 	0x90457
    11a0:	00091000 	sll	v0,t1,0x0
    11a4:	57000100 	bnezl	t8,15a8 <tty_printf+0xe3c>
    11a8:	00000964 	0x964
    11ac:	00000978 	0x978
    11b0:	90570001 	lbu	s7,1(v0)
    11b4:	dc000009 	ldc3	$0,9(zero)
    11b8:	01000009 	jalr	zero,t0
    11bc:	0a885700 	j	a215c00 <tty_printf+0xa215494>
    11c0:	0a980000 	j	a600000 <tty_printf+0xa5ff894>
    11c4:	00010000 	sll	zero,at,0x0
    11c8:	000aa857 	0xaa857
    11cc:	000ab000 	sll	s6,t2,0x0
    11d0:	57000100 	bnezl	t8,15d4 <tty_printf+0xe68>
    11d4:	00000000 	nop
    11d8:	00000000 	nop
    11dc:	000009cc 	syscall	0x27
    11e0:	000009e8 	0x9e8
    11e4:	00520001 	0x520001
    11e8:	00000000 	nop
    11ec:	d0000000 	0xd0000000
    11f0:	e8000009 	swc2	$0,9(zero)
    11f4:	01000009 	jalr	zero,t0
    11f8:	00005400 	sll	t2,zero,0x10
    11fc:	00000000 	nop
    1200:	09d40000 	j	7500000 <tty_printf+0x74ff894>
    1204:	09ec0000 	j	7b00000 <tty_printf+0x7aff894>
    1208:	00010000 	sll	zero,at,0x0
    120c:	00000055 	0x55
    1210:	00000000 	nop
    1214:	0009d800 	sll	k1,t1,0x0
    1218:	0009e400 	sll	gp,t1,0x10
    121c:	56000100 	bnezl	s0,1620 <tty_printf+0xeb4>
    1220:	00000000 	nop
    1224:	00000000 	nop
    1228:	000009dc 	0x9dc
    122c:	000009fc 	0x9fc
    1230:	00570001 	0x570001
    1234:	00000000 	nop
    1238:	e4000000 	swc1	$f0,0(zero)
    123c:	54000007 	bnezl	zero,125c <.debug_loc+0x125c>
    1240:	01000008 	jr	t0
    1244:	085c6000 	j	1718000 <tty_printf+0x1717894>
    1248:	08a40000 	j	2900000 <tty_printf+0x28ff894>
    124c:	00010000 	sll	zero,at,0x0
    1250:	00000060 	0x60
    1254:	00000000 	nop
    1258:	0007e400 	sll	gp,a3,0x10
    125c:	0007f000 	sll	s8,a3,0x0
    1260:	52000100 	beqzl	s0,1664 <tty_printf+0xef8>
    1264:	00000820 	add	at,zero,zero
    1268:	00000830 	tge	zero,zero,0x20
    126c:	80520001 	lb	s2,1(v0)
    1270:	a4000008 	sh	zero,8(zero)
    1274:	01000008 	jr	t0
    1278:	00005200 	sll	t2,zero,0x8
    127c:	00000000 	nop
    1280:	08740000 	j	1d00000 <tty_printf+0x1cff894>
    1284:	08880000 	j	2200000 <tty_printf+0x21ff894>
    1288:	00010000 	sll	zero,at,0x0
    128c:	00000054 	0x54
    1290:	00000000 	nop
    1294:	0007dc00 	sll	k1,a3,0x10
    1298:	00086400 	sll	t4,t0,0x10
    129c:	55000100 	bnezl	t0,16a0 <tty_printf+0xf34>
    12a0:	00000878 	0x878
    12a4:	000008e4 	0x8e4
    12a8:	04550001 	0x4550001
    12ac:	0c000009 	jal	24 <.debug_loc+0x24>
    12b0:	01000009 	jalr	zero,t0
    12b4:	09645500 	j	5915400 <tty_printf+0x5914c94>
    12b8:	09700000 	j	5c00000 <tty_printf+0x5bff894>
    12bc:	00010000 	sll	zero,at,0x0
    12c0:	00099055 	0x99055
    12c4:	0009d400 	sll	k0,t1,0x10
    12c8:	55000100 	bnezl	t0,16cc <tty_printf+0xf60>
    12cc:	00000a88 	0xa88
    12d0:	00000a98 	0xa98
    12d4:	a8550001 	swl	s5,1(v0)
    12d8:	b000000a 	0xb000000a
    12dc:	0100000a 	movz	zero,t0,zero
    12e0:	00005500 	sll	t2,zero,0x14
    12e4:	00000000 	nop
    12e8:	07dc0000 	0x7dc0000
    12ec:	08680000 	j	1a00000 <tty_printf+0x19ff894>
    12f0:	00010000 	sll	zero,at,0x0
    12f4:	00087c56 	0x87c56
    12f8:	0008e400 	sll	gp,t0,0x10
    12fc:	56000100 	bnezl	s0,1700 <tty_printf+0xf94>
    1300:	00000904 	0x904
    1304:	00000908 	0x908
    1308:	64560001 	0x64560001
    130c:	74000009 	jalx	24 <.debug_loc+0x24>
    1310:	01000009 	jalr	zero,t0
    1314:	09905600 	j	6415800 <tty_printf+0x6415094>
    1318:	09a80000 	j	6a00000 <tty_printf+0x69ff894>
    131c:	00010000 	sll	zero,at,0x0
    1320:	0009c856 	0x9c856
    1324:	0009d800 	sll	k1,t1,0x0
    1328:	56000100 	bnezl	s0,172c <tty_printf+0xfc0>
    132c:	00000a88 	0xa88
    1330:	00000a98 	0xa98
    1334:	a8560001 	swl	s6,1(v0)
    1338:	b000000a 	0xb000000a
    133c:	0100000a 	movz	zero,t0,zero
    1340:	00005600 	sll	t2,zero,0x18
    1344:	00000000 	nop
    1348:	07dc0000 	0x7dc0000
    134c:	086c0000 	j	1b00000 <tty_printf+0x1aff894>
    1350:	00010000 	sll	zero,at,0x0
    1354:	00088457 	0x88457
    1358:	0008e800 	sll	sp,t0,0x0
    135c:	57000100 	bnezl	t8,1760 <tty_printf+0xff4>
    1360:	00000904 	0x904
    1364:	00000910 	0x910
    1368:	64570001 	0x64570001
    136c:	78000009 	0x78000009
    1370:	01000009 	jalr	zero,t0
    1374:	09905700 	j	6415c00 <tty_printf+0x6415494>
    1378:	09dc0000 	j	7700000 <tty_printf+0x76ff894>
    137c:	00010000 	sll	zero,at,0x0
    1380:	000a8857 	0xa8857
    1384:	000a9800 	sll	s3,t2,0x0
    1388:	57000100 	bnezl	t8,178c <tty_printf+0x1020>
    138c:	00000aa8 	0xaa8
    1390:	00000ab0 	tge	zero,zero,0x2a
    1394:	00570001 	0x570001
    1398:	00000000 	nop
    139c:	60000000 	0x60000000
    13a0:	74000008 	jalx	20 <.debug_loc+0x20>
    13a4:	01000008 	jr	t0
    13a8:	00005200 	sll	t2,zero,0x8
    13ac:	00000000 	nop
    13b0:	08640000 	j	1900000 <tty_printf+0x18ff894>
    13b4:	08740000 	j	1d00000 <tty_printf+0x1cff894>
    13b8:	00010000 	sll	zero,at,0x0
    13bc:	00000054 	0x54
    13c0:	00000000 	nop
    13c4:	00086400 	sll	t4,t0,0x10
    13c8:	00087800 	sll	t7,t0,0x0
    13cc:	55000100 	bnezl	t0,17d0 <tty_printf+0x1064>
    13d0:	00000000 	nop
    13d4:	00000000 	nop
    13d8:	00000868 	0x868
    13dc:	0000087c 	0x87c
    13e0:	00560001 	0x560001
    13e4:	00000000 	nop
    13e8:	dc000000 	ldc3	$0,0(zero)
    13ec:	e8000007 	swc2	$0,7(zero)
    13f0:	01000008 	jr	t0
    13f4:	09045700 	j	4115c00 <tty_printf+0x4115494>
    13f8:	09100000 	j	4400000 <tty_printf+0x43ff894>
    13fc:	00010000 	sll	zero,at,0x0
    1400:	00096457 	0x96457
    1404:	00097800 	sll	t7,t1,0x0
    1408:	57000100 	bnezl	t8,180c <tty_printf+0x10a0>
    140c:	00000990 	0x990
    1410:	000009dc 	0x9dc
    1414:	88570001 	lwl	s7,1(v0)
    1418:	9800000a 	lwr	zero,10(zero)
    141c:	0100000a 	movz	zero,t0,zero
    1420:	0aa85700 	j	aa15c00 <tty_printf+0xaa15494>
    1424:	0ab00000 	j	ac00000 <tty_printf+0xabff894>
    1428:	00010000 	sll	zero,at,0x0
    142c:	00000057 	0x57
    1430:	00000000 	nop
	...

Disassembly of section .debug_pubnames:

00000000 <.debug_pubnames>:
   0:	00000200 	sll	zero,zero,0x8
   4:	00000002 	srl	zero,zero,0x0
   8:	18980000 	0x18980000
   c:	01a40000 	0x1a40000
  10:	79730000 	0x79730000
  14:	61635f73 	0x61635f73
  18:	0f006c6c 	jal	c01b1b0 <tty_printf+0xc01aa44>
  1c:	70000002 	mul	zero,zero,zero
  20:	69636f72 	0x69636f72
  24:	02810064 	0x2810064
  28:	72700000 	madd	s3,s0
  2c:	6974636f 	0x6974636f
  30:	fa00656d 	sdc2	$0,25965(s0)
  34:	65000002 	0x65000002
  38:	00746978 	0x746978
  3c:	000003d7 	0x3d7
  40:	5f797474 	0x5f797474
  44:	73747570 	0x73747570
  48:	0004e400 	sll	gp,a0,0x10
  4c:	79747400 	0x79747400
  50:	7475705f 	jalx	1d5c17c <tty_printf+0x1d5ba10>
  54:	05d50063 	0x5d50063
  58:	74740000 	jalx	1d00000 <tty_printf+0x1cff894>
  5c:	75705f79 	jalx	5c17de4 <tty_printf+0x5c17678>
  60:	e6007774 	swc1	$f0,30580(s0)
  64:	74000006 	jalx	18 <.debug_pubnames+0x18>
  68:	675f7974 	0x675f7974
  6c:	00737465 	0x737465
  70:	000007dc 	0x7dc
  74:	5f797474 	0x5f797474
  78:	63746567 	0x63746567
  7c:	0008cd00 	sll	t9,t0,0x14
  80:	79747400 	0x79747400
  84:	7465675f 	jalx	1959d7c <tty_printf+0x1959610>
  88:	09f90077 	j	7e401dc <tty_printf+0x7e3fa70>
  8c:	69740000 	0x69740000
  90:	5f72656d 	0x5f72656d
  94:	5f746573 	0x5f746573
  98:	65646f6d 	0x65646f6d
  9c:	000a8b00 	sll	s1,t2,0xc
  a0:	6d697400 	0x6d697400
  a4:	735f7265 	0x735f7265
  a8:	705f7465 	0x705f7465
  ac:	6f697265 	0x6f697265
  b0:	0b1d0064 	j	c740190 <tty_printf+0xc73fa24>
  b4:	69740000 	0x69740000
  b8:	5f72656d 	0x5f72656d
  bc:	65736572 	0x65736572
  c0:	72695f74 	0x72695f74
  c4:	0ba70071 	j	e9c01c4 <tty_printf+0xe9bfa58>
  c8:	69740000 	0x69740000
  cc:	5f72656d 	0x5f72656d
  d0:	5f746567 	0x5f746567
  d4:	656d6974 	0x656d6974
  d8:	000c3900 	sll	a3,t4,0x4
  dc:	64636700 	0x64636700
  e0:	7465735f 	jalx	195cd7c <tty_printf+0x195c610>
  e4:	61706f5f 	0x61706f5f
  e8:	000cbd00 	sll	s7,t4,0x14
  ec:	64636700 	0x64636700
  f0:	7465735f 	jalx	195cd7c <tty_printf+0x195c610>
  f4:	62706f5f 	0x62706f5f
  f8:	000d4100 	sll	t0,t5,0x4
  fc:	64636700 	0x64636700
 100:	6174735f 	0x6174735f
 104:	cd007472 	pref	0x0,29810(t0)
 108:	6700000d 	0x6700000d
 10c:	675f6463 	0x675f6463
 110:	735f7465 	0x735f7465
 114:	75746174 	jalx	5d185d0 <tty_printf+0x5d17e64>
 118:	0e510073 	jal	94401cc <tty_printf+0x943fa60>
 11c:	63670000 	0x63670000
 120:	65675f64 	0x65675f64
 124:	65725f74 	0x65725f74
 128:	746c7573 	jalx	1b1d5cc <tty_printf+0x1b1ce60>
 12c:	000ed500 	sll	k0,t6,0x14
 130:	75636900 	jalx	58da400 <tty_printf+0x58d9c94>
 134:	7465735f 	jalx	195cd7c <tty_printf+0x195c610>
 138:	73616d5f 	0x73616d5f
 13c:	0f59006b 	jal	d6401ac <tty_printf+0xd63fa40>
 140:	63690000 	0x63690000
 144:	6c635f75 	0x6c635f75
 148:	5f726165 	0x5f726165
 14c:	6b73616d 	0x6b73616d
 150:	000fdd00 	sll	k1,t7,0x14
 154:	75636900 	jalx	58da400 <tty_printf+0x58d9c94>
 158:	7465675f 	jalx	1959d7c <tty_printf+0x1959610>
 15c:	73616d5f 	0x73616d5f
 160:	1061006b 	beq	v1,at,310 <tty_getw+0x34>
 164:	63690000 	0x63690000
 168:	65675f75 	0x65675f75
 16c:	72695f74 	0x72695f74
 170:	e5007371 	swc1	$f0,29553(t0)
 174:	69000010 	0x69000010
 178:	675f7563 	0x675f7563
 17c:	695f7465 	0x695f7465
 180:	7865646e 	0x7865646e
 184:	00116900 	sll	t5,s1,0x4
 188:	616d6400 	0x616d6400
 18c:	7465735f 	jalx	195cd7c <tty_printf+0x195c610>
 190:	756f735f 	jalx	5bdcd7c <tty_printf+0x5bdc610>
 194:	00656372 	tlt	v1,a1,0x18d
 198:	000011ed 	0x11ed
 19c:	5f616d64 	0x5f616d64
 1a0:	5f746573 	0x5f746573
 1a4:	74736564 	jalx	1cd9590 <tty_printf+0x1cd8e24>
 1a8:	00126f00 	sll	t5,s2,0x1c
 1ac:	616d6400 	0x616d6400
 1b0:	7465735f 	jalx	195cd7c <tty_printf+0x195c610>
 1b4:	6e656c5f 	0x6e656c5f
 1b8:	00687467 	0x687467
 1bc:	000012f3 	tltu	zero,zero,0x4b
 1c0:	5f616d64 	0x5f616d64
 1c4:	65736572 	0x65736572
 1c8:	136e0074 	beq	k1,t6,39c <tty_getw+0xc0>
 1cc:	6f6c0000 	0x6f6c0000
 1d0:	675f6b63 	0x675f6b63
 1d4:	f8007465 	sdc2	$0,29797(zero)
 1d8:	6c000013 	0x6c000013
 1dc:	5f6b636f 	0x5f6b636f
 1e0:	656c6572 	0x656c6572
 1e4:	00657361 	0x657361
 1e8:	00001482 	srl	v0,zero,0x12
 1ec:	646e6172 	0x646e6172
 1f0:	0014f000 	sll	s8,s4,0x0
 1f4:	79747400 	0x79747400
 1f8:	6972705f 	0x6972705f
 1fc:	0066746e 	0x66746e
 200:	00000000 	nop

Disassembly of section .debug_aranges:

00000000 <.debug_aranges>:
   0:	0000001c 	0x1c
   4:	00000002 	srl	zero,zero,0x0
   8:	00040000 	sll	zero,a0,0x0
	...
  14:	00000ab0 	tge	zero,zero,0x2a
	...

Disassembly of section .debug_ranges:

00000000 <.debug_ranges>:
   0:	00000184 	0x184
   4:	000001a0 	0x1a0
   8:	000001a8 	0x1a8
   c:	000001b0 	tge	zero,zero,0x6
	...
  18:	00000184 	0x184
  1c:	000001a0 	0x1a0
  20:	000001a8 	0x1a8
  24:	000001b0 	tge	zero,zero,0x6
	...
  30:	00000184 	0x184
  34:	000001a0 	0x1a0
  38:	000001a8 	0x1a8
  3c:	000001b0 	tge	zero,zero,0x6
	...
  48:	00000330 	tge	zero,zero,0xc
  4c:	00000334 	teq	zero,zero,0xc
  50:	00000338 	0x338
  54:	00000348 	0x348
	...
  60:	00000330 	tge	zero,zero,0xc
  64:	00000334 	teq	zero,zero,0xc
  68:	00000338 	0x338
  6c:	00000348 	0x348
	...
  78:	000003c0 	sll	zero,zero,0xf
  7c:	000003c4 	0x3c4
  80:	000003c8 	0x3c8
  84:	000003d8 	0x3d8
	...
  90:	000003c0 	sll	zero,zero,0xf
  94:	000003c4 	0x3c4
  98:	000003c8 	0x3c8
  9c:	000003d8 	0x3d8
	...
  a8:	000003e8 	0x3e8
  ac:	000003ec 	0x3ec
  b0:	000003f0 	tge	zero,zero,0xf
  b4:	00000400 	sll	zero,zero,0x10
	...
  c0:	000003e8 	0x3e8
  c4:	000003ec 	0x3ec
  c8:	000003f0 	tge	zero,zero,0xf
  cc:	00000400 	sll	zero,zero,0x10
	...
  d8:	00000438 	0x438
  dc:	0000043c 	0x43c
  e0:	00000440 	sll	zero,zero,0x11
  e4:	00000450 	0x450
	...
  f0:	00000438 	0x438
  f4:	0000043c 	0x43c
  f8:	00000440 	sll	zero,zero,0x11
  fc:	00000450 	0x450
	...
 108:	00000460 	0x460
 10c:	00000464 	0x464
 110:	00000468 	0x468
 114:	0000047c 	0x47c
	...
 120:	00000460 	0x460
 124:	00000464 	0x464
 128:	00000468 	0x468
 12c:	0000047c 	0x47c
	...
 138:	0000048c 	syscall	0x12
 13c:	00000490 	0x490
 140:	00000494 	0x494
 144:	000004a8 	0x4a8
	...
 150:	0000048c 	syscall	0x12
 154:	00000490 	0x490
 158:	00000494 	0x494
 15c:	000004a8 	0x4a8
	...
 168:	000004e4 	0x4e4
 16c:	000004e8 	0x4e8
 170:	000004ec 	0x4ec
 174:	00000500 	sll	zero,zero,0x14
	...
 180:	000004e4 	0x4e4
 184:	000004e8 	0x4e8
 188:	000004ec 	0x4ec
 18c:	00000500 	sll	zero,zero,0x14
	...
 198:	00000510 	0x510
 19c:	00000514 	0x514
 1a0:	00000518 	0x518
 1a4:	0000052c 	0x52c
	...
 1b0:	00000510 	0x510
 1b4:	00000514 	0x514
 1b8:	00000518 	0x518
 1bc:	0000052c 	0x52c
	...
 1c8:	0000053c 	0x53c
 1cc:	00000540 	sll	zero,zero,0x15
 1d0:	00000544 	0x544
 1d4:	00000558 	0x558
	...
 1e0:	0000053c 	0x53c
 1e4:	00000540 	sll	zero,zero,0x15
 1e8:	00000544 	0x544
 1ec:	00000558 	0x558
	...
 1f8:	00000568 	0x568
 1fc:	0000056c 	0x56c
 200:	00000570 	tge	zero,zero,0x15
 204:	00000584 	0x584
	...
 210:	00000568 	0x568
 214:	0000056c 	0x56c
 218:	00000570 	tge	zero,zero,0x15
 21c:	00000584 	0x584
	...
 228:	00000594 	0x594
 22c:	00000598 	0x598
 230:	0000059c 	0x59c
 234:	000005b0 	tge	zero,zero,0x16
	...
 240:	00000594 	0x594
 244:	00000598 	0x598
 248:	0000059c 	0x59c
 24c:	000005b0 	tge	zero,zero,0x16
	...
 258:	000005c0 	sll	zero,zero,0x17
 25c:	000005c4 	0x5c4
 260:	000005c8 	0x5c8
 264:	000005dc 	0x5dc
	...
 270:	000005c0 	sll	zero,zero,0x17
 274:	000005c4 	0x5c4
 278:	000005c8 	0x5c8
 27c:	000005dc 	0x5dc
	...
 288:	000005ec 	0x5ec
 28c:	000005f0 	tge	zero,zero,0x17
 290:	000005f4 	teq	zero,zero,0x17
 294:	00000608 	0x608
	...
 2a0:	000005ec 	0x5ec
 2a4:	000005f0 	tge	zero,zero,0x17
 2a8:	000005f4 	teq	zero,zero,0x17
 2ac:	00000608 	0x608
	...
 2b8:	00000618 	0x618
 2bc:	0000061c 	0x61c
 2c0:	00000620 	0x620
 2c4:	00000634 	teq	zero,zero,0x18
	...
 2d0:	00000618 	0x618
 2d4:	0000061c 	0x61c
 2d8:	00000620 	0x620
 2dc:	00000634 	teq	zero,zero,0x18
	...
 2e8:	00000644 	0x644
 2ec:	00000648 	0x648
 2f0:	0000064c 	syscall	0x19
 2f4:	00000660 	0x660
	...
 300:	00000644 	0x644
 304:	00000648 	0x648
 308:	0000064c 	syscall	0x19
 30c:	00000660 	0x660
	...
 318:	00000670 	tge	zero,zero,0x19
 31c:	00000674 	teq	zero,zero,0x19
 320:	00000678 	0x678
 324:	0000068c 	syscall	0x1a
	...
 330:	00000670 	tge	zero,zero,0x19
 334:	00000674 	teq	zero,zero,0x19
 338:	00000678 	0x678
 33c:	0000068c 	syscall	0x1a
	...
 348:	00000778 	0x778
 34c:	0000077c 	0x77c
 350:	00000898 	0x898
 354:	00000ab0 	tge	zero,zero,0x2a
 358:	00000890 	0x890
 35c:	00000894 	0x894
 360:	000007b4 	teq	zero,zero,0x1e
 364:	000007d4 	0x7d4
	...
 370:	000007bc 	0x7bc
 374:	000007c4 	0x7c4
 378:	000009e0 	0x9e0
 37c:	00000a04 	0xa04
 380:	000007cc 	syscall	0x1f
 384:	000007d0 	0x7d0
	...
 390:	000007bc 	0x7bc
 394:	000007c4 	0x7c4
 398:	000009e0 	0x9e0
 39c:	00000a04 	0xa04
 3a0:	000007cc 	syscall	0x1f
 3a4:	000007d0 	0x7d0
	...
 3b0:	000007d4 	0x7d4
 3b4:	000007dc 	0x7dc
 3b8:	00000894 	0x894
 3bc:	00000898 	0x898
 3c0:	0000085c 	0x85c
 3c4:	00000890 	0x890
 3c8:	000007f4 	teq	zero,zero,0x1f
 3cc:	00000820 	add	at,zero,zero
	...

Disassembly of section .debug_str:

00000000 <.debug_str>:
   0:	64726f77 	0x64726f77
   4:	44434700 	0x44434700
   8:	4154535f 	0x4154535f
   c:	47005452 	c1	0x1005452
  10:	4f5f4443 	c3	0x15f4443
  14:	47004150 	c1	0x1004150
  18:	4f5f4443 	c3	0x15f4443
  1c:	67004250 	0x67004250
  20:	675f6463 	0x675f6463
  24:	735f7465 	0x735f7465
  28:	75746174 	jalx	5d185d0 <tty_printf+0x5d17e64>
  2c:	79730073 	0x79730073
  30:	61635f73 	0x61635f73
  34:	69006c6c 	0x69006c6c
  38:	675f7563 	0x675f7563
  3c:	6d5f7465 	0x6d5f7465
  40:	006b7361 	0x6b7361
  44:	5f554349 	0x5f554349
  48:	4b53414d 	c2	0x153414d
  4c:	5445535f 	bnel	v0,a1,14dcc <tty_printf+0x14660>
  50:	44434700 	0x44434700
  54:	4154535f 	0x4154535f
  58:	00535554 	0x535554
  5c:	6c636f53 	0x6c636f53
  60:	69506269 	0x69506269
  64:	67655263 	0x67655263
  68:	65747369 	0x65747369
  6c:	64007372 	0x64007372
  70:	735f616d 	0x735f616d
  74:	6c5f7465 	0x6c5f7465
  78:	74676e65 	jalx	19db994 <tty_printf+0x19db228>
  7c:	63690068 	0x63690068
  80:	65675f75 	0x65675f75
  84:	72695f74 	0x72695f74
  88:	67007371 	0x67007371
  8c:	735f6463 	0x735f6463
  90:	6f5f7465 	0x6f5f7465
  94:	67006170 	0x67006170
  98:	735f6463 	0x735f6463
  9c:	6f5f7465 	0x6f5f7465
  a0:	72006270 	0x72006270
  a4:	615f6765 	0x615f6765
  a8:	65720030 	0x65720030
  ac:	6f6e5f67 	0x6f6e5f67
  b0:	646e615f 	0x646e615f
  b4:	74756f5f 	jalx	1d5bd7c <tty_printf+0x1d5b610>
  b8:	00747570 	tge	v1,s4,0x1d5
  bc:	6c5f6176 	0x6c5f6176
  c0:	00747369 	0x747369
  c4:	5f756369 	0x5f756369
  c8:	5f746573 	0x5f746573
  cc:	6b73616d 	0x6b73616d
  d0:	414d4400 	0x414d4400
  d4:	4e454c5f 	c3	0x454c5f
  d8:	67726100 	0x67726100
  dc:	6100305f 	0x6100305f
  e0:	315f6772 	andi	ra,t2,0x6772
  e4:	67726100 	0x67726100
  e8:	6100325f 	0x6100325f
  ec:	335f6772 	andi	ra,k0,0x6772
  f0:	67657200 	0x67657200
  f4:	0031615f 	0x31615f
  f8:	5f676572 	0x5f676572
  fc:	72003261 	0x72003261
 100:	615f6765 	0x615f6765
 104:	72700033 	0x72700033
 108:	6469636f 	0x6469636f
 10c:	75636900 	jalx	58da400 <tty_printf+0x58d9c94>
 110:	7465675f 	jalx	1959d7c <tty_printf+0x1959610>
 114:	646e695f 	0x646e695f
 118:	64007865 	0x64007865
 11c:	735f616d 	0x735f616d
 120:	645f7465 	0x645f7465
 124:	00747365 	0x747365
 128:	5f554349 	0x5f554349
 12c:	00544e49 	0x544e49
 130:	5f554349 	0x5f554349
 134:	4b53414d 	c2	0x153414d
 138:	454c435f 	0x454c435f
 13c:	74005241 	jalx	14904 <tty_printf+0x14198>
 140:	705f7974 	0x705f7974
 144:	00637475 	0x637475
 148:	6d726f66 	0x6d726f66
 14c:	70007461 	0x70007461
 150:	00667562 	0x667562
 154:	5f797474 	0x5f797474
 158:	73747570 	0x73747570
 15c:	72747300 	0x72747300
 160:	00676e69 	0x676e69
 164:	636f7270 	0x636f7270
 168:	656d6974 	0x656d6974
 16c:	79747400 	0x79747400
 170:	646e695f 	0x646e695f
 174:	64007865 	0x64007865
 178:	725f616d 	0x725f616d
 17c:	74657365 	jalx	195cd94 <tty_printf+0x195c628>
 180:	616d6400 	0x616d6400
 184:	7465735f 	jalx	195cd7c <tty_printf+0x195c610>
 188:	756f735f 	jalx	5bdcd7c <tty_printf+0x5bdc610>
 18c:	00656372 	tlt	v1,a1,0x18d
 190:	65747962 	0x65747962
 194:	69786500 	0x69786500
 198:	752f0074 	jalx	4bc01d0 <tty_printf+0x4bbfa64>
 19c:	73726573 	0x73726573
 1a0:	6f61632f 	0x6f61632f
 1a4:	616c612f 	0x616c612f
 1a8:	752f6e69 	jalx	4bdb9a4 <tty_printf+0x4bdb238>
 1ac:	6f735f65 	0x6f735f65
 1b0:	62696c63 	0x62696c63
 1b4:	3470742f 	ori	s0,v1,0x742f
 1b8:	666f732f 	0x666f732f
 1bc:	6f530074 	0x6f530074
 1c0:	62696c63 	0x62696c63
 1c4:	5264634c 	beql	s3,a0,18ef8 <tty_printf+0x1878c>
 1c8:	73696765 	0x73696765
 1cc:	73726574 	0x73726574
 1d0:	6e656c00 	0x6e656c00
 1d4:	00687467 	0x687467
 1d8:	4c436f53 	0x4c436f53
 1dc:	6d446269 	0x6d446269
 1e0:	67655261 	0x67655261
 1e4:	65747369 	0x65747369
 1e8:	6c007372 	0x6c007372
 1ec:	5f6b636f 	0x5f6b636f
 1f0:	00746567 	0x746567
 1f4:	69736e75 	0x69736e75
 1f8:	64656e67 	0x64656e67
 1fc:	61686320 	0x61686320
 200:	4e470072 	c3	0x470072
 204:	20432055 	addi	v1,v0,8277
 208:	2e332e34 	sltiu	s3,s1,11828
 20c:	672d2033 	0x672d2033
 210:	636f5300 	0x636f5300
 214:	5462696c 	bnel	v1,v0,1a7c8 <tty_printf+0x1a05c>
 218:	72656d69 	0x72656d69
 21c:	69676552 	0x69676552
 220:	72657473 	0x72657473
 224:	6e750073 	0x6e750073
 228:	6e676973 	0x6e676973
 22c:	69206465 	0x69206465
 230:	5400746e 	bnezl	zero,1d3ec <tty_printf+0x1cc80>
 234:	52454d49 	beql	s2,a1,1375c <tty_printf+0x12ff0>
 238:	5245505f 	beql	s2,a1,143b8 <tty_printf+0x13c4c>
 23c:	00444f49 	0x444f49
 240:	656d6974 	0x656d6974
 244:	65675f72 	0x65675f72
 248:	69745f74 	0x69745f74
 24c:	4900656d 	bc2f	19804 <tty_printf+0x19098>
 250:	495f5543 	0x495f5543
 254:	45565f54 	0x45565f54
 258:	524f5443 	beql	s2,t7,15368 <tty_printf+0x14bfc>
 25c:	6d697400 	0x6d697400
 260:	6f6c0065 	0x6f6c0065
 264:	725f6b63 	0x725f6b63
 268:	61656c65 	0x61656c65
 26c:	70006573 	0x70006573
 270:	746e6972 	jalx	1b9a5c8 <tty_printf+0x1b99e5c>
 274:	65745f66 	0x65745f66
 278:	74007478 	jalx	1d1e0 <tty_printf+0x1ca74>
 27c:	705f7974 	0x705f7974
 280:	00777475 	0x777475
 284:	656d6974 	0x656d6974
 288:	6e695f72 	0x6e695f72
 28c:	00786564 	0x786564
 290:	72616863 	0x72616863
 294:	4d495400 	0x4d495400
 298:	535f5245 	beql	k0,ra,14bb0 <tty_printf+0x14444>
 29c:	004e4150 	0x4e4150
 2a0:	61786548 	0x61786548
 2a4:	00626154 	0x626154
 2a8:	5f444347 	0x5f444347
 2ac:	4e415053 	c3	0x415053
 2b0:	66756200 	0x66756200
 2b4:	00726566 	0x726566
 2b8:	5f756369 	0x5f756369
 2bc:	61656c63 	0x61656c63
 2c0:	616d5f72 	0x616d5f72
 2c4:	6c006b73 	0x6c006b73
 2c8:	5f6b636f 	0x5f6b636f
 2cc:	65646e69 	0x65646e69
 2d0:	74730078 	jalx	1cc01e0 <tty_printf+0x1cbfa74>
 2d4:	2e6f6964 	sltiu	t7,s3,26980
 2d8:	69740063 	0x69740063
 2dc:	5f72656d 	0x5f72656d
 2e0:	5f746573 	0x5f746573
 2e4:	65646f6d 	0x65646f6d
 2e8:	55434900 	bnel	t2,v1,126ec <tty_printf+0x11f80>
 2ec:	53414d5f 	beql	k0,at,1386c <tty_printf+0x13100>
 2f0:	6163004b 	0x6163004b
 2f4:	6e5f6c6c 	0x6e5f6c6c
 2f8:	5f5f006f 	0x5f5f006f
 2fc:	6c697562 	0x6c697562
 300:	5f6e6974 	0x5f6e6974
 304:	6c5f6176 	0x6c5f6176
 308:	00747369 	0x747369
 30c:	73667562 	0x73667562
 310:	00657a69 	0x657a69
 314:	656d6974 	0x656d6974
 318:	65725f72 	0x65725f72
 31c:	5f746573 	0x5f746573
 320:	00717269 	0x717269
 324:	5f797474 	0x5f797474
 328:	6e697270 	0x6e697270
 32c:	74006674 	jalx	199d0 <tty_printf+0x19264>
 330:	675f7974 	0x675f7974
 334:	00637465 	0x637465
 338:	646e6172 	0x646e6172
 33c:	414d4400 	0x414d4400
 340:	4352535f 	c0	0x152535f
 344:	4d495400 	0x4d495400
 348:	565f5245 	bnel	s2,ra,14c60 <tty_printf+0x144f4>
 34c:	45554c41 	0x45554c41
 350:	64636700 	0x64636700
 354:	7465675f 	jalx	1959d7c <tty_printf+0x1959610>
 358:	7365725f 	0x7365725f
 35c:	00746c75 	0x746c75
 360:	6e675f5f 	0x6e675f5f
 364:	765f6375 	jalx	97d8dd4 <tty_printf+0x97d8668>
 368:	696c5f61 	0x696c5f61
 36c:	74007473 	jalx	1d1cc <tty_printf+0x1ca60>
 370:	675f7974 	0x675f7974
 374:	00737465 	0x737465
 378:	5f797474 	0x5f797474
 37c:	77746567 	jalx	dd1959c <tty_printf+0xdd18e30>
 380:	414d4400 	0x414d4400
 384:	5453445f 	bnel	v0,s3,11504 <tty_printf+0x10d98>
 388:	6d697400 	0x6d697400
 38c:	735f7265 	0x735f7265
 390:	705f7465 	0x705f7465
 394:	6f697265 	0x6f697265
 398:	72700064 	0x72700064
 39c:	66746e69 	0x66746e69
 3a0:	6772615f 	0x6772615f
 3a4:	6e656d75 	0x6e656d75
 3a8:	44007374 	0x44007374
 3ac:	4d5f414d 	0x4d5f414d
 3b0:	0045444f 	0x45444f
 3b4:	5f414d44 	0x5f414d44
 3b8:	45534552 	0x45534552
 3bc:	49540054 	0x49540054
 3c0:	5f52454d 	0x5f52454d
 3c4:	45534552 	0x45534552
 3c8:	51524954 	beql	t2,s2,1291c <tty_printf+0x121b0>
 3cc:	4d495400 	0x4d495400
 3d0:	4d5f5245 	0x4d5f5245
 3d4:	0045444f 	0x45444f
 3d8:	5f646367 	0x5f646367
 3dc:	72617473 	0x72617473
 3e0:	Address 0x00000000000003e0 is out of bounds.


Disassembly of section .comment:

00000000 <.comment>:
   0:	43434700 	c0	0x1434700
   4:	4728203a 	c1	0x128203a
   8:	2029554e 	addi	t1,at,21838
   c:	2e332e34 	sltiu	s3,s1,11828
  10:	Address 0x0000000000000010 is out of bounds.


Disassembly of section .gnu.attributes:

00000000 <.gnu.attributes>:
   0:	00000f41 	0xf41
   4:	756e6700 	jalx	5b99c00 <tty_printf+0x5b99494>
   8:	00070100 	sll	zero,a3,0x4
   c:	01040000 	0x1040000
