
syscalls.o:     file format elf32-littlemips


Disassembly of section .reginfo:

00000000 <.reginfo>:
   0:	a00007fc 	sb	zero,2044(zero)
	...

Disassembly of section .pdr:

00000000 <.pdr>:
	...
  18:	0000001d 	0x1d
  1c:	0000001f 	0x1f
	...
  38:	0000001d 	0x1d
  3c:	0000001f 	0x1f
	...
  58:	0000001d 	0x1d
  5c:	0000001f 	0x1f
	...
  78:	0000001d 	0x1d
  7c:	0000001f 	0x1f
	...
  98:	0000001d 	0x1d
  9c:	0000001f 	0x1f
	...
  b8:	0000001d 	0x1d
  bc:	0000001f 	0x1f
	...
  d4:	00000028 	0x28
  d8:	0000001d 	0x1d
  dc:	0000001f 	0x1f
	...
  f8:	0000001d 	0x1d
  fc:	0000001f 	0x1f
	...
 118:	0000001d 	0x1d
 11c:	0000001f 	0x1f
	...
 138:	0000001d 	0x1d
 13c:	0000001f 	0x1f
	...
 158:	0000001d 	0x1d
 15c:	0000001f 	0x1f
	...
 178:	0000001d 	0x1d
 17c:	0000001f 	0x1f
	...
 198:	0000001d 	0x1d
 19c:	0000001f 	0x1f
	...
 1b8:	0000001d 	0x1d
 1bc:	0000001f 	0x1f
	...
 1d8:	0000001d 	0x1d
 1dc:	0000001f 	0x1f

Disassembly of section .debug_abbrev:

00000000 <.debug_abbrev>:
   0:	25011101 	addiu	at,t0,4353
   4:	030b130e 	0x30b130e
   8:	110e1b0e 	beq	t0,t6,6c44 <_locks_read+0x6890>
   c:	55015201 	bnel	t0,at,14814 <_locks_read+0x14460>
  10:	00061006 	srlv	v0,a2,zero
  14:	01040200 	0x1040200
  18:	0b0b0e03 	j	c2c380c <_locks_read+0xc2c3458>
  1c:	0b3b0b3a 	j	cec2ce8 <_locks_read+0xcec2934>
  20:	00001301 	0x1301
  24:	03002803 	0x3002803
  28:	000d1c0e 	0xd1c0e
  2c:	012e0400 	0x12e0400
  30:	0e030c3f 	jal	80c30fc <_locks_read+0x80c2d48>
  34:	0b3b0b3a 	j	cec2ce8 <_locks_read+0xcec2934>
  38:	0b201349 	j	c804d24 <_locks_read+0xc804970>
  3c:	00001301 	0x1301
  40:	03003405 	0x3003405
  44:	3b0b3a08 	xori	t3,t8,0x3a08
  48:	0013490b 	0x13490b
  4c:	00240600 	0x240600
  50:	0b3e0b0b 	j	cf82c2c <_locks_read+0xcf82878>
  54:	00000803 	sra	at,zero,0x0
  58:	3f012e07 	0x3f012e07
  5c:	3a0e030c 	xori	t6,s0,0x30c
  60:	270b3b0b 	addiu	t3,t8,15115
  64:	2013490c 	addi	s3,zero,18700
  68:	0013010b 	0x13010b
  6c:	00050800 	sll	at,a1,0x0
  70:	0b3a0e03 	j	ce8380c <_locks_read+0xce83458>
  74:	13490b3b 	beq	k0,t1,2d64 <_locks_read+0x29b0>
  78:	34090000 	li	t1,0x0
  7c:	3a0e0300 	xori	t6,s0,0x300
  80:	490b3b0b 	bc2tl	$cc2,ecb0 <_locks_read+0xe8fc>
  84:	0a000013 	j	800004c <_locks_read+0x7fffc98>
  88:	0b0b000f 	j	c2c003c <_locks_read+0xc2bfc88>
  8c:	00001349 	0x1349
  90:	0b00240b 	j	c00902c <_locks_read+0xc008c78>
  94:	030b3e0b 	0x30b3e0b
  98:	0c00000e 	jal	38 <.debug_abbrev+0x38>
  9c:	13490035 	beq	k0,t1,174 <.debug_abbrev+0x174>
  a0:	2e0d0000 	sltiu	t5,s0,0
  a4:	11133101 	beq	t0,s3,c4ac <_locks_read+0xc0f8>
  a8:	81011201 	lb	at,4609(t0)
  ac:	0a400640 	j	9001900 <_locks_read+0x900154c>
  b0:	00001301 	0x1301
  b4:	3100340e 	andi	zero,t0,0x340e
  b8:	00060213 	0x60213
  bc:	012e0f00 	0x12e0f00
  c0:	0e030c3f 	jal	80c30fc <_locks_read+0x80c2d48>
  c4:	0b3b0b3a 	j	cec2ce8 <_locks_read+0xcec2934>
  c8:	13490c27 	beq	k0,t1,3168 <_locks_read+0x2db4>
  cc:	01120111 	0x1120111
  d0:	40064081 	0x40064081
  d4:	0013010a 	0x13010a
  d8:	00051000 	sll	v0,a1,0x0
  dc:	0b3a0e03 	j	ce8380c <_locks_read+0xce83458>
  e0:	13490b3b 	beq	k0,t1,2dd0 <_locks_read+0x2a1c>
  e4:	00000602 	srl	zero,zero,0x18
  e8:	03000511 	0x3000511
  ec:	3b0b3a0e 	xori	t3,t8,0x3a0e
  f0:	0213490b 	0x213490b
  f4:	1200000a 	beqz	s0,120 <.debug_abbrev+0x120>
  f8:	13310005 	beq	t9,s1,110 <.debug_abbrev+0x110>
  fc:	00000602 	srl	zero,zero,0x18
 100:	31000513 	andi	zero,t0,0x513
 104:	000a0213 	0xa0213
 108:	00341400 	0x341400
 10c:	00001331 	tgeu	zero,zero,0x4c
 110:	03003415 	0x3003415
 114:	3b0b3a0e 	xori	t3,t8,0x3a0e
 118:	0213490b 	0x213490b
 11c:	16000006 	bnez	s0,138 <.debug_abbrev+0x138>
 120:	08030034 	j	c00d0 <_locks_read+0xbfd1c>
 124:	0b3b0b3a 	j	cec2ce8 <_locks_read+0xcec2934>
 128:	06021349 	bltzl	s0,4e50 <_locks_read+0x4a9c>
 12c:	2e170000 	sltiu	s7,s0,0
 130:	030c3f01 	0x30c3f01
 134:	3b0b3a0e 	xori	t3,t8,0x3a0e
 138:	1113490b 	beq	t0,s3,12568 <_locks_read+0x121b4>
 13c:	81011201 	lb	at,4609(t0)
 140:	06400640 	bltz	s2,1a44 <_locks_read+0x1690>
 144:	00001301 	0x1301
 148:	03003418 	0x3003418
 14c:	3b0b3a08 	xori	t3,t8,0x3a08
 150:	0213490b 	0x213490b
 154:	1900000a 	blez	t0,180 <.debug_abbrev+0x180>
 158:	1331011d 	beq	t9,s1,5d0 <_locks_read+0x21c>
 15c:	0b580655 	j	d601954 <_locks_read+0xd6015a0>
 160:	13010b59 	beq	t8,at,2ec8 <_locks_read+0x2b14>
 164:	0b1a0000 	j	c680000 <_locks_read+0xc67fc4c>
 168:	00065501 	0x65501
 16c:	011d1b00 	0x11d1b00
 170:	06551331 	0x6551331
 174:	0b590b58 	j	d642d60 <_locks_read+0xd6429ac>
 178:	051c0000 	0x51c0000
 17c:	00133100 	sll	a2,s3,0x4
 180:	00341d00 	0x341d00
 184:	0a021331 	j	8084cc4 <_locks_read+0x8084910>
 188:	011e0000 	0x11e0000
 18c:	01134901 	0x1134901
 190:	1f000013 	bgtz	t8,1e0 <.debug_abbrev+0x1e0>
 194:	13490021 	beq	k0,t1,21c <.debug_abbrev+0x21c>
 198:	00000b2f 	0xb2f
 19c:	0b002420 	j	c009080 <_locks_read+0xc008ccc>
 1a0:	000b3e0b 	0xb3e0b
 1a4:	012e2100 	0x12e2100
 1a8:	0e030c3f 	jal	80c30fc <_locks_read+0x80c2d48>
 1ac:	053b0b3a 	0x53b0b3a
 1b0:	13490c27 	beq	k0,t1,3250 <_locks_read+0x2e9c>
 1b4:	01120111 	0x1120111
 1b8:	40064081 	0x40064081
 1bc:	0013010a 	0x13010a
 1c0:	00052200 	sll	a0,a1,0x8
 1c4:	0b3a0e03 	j	ce8380c <_locks_read+0xce83458>
 1c8:	1349053b 	beq	k0,t1,16b8 <_locks_read+0x1304>
 1cc:	00000a02 	srl	at,zero,0x8
 1d0:	03003423 	0x3003423
 1d4:	3b0b3a0e 	xori	t3,t8,0x3a0e
 1d8:	00134905 	0x134905
 1dc:	00342400 	0x342400
 1e0:	0b3a0803 	j	ce8200c <_locks_read+0xce81c58>
 1e4:	1349053b 	beq	k0,t1,16d4 <_locks_read+0x1320>
 1e8:	34250000 	ori	a1,at,0x0
 1ec:	3a0e0300 	xori	t6,s0,0x300
 1f0:	49053b0b 	bc2t	$cc1,ee20 <_locks_read+0xea6c>
 1f4:	00060213 	0x60213
 1f8:	00342600 	0x342600
 1fc:	0b3a0803 	j	ce8200c <_locks_read+0xce81c58>
 200:	1349053b 	beq	k0,t1,16f0 <_locks_read+0x133c>
 204:	00000602 	srl	zero,zero,0x18
 208:	31011d27 	andi	at,t0,0x1d27
 20c:	12011113 	beq	s0,at,465c <_locks_read+0x42a8>
 210:	590b5801 	0x590b5801
 214:	28000005 	slti	zero,zero,5
 218:	0111010b 	0x111010b
 21c:	00000112 	0x112
 220:	03001329 	0x3001329
 224:	000c3c0e 	0xc3c0e
 228:	00342a00 	0x342a00
 22c:	0b3a0e03 	j	ce8380c <_locks_read+0xce83458>
 230:	13490b3b 	beq	k0,t1,2f20 <_locks_read+0x2b6c>
 234:	0c3c0c3f 	jal	f030fc <_locks_read+0xf02d48>
 238:	Address 0x0000000000000238 is out of bounds.


Disassembly of section .debug_info:

00000000 <.debug_info>:
   0:	00000694 	0x694
   4:	00000002 	srl	zero,zero,0x0
   8:	01040000 	0x1040000
   c:	00000250 	0x250
  10:	00006a01 	0x6a01
  14:	0000e000 	sll	gp,zero,0x0
	...
  20:	00008000 	sll	s0,zero,0x0
  24:	00000000 	nop
  28:	01bb0200 	0x1bb0200
  2c:	02040000 	0x2040000
  30:	00004e04 	0x4e04
  34:	00550300 	0x550300
  38:	03000000 	0x3000000
  3c:	0000005f 	0x5f
  40:	014e0301 	0x14e0301
  44:	03020000 	0x3020000
  48:	0000018c 	syscall	0x6
  4c:	dd020004 	ldc3	$2,4(t0)
  50:	04000001 	bltz	zero,58 <.debug_info+0x58>
  54:	00790403 	0x790403
  58:	19030000 	0x19030000
  5c:	00000002 	srl	zero,zero,0x0
  60:	00027d03 	sra	t7,v0,0x14
  64:	43030100 	c0	0x1030100
  68:	02000002 	0x2000002
  6c:	00013f03 	sra	a3,at,0x1c
  70:	39030300 	xori	v1,t0,0x300
  74:	04000000 	bltz	zero,78 <.debug_info+0x78>
  78:	25010400 	addiu	at,t0,1024
  7c:	01000002 	0x1000002
  80:	00009629 	0x9629
  84:	00960000 	0x960000
  88:	72050000 	madd	s0,a1
  8c:	01007465 	0x1007465
  90:	0000962a 	0x962a
  94:	04060000 	0x4060000
  98:	746e6905 	jalx	1b9a414 <_locks_read+0x1b9a060>
  9c:	81010700 	lb	at,1792(t0)
  a0:	01000001 	movf	zero,t0,$fcc0
  a4:	00960164 	0x960164
  a8:	f0000000 	0xf0000000
  ac:	08000000 	j	0 <.debug_info>
  b0:	000000d0 	0xd0
  b4:	00966101 	0x966101
  b8:	12080000 	beq	s0,t0,bc <.debug_info+0xbc>
  bc:	01000002 	0x1000002
  c0:	0000f062 	0xf062
  c4:	026a0800 	0x26a0800
  c8:	63010000 	0x63010000
  cc:	00000096 	0x96
  d0:	0001a009 	0x1a009
  d4:	fd650100 	sdc3	$5,256(t3)
  d8:	05000000 	bltz	t0,dc <.debug_info+0xdc>
  dc:	0078616d 	0x78616d
  e0:	00966601 	0x966601
  e4:	69050000 	0x69050000
  e8:	96670100 	lhu	a3,256(s3)
  ec:	00000000 	nop
  f0:	00f6040a 	0xf6040a
  f4:	010b0000 	0x10b0000
  f8:	00017c06 	0x17c06
  fc:	03040a00 	0x3040a00
 100:	0c000001 	jal	4 <.debug_info+0x4>
 104:	000000f6 	tne	zero,zero,0x3
 108:	02880104 	0x2880104
 10c:	34010000 	li	at,0x0
 110:	00000096 	0x96
 114:	00012500 	sll	a0,at,0x14
 118:	65720500 	0x65720500
 11c:	35010074 	ori	at,t0,0x74
 120:	00000096 	0x96
 124:	00790d00 	0x790d00
 128:	00000000 	nop
 12c:	000c0000 	sll	zero,t4,0x0
 130:	00100000 	sll	zero,s0,0x0
 134:	6d010000 	0x6d010000
 138:	00000146 	0x146
 13c:	00008a0e 	0x8a0e
 140:	00000000 	nop
 144:	080d0000 	j	340000 <_locks_read+0x33fc4c>
 148:	0c000001 	jal	4 <.debug_info+0x4>
 14c:	18000000 	blez	zero,150 <.debug_info+0x150>
 150:	20000000 	addi	zero,zero,0
 154:	01000000 	0x1000000
 158:	0001676d 	0x1676d
 15c:	01190e00 	0x1190e00
 160:	00080000 	sll	zero,t0,0x0
 164:	0f000000 	jal	c000000 <_locks_read+0xbfffc4c>
 168:	0001f201 	0x1f201
 16c:	01400100 	0x1400100
 170:	00000096 	0x96
 174:	00000018 	mult	zero,zero
 178:	00000060 	0x60
 17c:	00000030 	tge	zero,zero
 180:	01c66d01 	0x1c66d01
 184:	1e100000 	0x1e100000
 188:	01000000 	0x1000000
 18c:	0000963d 	0x963d
 190:	00001b00 	sll	v1,zero,0xc
 194:	01ac1100 	0x1ac1100
 198:	3e010000 	0x3e010000
 19c:	00000096 	0x96
 1a0:	4f115501 	c3	0x1115501
 1a4:	01000000 	0x1000000
 1a8:	0000963f 	0x963f
 1ac:	09560100 	j	5580400 <_locks_read+0x558004c>
 1b0:	000001ff 	0x1ff
 1b4:	01c64101 	0x1c64101
 1b8:	6d050000 	0x6d050000
 1bc:	01007861 	0x1007861
 1c0:	00009642 	srl	s2,zero,0x19
 1c4:	040a0000 	tlti	zero,0
 1c8:	000001cc 	syscall	0x7
 1cc:	0000960c 	syscall	0x258
 1d0:	9b010f00 	lwr	at,3840(t8)
 1d4:	01000000 	0x1000000
 1d8:	00960152 	0x960152
 1dc:	00600000 	0x600000
 1e0:	00ac0000 	0xac0000
 1e4:	00400000 	0x400000
 1e8:	6d010000 	0x6d010000
 1ec:	00000230 	tge	zero,zero,0x8
 1f0:	00001e10 	0x1e10
 1f4:	964f0100 	lhu	t7,256(s2)
 1f8:	2e000000 	sltiu	zero,s0,0
 1fc:	11000000 	beqz	t0,200 <.debug_info+0x200>
 200:	000001ac 	0x1ac
 204:	00965001 	0x965001
 208:	55010000 	bnel	t0,at,20c <.debug_info+0x20c>
 20c:	00021211 	0x21211
 210:	30510100 	andi	s1,v0,0x100
 214:	01000002 	0x1000002
 218:	01ff0956 	0x1ff0956
 21c:	53010000 	beql	t8,at,220 <.debug_info+0x220>
 220:	000001c6 	0x1c6
 224:	78616d05 	0x78616d05
 228:	96540100 	lhu	s4,256(s2)
 22c:	00000000 	nop
 230:	0096040a 	0x96040a
 234:	9d0d0000 	0x9d0d0000
 238:	ac000000 	sw	zero,0(zero)
 23c:	00000000 	nop
 240:	50000001 	beqzl	zero,248 <.debug_info+0x248>
 244:	01000000 	0x1000000
 248:	00027c6d 	0x27c6d
 24c:	00af1200 	0xaf1200
 250:	00410000 	0x410000
 254:	ba130000 	swr	s3,0(s0)
 258:	01000000 	0x1000000
 25c:	00c51355 	0xc51355
 260:	56010000 	bnel	s0,at,264 <.debug_info+0x264>
 264:	0000d00e 	0xd00e
 268:	00005f00 	sll	t3,zero,0x1c
 26c:	00db1400 	0xdb1400
 270:	e60e0000 	swc1	$f14,0(s0)
 274:	72000000 	madd	s0,zero
 278:	00000000 	nop
 27c:	0157010f 	0x157010f
 280:	7e010000 	0x7e010000
 284:	00009601 	0x9601
 288:	00010000 	sll	zero,at,0x0
 28c:	0001a400 	sll	s4,at,0x10
 290:	00006000 	sll	t4,zero,0x0
 294:	fb6d0100 	sdc2	$13,256(k1)
 298:	10000002 	b	2a4 <.debug_info+0x2a4>
 29c:	000000d0 	0xd0
 2a0:	00967b01 	0x967b01
 2a4:	00850000 	0x850000
 2a8:	12110000 	beq	s0,s1,2ac <.debug_info+0x2ac>
 2ac:	01000002 	0x1000002
 2b0:	0000f07c 	0xf07c
 2b4:	11550100 	beq	t2,s5,6b8 <_locks_read+0x304>
 2b8:	0000026a 	0x26a
 2bc:	00967d01 	0x967d01
 2c0:	56010000 	bnel	s0,at,2c4 <.debug_info+0x2c4>
 2c4:	0001a015 	0x1a015
 2c8:	fd7f0100 	sdc3	$31,256(t3)
 2cc:	ae000000 	sw	zero,0(s0)
 2d0:	05000000 	bltz	t0,2d4 <.debug_info+0x2d4>
 2d4:	0078616d 	0x78616d
 2d8:	00968001 	0x968001
 2dc:	69160000 	0x69160000
 2e0:	96810100 	lhu	at,256(s4)
 2e4:	c1000000 	ll	zero,0(t0)
 2e8:	15000000 	bnez	t0,2ec <.debug_info+0x2ec>
 2ec:	0000020d 	break	0x0,0x8
 2f0:	00f68201 	0xf68201
 2f4:	00df0000 	0xdf0000
 2f8:	17000000 	bnez	t8,2fc <.debug_info+0x2fc>
 2fc:	00011001 	movt	v0,zero,$fcc0
 300:	969c0100 	lhu	gp,256(s4)
 304:	a4000000 	sh	zero,0(zero)
 308:	6c000001 	0x6c000001
 30c:	70000002 	mul	zero,zero,zero
 310:	13000000 	beqz	t8,314 <.debug_info+0x314>
 314:	95000001 	lhu	zero,1(t0)
 318:	18000003 	blez	zero,328 <.debug_info+0x328>
 31c:	00667562 	0x667562
 320:	03959d01 	0x3959d01
 324:	91020000 	lbu	v0,0(t0)
 328:	69701658 	0x69701658
 32c:	9e010064 	0x9e010064
 330:	00000096 	0x96
 334:	00000132 	tlt	zero,zero,0x4
 338:	78616d05 	0x78616d05
 33c:	969f0100 	lhu	ra,256(s4)
 340:	19000000 	blez	t0,344 <.debug_info+0x344>
 344:	00000079 	0x79
 348:	00000000 	nop
 34c:	03629e01 	0x3629e01
 350:	181a0000 	0x181a0000
 354:	0e000000 	jal	8000000 <_locks_read+0x7fffc4c>
 358:	0000008a 	0x8a
 35c:	00000150 	0x150
 360:	9d1b0000 	0x9d1b0000
 364:	30000000 	andi	zero,zero,0x0
 368:	01000000 	0x1000000
 36c:	025d1ca7 	0x25d1ca7
 370:	561c0000 	bnel	s0,gp,374 <.debug_info+0x374>
 374:	1c000002 	bgtz	zero,380 <.debug_info+0x380>
 378:	0000024d 	break	0x0,0x9
 37c:	0000581a 	0x581a
 380:	00d01d00 	0xd01d00
 384:	56010000 	bnel	s0,at,388 <.debug_info+0x388>
 388:	0000db14 	0xdb14
 38c:	00e61400 	0xe61400
 390:	00000000 	nop
 394:	00f61e00 	0xf61e00
 398:	03a50000 	0x3a50000
 39c:	a51f0000 	sh	ra,0(t0)
 3a0:	24000003 	li	zero,3
 3a4:	07042000 	0x7042000
 3a8:	0195010f 	0x195010f
 3ac:	b4010000 	0xb4010000
 3b0:	00009601 	0x9601
 3b4:	00026c00 	sll	t5,v0,0x10
 3b8:	00029800 	sll	s3,v0,0x0
 3bc:	00008400 	sll	s0,zero,0x10
 3c0:	ed6d0100 	swc3	$13,256(t3)
 3c4:	11000003 	beqz	t0,3d4 <.debug_info+0x3d4>
 3c8:	000001ac 	0x1ac
 3cc:	0096b201 	0x96b201
 3d0:	54010000 	bnel	zero,at,3d4 <.debug_info+0x3d4>
 3d4:	00004f11 	0x4f11
 3d8:	96b30100 	lhu	s3,256(s5)
 3dc:	01000000 	0x1000000
 3e0:	00b40955 	0xb40955
 3e4:	b5010000 	0xb5010000
 3e8:	000001c6 	0x1c6
 3ec:	c0010f00 	ll	at,3840(zero)
 3f0:	01000000 	0x1000000
 3f4:	009601c2 	0x9601c2
 3f8:	02980000 	0x2980000
 3fc:	02c80000 	0x2c80000
 400:	00940000 	0x940000
 404:	6d010000 	0x6d010000
 408:	00000434 	teq	zero,zero,0x10
 40c:	0001ac10 	0x1ac10
 410:	96c00100 	lhu	zero,256(s6)
 414:	6e000000 	0x6e000000
 418:	11000001 	beqz	t0,420 <.debug_info+0x420>
 41c:	00000212 	0x212
 420:	0230c101 	0x230c101
 424:	55010000 	bnel	t0,at,428 <.debug_info+0x428>
 428:	0000b409 	jalr.hb	s6,zero
 42c:	c6c30100 	lwc1	$f3,256(s6)
 430:	00000001 	movf	zero,zero,$fcc0
 434:	0086010f 	0x86010f
 438:	d0010000 	0xd0010000
 43c:	00009601 	0x9601
 440:	0002c800 	sll	t9,v0,0x0
 444:	0002f400 	sll	s8,v0,0x10
 448:	0000a400 	sll	s4,zero,0x10
 44c:	796d0100 	0x796d0100
 450:	11000004 	beqz	t0,464 <.debug_info+0x464>
 454:	000001ac 	0x1ac
 458:	0096ce01 	0x96ce01
 45c:	54010000 	bnel	zero,at,460 <.debug_info+0x460>
 460:	00004f11 	0x4f11
 464:	96cf0100 	lhu	t7,256(s6)
 468:	01000000 	0x1000000
 46c:	02370955 	0x2370955
 470:	d1010000 	0xd1010000
 474:	000001c6 	0x1c6
 478:	91010f00 	lbu	at,3840(t0)
 47c:	01000000 	0x1000000
 480:	009601de 	0x9601de
 484:	02f40000 	0x2f40000
 488:	03240000 	0x3240000
 48c:	00b40000 	0xb40000
 490:	6d010000 	0x6d010000
 494:	000004c0 	sll	zero,zero,0x13
 498:	0001ac10 	0x1ac10
 49c:	96dc0100 	lhu	gp,256(s6)
 4a0:	8c000000 	lw	zero,0(zero)
 4a4:	11000001 	beqz	t0,4ac <.debug_info+0x4ac>
 4a8:	00000212 	0x212
 4ac:	0230dd01 	0x230dd01
 4b0:	55010000 	bnel	t0,at,4b4 <.debug_info+0x4b4>
 4b4:	00023709 	0x23709
 4b8:	c6df0100 	lwc1	$f31,256(s6)
 4bc:	00000001 	movf	zero,zero,$fcc0
 4c0:	025f010f 	0x25f010f
 4c4:	ec010000 	swc3	$1,0(zero)
 4c8:	00009601 	0x9601
 4cc:	00032400 	sll	a0,v1,0x10
 4d0:	00035000 	sll	t2,v1,0x0
 4d4:	0000c400 	sll	t8,zero,0x10
 4d8:	056d0100 	0x56d0100
 4dc:	11000005 	beqz	t0,4f4 <.debug_info+0x4f4>
 4e0:	000001ac 	0x1ac
 4e4:	0096ea01 	0x96ea01
 4e8:	54010000 	bnel	zero,at,4ec <.debug_info+0x4ec>
 4ec:	00004f11 	0x4f11
 4f0:	96eb0100 	lhu	t3,256(s7)
 4f4:	01000000 	0x1000000
 4f8:	02710955 	0x2710955
 4fc:	ed010000 	swc3	$1,0(t0)
 500:	000001c6 	0x1c6
 504:	2d010f00 	sltiu	at,t0,3840
 508:	01000002 	0x1000002
 50c:	009601fa 	0x9601fa
 510:	03500000 	0x3500000
 514:	03800000 	0x3800000
 518:	00d40000 	0xd40000
 51c:	6d010000 	0x6d010000
 520:	0000054c 	syscall	0x15
 524:	0001ac10 	0x1ac10
 528:	96f80100 	lhu	t8,256(s7)
 52c:	aa000000 	swl	zero,0(s0)
 530:	11000001 	beqz	t0,538 <.debug_info+0x538>
 534:	00000212 	0x212
 538:	0230f901 	0x230f901
 53c:	55010000 	bnel	t0,at,540 <.debug_info+0x540>
 540:	00027109 	0x27109
 544:	c6fb0100 	lwc1	$f27,256(s7)
 548:	00000001 	movf	zero,zero,$fcc0
 54c:	01320121 	0x1320121
 550:	08010000 	j	40000 <_locks_read+0x3fc4c>
 554:	00960101 	0x960101
 558:	03800000 	0x3800000
 55c:	03b40000 	0x3b40000
 560:	00e40000 	0xe40000
 564:	6d010000 	0x6d010000
 568:	00000593 	0x593
 56c:	00004422 	0x4422
 570:	01060100 	0x1060100
 574:	00000096 	0x96
 578:	6e235401 	0x6e235401
 57c:	01000001 	movf	zero,t0,$fcc0
 580:	01c60109 	0x1c60109
 584:	6d240000 	0x6d240000
 588:	01007861 	0x1007861
 58c:	0096010a 	0x96010a
 590:	21000000 	addi	zero,t0,0
 594:	00010401 	0x10401
 598:	011c0100 	0x11c0100
 59c:	00009601 	0x9601
 5a0:	0003b400 	sll	s6,v1,0x10
 5a4:	00042000 	sll	a0,a0,0x0
 5a8:	0000f400 	sll	s8,zero,0x10
 5ac:	1c6d0100 	0x1c6d0100
 5b0:	22000006 	addi	zero,s0,6
 5b4:	00000044 	0x44
 5b8:	96011b01 	lhu	at,6913(s0)
 5bc:	01000000 	0x1000000
 5c0:	016e2354 	0x16e2354
 5c4:	1d010000 	0x1d010000
 5c8:	0001c601 	0x1c601
 5cc:	616d2400 	0x616d2400
 5d0:	1e010078 	0x1e010078
 5d4:	00009601 	0x9601
 5d8:	00da2500 	0xda2500
 5dc:	1f010000 	0x1f010000
 5e0:	00009601 	0x9601
 5e4:	0001c800 	sll	t9,at,0x0
 5e8:	00692600 	0x692600
 5ec:	96012001 	lhu	at,8193(s0)
 5f0:	db000000 	ldc2	$0,0(t8)
 5f4:	27000001 	addiu	zero,t8,1
 5f8:	00000108 	0x108
 5fc:	000003e0 	0x3e0
 600:	000003e4 	0x3e4
 604:	28012801 	slti	at,zero,10241
 608:	000003e0 	0x3e0
 60c:	000003e4 	0x3e4
 610:	0001190e 	0x1190e
 614:	0001ee00 	sll	sp,at,0x18
 618:	00000000 	nop
 61c:	0000ca29 	0xca29
 620:	232a0100 	addi	t2,t9,256
 624:	01000001 	movf	zero,t0,$fcc0
 628:	00061c17 	0x61c17
 62c:	2a010100 	slti	at,s0,256
 630:	00000161 	0x161
 634:	061c1801 	0x61c1801
 638:	01010000 	0x1010000
 63c:	0000a72a 	0xa72a
 640:	1c190100 	0x1c190100
 644:	01000006 	srlv	zero,zero,t0
 648:	00112a01 	0x112a01
 64c:	1a010000 	0x1a010000
 650:	0000061c 	0x61c
 654:	2a2a0101 	slti	t2,s1,257
 658:	01000000 	0x1000000
 65c:	00061c1b 	0x61c1b
 660:	2a010100 	slti	at,s0,256
 664:	00000116 	0x116
 668:	061c1c01 	0x61c1c01
 66c:	01010000 	0x1010000
 670:	0000752a 	0x752a
 674:	1c1e0100 	0x1c1e0100
 678:	01000006 	srlv	zero,zero,t0
 67c:	01ce2a01 	0x1ce2a01
 680:	1f010000 	0x1f010000
 684:	0000061c 	0x61c
 688:	002a0101 	0x2a0101
 68c:	01000000 	0x1000000
 690:	00061c20 	0x61c20
 694:	00010100 	sll	zero,at,0x4

Disassembly of section .debug_line:

00000000 <.debug_line>:
   0:	0000011a 	0x11a
   4:	00350002 	ror	zero,s5,0x0
   8:	01010000 	0x1010000
   c:	000d0efb 	0xd0efb
  10:	01010101 	0x1010101
  14:	01000000 	0x1000000
  18:	00010000 	sll	zero,at,0x0
  1c:	63737973 	0x63737973
  20:	736c6c61 	0x736c6c61
  24:	0000632e 	0x632e
  28:	74740000 	jalx	1d00000 <_locks_read+0x1cffc4c>
  2c:	00682e79 	0x682e79
  30:	74000000 	jalx	0 <.debug_line>
  34:	72656d69 	0x72656d69
  38:	0000682e 	0x682e
  3c:	00000000 	nop
  40:	00000205 	0x205
  44:	28030000 	slti	v1,zero,0
  48:	894c1401 	lwl	t4,5121(t2)
  4c:	178a4c14 	bne	gp,t2,130a0 <_locks_read+0x12cec>
  50:	bd7d4108 	cache	0x1d,16648(t3)
  54:	e4080a03 	swc1	$f8,2563(zero)
  58:	7d410817 	0x7d410817
  5c:	020a03bd 	0x20a03bd
  60:	08180124 	j	600490 <_locks_read+0x6000dc>
  64:	81bb833e 	lb	k1,-31938(t5)
  68:	03864983 	0x3864983
  6c:	14038279 	bne	zero,v1,fffe0a54 <_locks_read+0xfffe06a0>
  70:	3f081982 	0x3f081982
  74:	4f7a0881 	c3	0x17a0881
  78:	bd4a7703 	cache	0xa,30467(t2)
  7c:	760387bb 	jalx	80e1eec <_locks_read+0x80e1b38>
  80:	f20e0382 	0xf20e0382
  84:	03827803 	0x3827803
  88:	0d03f277 	jal	40fc9dc <_locks_read+0x40fc628>
  8c:	82760382 	lb	s6,898(s3)
  90:	03821403 	0x3821403
  94:	034a7f8f 	0x34a7f8f
  98:	034a00f6 	tne	k0,t2,0x3
  9c:	034a7f8b 	0x34a7f8b
  a0:	ee4a00f5 	swc3	$10,245(s2)
  a4:	031a4002 	0x31a4002
  a8:	09034a78 	j	40d29e0 <_locks_read+0x40d262c>
  ac:	4a46034a 	c2	0x46034a
  b0:	524a3103 	beql	s2,t2,c4c0 <_locks_read+0xc10c>
  b4:	034d4b47 	0x34d4b47
  b8:	37034a46 	ori	v1,t8,0x4a46
  bc:	47034c82 	c1	0x1034c82
  c0:	4a38034a 	c2	0x38034a
  c4:	4a03464c 	c2	0x3464c
  c8:	03b9844a 	0x3b9844a
  cc:	09034a3e 	j	40d28f8 <_locks_read+0x40d2544>
  d0:	f4bd14ba 	sdc1	$f29,5306(a1)
  d4:	820c037d 	lb	t4,893(s0)
  d8:	3e08bd14 	0x3e08bd14
  dc:	820c037d 	lb	t4,893(s0)
  e0:	7df4bd14 	0x7df4bd14
  e4:	14820c03 	bne	a0,v0,30f4 <_locks_read+0x2d40>
  e8:	7d3e08bd 	0x7d3e08bd
  ec:	14820c03 	bne	a0,v0,30fc <_locks_read+0x2d48>
  f0:	037df4bd 	0x37df4bd
  f4:	bd14820c 	cache	0x14,-32244(t0)
  f8:	037d3e08 	0x37d3e08
  fc:	0817820c 	j	5e0830 <_locks_read+0x5e047c>
 100:	037df43f 	0x37df43f
 104:	0819820f 	j	66083c <_locks_read+0x660488>
 108:	7e8f03e8 	0x7e8f03e8
 10c:	01f203ba 	0x1f203ba
 110:	49834b4a 	0x49834b4a
 114:	7503c1f0 	jalx	40f07c0 <_locks_read+0x40f040c>
 118:	00080282 	srl	zero,t0,0xa
 11c:	Address 0x000000000000011c is out of bounds.


Disassembly of section .syscalls:

00000000 <_procid>:
   0:	40027801 	mfc0	v0,$15,1
   4:	03e00008 	jr	ra
   8:	304200ff 	andi	v0,v0,0xff

0000000c <_proctime>:
   c:	40024800 	mfc0	v0,c0_count
  10:	03e00008 	jr	ra
  14:	00000000 	nop

00000018 <_timer_write>:
  18:	3c020000 	lui	v0,0x0
  1c:	24420000 	addiu	v0,v0,0
  20:	0082102a 	slt	v0,a0,v0
  24:	14400003 	bnez	v0,34 <_timer_write+0x1c>
  28:	00000000 	nop
  2c:	03e00008 	jr	ra
  30:	2402ffff 	li	v0,-1
  34:	28a20004 	slti	v0,a1,4
  38:	1040fffc 	beqz	v0,2c <_timer_write+0x14>
  3c:	3c030000 	lui	v1,0x0
  40:	00041100 	sll	v0,a0,0x4
  44:	24630000 	addiu	v1,v1,0
  48:	00621821 	addu	v1,v1,v0
  4c:	00052080 	sll	a0,a1,0x2
  50:	00641821 	addu	v1,v1,a0
  54:	ac660000 	sw	a2,0(v1)
  58:	03e00008 	jr	ra
  5c:	00001021 	move	v0,zero

00000060 <_timer_read>:
  60:	3c020000 	lui	v0,0x0
  64:	24420000 	addiu	v0,v0,0
  68:	0082102a 	slt	v0,a0,v0
  6c:	14400003 	bnez	v0,7c <_timer_read+0x1c>
  70:	00000000 	nop
  74:	03e00008 	jr	ra
  78:	2402ffff 	li	v0,-1
  7c:	28a20004 	slti	v0,a1,4
  80:	1040fffc 	beqz	v0,74 <_timer_read+0x14>
  84:	00042100 	sll	a0,a0,0x4
  88:	3c020000 	lui	v0,0x0
  8c:	24420000 	addiu	v0,v0,0
  90:	00441021 	addu	v0,v0,a0
  94:	00051880 	sll	v1,a1,0x2
  98:	00431021 	addu	v0,v0,v1
  9c:	8c440000 	lw	a0,0(v0)
  a0:	00001021 	move	v0,zero
  a4:	03e00008 	jr	ra
  a8:	acc40000 	sw	a0,0(a2)

000000ac <_tty_write>:
  ac:	3c020000 	lui	v0,0x0
  b0:	24420000 	addiu	v0,v0,0
  b4:	0082102a 	slt	v0,a0,v0
  b8:	1040000f 	beqz	v0,f8 <_tty_write+0x4c>
  bc:	00041900 	sll	v1,a0,0x4
  c0:	3c020000 	lui	v0,0x0
  c4:	24420000 	addiu	v0,v0,0
  c8:	18c00009 	blez	a2,f0 <_tty_write+0x44>
  cc:	00432021 	addu	a0,v0,v1
  d0:	00003821 	move	a3,zero
  d4:	00a71021 	addu	v0,a1,a3
  d8:	80430000 	lb	v1,0(v0)
  dc:	24e70001 	addiu	a3,a3,1
  e0:	00e6102a 	slt	v0,a3,a2
  e4:	a0830000 	sb	v1,0(a0)
  e8:	1440fffa 	bnez	v0,d4 <_tty_write+0x28>
  ec:	00000000 	nop
  f0:	03e00008 	jr	ra
  f4:	00001021 	move	v0,zero
  f8:	03e00008 	jr	ra
  fc:	2402ffff 	li	v0,-1

00000100 <_tty_read>:
 100:	3c020000 	lui	v0,0x0
 104:	24420000 	addiu	v0,v0,0
 108:	0082102a 	slt	v0,a0,v0
 10c:	1040001f 	beqz	v0,18c <_tty_read+0x8c>
 110:	00000000 	nop
 114:	18c00021 	blez	a2,19c <_tty_read+0x9c>
 118:	00041900 	sll	v1,a0,0x4
 11c:	3c020000 	lui	v0,0x0
 120:	24420000 	addiu	v0,v0,0
 124:	00431021 	addu	v0,v0,v1
 128:	24440008 	addiu	a0,v0,8
 12c:	24430004 	addiu	v1,v0,4
 130:	00003821 	move	a3,zero
 134:	24090008 	li	t1,8
 138:	240a000a 	li	t2,10
 13c:	90620000 	lbu	v0,0(v1)
 140:	1040fffe 	beqz	v0,13c <_tty_read+0x3c>
 144:	00000000 	nop
 148:	90820000 	lbu	v0,0(a0)
 14c:	00021600 	sll	v0,v0,0x18
 150:	00021603 	sra	v0,v0,0x18
 154:	10490009 	beq	v0,t1,17c <_tty_read+0x7c>
 158:	00a74021 	addu	t0,a1,a3
 15c:	104a000d 	beq	v0,t2,194 <_tty_read+0x94>
 160:	a1020000 	sb	v0,0(t0)
 164:	24e70001 	addiu	a3,a3,1
 168:	00e6102a 	slt	v0,a3,a2
 16c:	1440fff3 	bnez	v0,13c <_tty_read+0x3c>
 170:	24e20001 	addiu	v0,a3,1
 174:	03e00008 	jr	ra
 178:	00000000 	nop
 17c:	10e0ffef 	beqz	a3,13c <_tty_read+0x3c>
 180:	00000000 	nop
 184:	08000059 	j	164 <_tty_read+0x64>
 188:	24e7fffe 	addiu	a3,a3,-2
 18c:	03e00008 	jr	ra
 190:	2402ffff 	li	v0,-1
 194:	03e00008 	jr	ra
 198:	24e20001 	addiu	v0,a3,1
 19c:	03e00008 	jr	ra
 1a0:	24020001 	li	v0,1

000001a4 <_exit>:
 1a4:	27bdffd8 	addiu	sp,sp,-40
 1a8:	40037801 	mfc0	v1,$15,1
 1ac:	3c020000 	lui	v0,0x0
 1b0:	306600ff 	andi	a2,v1,0xff
 1b4:	24420000 	addiu	v0,v0,0
 1b8:	00c2102a 	slt	v0,a2,v0
 1bc:	10400028 	beqz	v0,260 <_exit+0xbc>
 1c0:	3c020000 	lui	v0,0x0
 1c4:	24470000 	addiu	a3,v0,0
 1c8:	03a04021 	move	t0,sp
 1cc:	24e90020 	addiu	t1,a3,32
 1d0:	8ce20000 	lw	v0,0(a3)
 1d4:	8ce30004 	lw	v1,4(a3)
 1d8:	8ce40008 	lw	a0,8(a3)
 1dc:	8ce5000c 	lw	a1,12(a3)
 1e0:	24e70010 	addiu	a3,a3,16
 1e4:	ad020000 	sw	v0,0(t0)
 1e8:	ad030004 	sw	v1,4(t0)
 1ec:	ad040008 	sw	a0,8(t0)
 1f0:	ad05000c 	sw	a1,12(t0)
 1f4:	14e9fff6 	bne	a3,t1,1d0 <_exit+0x2c>
 1f8:	25080010 	addiu	t0,t0,16
 1fc:	90e20004 	lbu	v0,4(a3)
 200:	8ce30000 	lw	v1,0(a3)
 204:	00062102 	srl	a0,a2,0x4
 208:	a1020004 	sb	v0,4(t0)
 20c:	30c5000f 	andi	a1,a2,0xf
 210:	3c020000 	lui	v0,0x0
 214:	ad030000 	sw	v1,0(t0)
 218:	24840030 	addiu	a0,a0,48
 21c:	24070030 	li	a3,48
 220:	24030078 	li	v1,120
 224:	24a50030 	addiu	a1,a1,48
 228:	00063100 	sll	a2,a2,0x4
 22c:	24420000 	addiu	v0,v0,0
 230:	a3a30019 	sb	v1,25(sp)
 234:	a3a4001b 	sb	a0,27(sp)
 238:	00463021 	addu	a2,v0,a2
 23c:	a3a7001a 	sb	a3,26(sp)
 240:	a3a5001c 	sb	a1,28(sp)
 244:	a3a70018 	sb	a3,24(sp)
 248:	03a01821 	move	v1,sp
 24c:	27a40024 	addiu	a0,sp,36
 250:	80620000 	lb	v0,0(v1)
 254:	24630001 	addiu	v1,v1,1
 258:	1483fffd 	bne	a0,v1,250 <_exit+0xac>
 25c:	a0c20000 	sb	v0,0(a2)
 260:	00000000 	nop
 264:	08000098 	j	260 <_exit+0xbc>
 268:	00000000 	nop

0000026c <_dma_write>:
 26c:	28820005 	slti	v0,a0,5
 270:	10400007 	beqz	v0,290 <_dma_write+0x24>
 274:	00041880 	sll	v1,a0,0x2
 278:	3c020000 	lui	v0,0x0
 27c:	24420000 	addiu	v0,v0,0
 280:	00431021 	addu	v0,v0,v1
 284:	ac450000 	sw	a1,0(v0)
 288:	03e00008 	jr	ra
 28c:	00001021 	move	v0,zero
 290:	03e00008 	jr	ra
 294:	2402ffff 	li	v0,-1

00000298 <_dma_read>:
 298:	28820005 	slti	v0,a0,5
 29c:	10400008 	beqz	v0,2c0 <_dma_read+0x28>
 2a0:	3c030000 	lui	v1,0x0
 2a4:	00041080 	sll	v0,a0,0x2
 2a8:	24630000 	addiu	v1,v1,0
 2ac:	00621821 	addu	v1,v1,v0
 2b0:	8c640000 	lw	a0,0(v1)
 2b4:	00001021 	move	v0,zero
 2b8:	03e00008 	jr	ra
 2bc:	aca40000 	sw	a0,0(a1)
 2c0:	03e00008 	jr	ra
 2c4:	2402ffff 	li	v0,-1

000002c8 <_icu_write>:
 2c8:	28820004 	slti	v0,a0,4
 2cc:	10400007 	beqz	v0,2ec <_icu_write+0x24>
 2d0:	00041880 	sll	v1,a0,0x2
 2d4:	3c020000 	lui	v0,0x0
 2d8:	24420000 	addiu	v0,v0,0
 2dc:	00431021 	addu	v0,v0,v1
 2e0:	ac450000 	sw	a1,0(v0)
 2e4:	03e00008 	jr	ra
 2e8:	00001021 	move	v0,zero
 2ec:	03e00008 	jr	ra
 2f0:	2402ffff 	li	v0,-1

000002f4 <_icu_read>:
 2f4:	28820004 	slti	v0,a0,4
 2f8:	10400008 	beqz	v0,31c <_icu_read+0x28>
 2fc:	3c030000 	lui	v1,0x0
 300:	00041080 	sll	v0,a0,0x2
 304:	24630000 	addiu	v1,v1,0
 308:	00621821 	addu	v1,v1,v0
 30c:	8c640000 	lw	a0,0(v1)
 310:	00001021 	move	v0,zero
 314:	03e00008 	jr	ra
 318:	aca40000 	sw	a0,0(a1)
 31c:	03e00008 	jr	ra
 320:	2402ffff 	li	v0,-1

00000324 <_gcd_write>:
 324:	28820004 	slti	v0,a0,4
 328:	10400007 	beqz	v0,348 <_gcd_write+0x24>
 32c:	00041880 	sll	v1,a0,0x2
 330:	3c020000 	lui	v0,0x0
 334:	24420000 	addiu	v0,v0,0
 338:	00431021 	addu	v0,v0,v1
 33c:	ac450000 	sw	a1,0(v0)
 340:	03e00008 	jr	ra
 344:	00001021 	move	v0,zero
 348:	03e00008 	jr	ra
 34c:	2402ffff 	li	v0,-1

00000350 <_gcd_read>:
 350:	28820004 	slti	v0,a0,4
 354:	10400008 	beqz	v0,378 <_gcd_read+0x28>
 358:	3c030000 	lui	v1,0x0
 35c:	00041080 	sll	v0,a0,0x2
 360:	24630000 	addiu	v1,v1,0
 364:	00621821 	addu	v1,v1,v0
 368:	8c640000 	lw	a0,0(v1)
 36c:	00001021 	move	v0,zero
 370:	03e00008 	jr	ra
 374:	aca40000 	sw	a0,0(a1)
 378:	03e00008 	jr	ra
 37c:	2402ffff 	li	v0,-1

00000380 <_locks_write>:
 380:	3c020000 	lui	v0,0x0
 384:	24420000 	addiu	v0,v0,0
 388:	0082102a 	slt	v0,a0,v0
 38c:	10400007 	beqz	v0,3ac <_locks_write+0x2c>
 390:	00041880 	sll	v1,a0,0x2
 394:	3c020000 	lui	v0,0x0
 398:	24420000 	addiu	v0,v0,0
 39c:	00431021 	addu	v0,v0,v1
 3a0:	ac400000 	sw	zero,0(v0)
 3a4:	03e00008 	jr	ra
 3a8:	00001021 	move	v0,zero
 3ac:	03e00008 	jr	ra
 3b0:	2402ffff 	li	v0,-1

000003b4 <_locks_read>:
 3b4:	3c020000 	lui	v0,0x0
 3b8:	24420000 	addiu	v0,v0,0
 3bc:	0082102a 	slt	v0,a0,v0
 3c0:	10400015 	beqz	v0,418 <_locks_read+0x64>
 3c4:	00041880 	sll	v1,a0,0x2
 3c8:	3c020000 	lui	v0,0x0
 3cc:	24420000 	addiu	v0,v0,0
 3d0:	00431821 	addu	v1,v0,v1
 3d4:	8c620000 	lw	v0,0(v1)
 3d8:	1040000d 	beqz	v0,410 <_locks_read+0x5c>
 3dc:	00000000 	nop
 3e0:	40024800 	mfc0	v0,c0_count
 3e4:	304500ff 	andi	a1,v0,0xff
 3e8:	10a0fffa 	beqz	a1,3d4 <_locks_read+0x20>
 3ec:	00003021 	move	a2,zero
 3f0:	00000000 	nop
 3f4:	24c60001 	addiu	a2,a2,1
 3f8:	00c5102a 	slt	v0,a2,a1
 3fc:	1440fffc 	bnez	v0,3f0 <_locks_read+0x3c>
 400:	00000000 	nop
 404:	8c620000 	lw	v0,0(v1)
 408:	1440fff5 	bnez	v0,3e0 <_locks_read+0x2c>
 40c:	00000000 	nop
 410:	03e00008 	jr	ra
 414:	00000000 	nop
 418:	03e00008 	jr	ra
 41c:	2402ffff 	li	v0,-1

Disassembly of section .rodata.str1.4:

00000000 <$LC0>:
   0:	21210a0a 	addi	at,t1,2570
   4:	45202021 	0x45202021
   8:	20746978 	addi	s4,v1,27000
   c:	6f725020 	0x6f725020
  10:	73736563 	0x73736563
  14:	2020726f 	addi	zero,at,29295
  18:	20202020 	addi	zero,at,8224
  1c:	20202020 	addi	zero,at,8224
  20:	0a212121 	j	8848484 <_locks_read+0x88480d0>
  24:	00000000 	nop

Disassembly of section .debug_frame:

00000000 <.debug_frame>:
   0:	0000000c 	syscall
   4:	ffffffff 	sdc3	$31,-1(ra)
   8:	7c010001 	0x7c010001
   c:	001d0c1f 	0x1d0c1f
  10:	0000000c 	syscall
	...
  1c:	0000000c 	syscall
  20:	0000000c 	syscall
  24:	00000000 	nop
  28:	0000000c 	syscall
  2c:	0000000c 	syscall
  30:	0000000c 	syscall
  34:	00000000 	nop
  38:	00000018 	mult	zero,zero
  3c:	00000048 	0x48
  40:	0000000c 	syscall
  44:	00000000 	nop
  48:	00000060 	0x60
  4c:	0000004c 	syscall	0x1
  50:	0000000c 	syscall
  54:	00000000 	nop
  58:	000000ac 	0xac
  5c:	00000054 	0x54
  60:	0000000c 	syscall
  64:	00000000 	nop
  68:	00000100 	sll	zero,zero,0x4
  6c:	000000a4 	0xa4
  70:	00000010 	mfhi	zero
  74:	00000000 	nop
  78:	000001a4 	0x1a4
  7c:	000000c8 	0xc8
  80:	00280e44 	0x280e44
  84:	0000000c 	syscall
  88:	00000000 	nop
  8c:	0000026c 	0x26c
  90:	0000002c 	0x2c
  94:	0000000c 	syscall
  98:	00000000 	nop
  9c:	00000298 	0x298
  a0:	00000030 	tge	zero,zero
  a4:	0000000c 	syscall
  a8:	00000000 	nop
  ac:	000002c8 	0x2c8
  b0:	0000002c 	0x2c
  b4:	0000000c 	syscall
  b8:	00000000 	nop
  bc:	000002f4 	teq	zero,zero,0xb
  c0:	00000030 	tge	zero,zero
  c4:	0000000c 	syscall
  c8:	00000000 	nop
  cc:	00000324 	0x324
  d0:	0000002c 	0x2c
  d4:	0000000c 	syscall
  d8:	00000000 	nop
  dc:	00000350 	0x350
  e0:	00000030 	tge	zero,zero
  e4:	0000000c 	syscall
  e8:	00000000 	nop
  ec:	00000380 	sll	zero,zero,0xe
  f0:	00000034 	teq	zero,zero
  f4:	0000000c 	syscall
  f8:	00000000 	nop
  fc:	000003b4 	teq	zero,zero,0xe
 100:	0000006c 	0x6c

Disassembly of section .debug_loc:

00000000 <.debug_loc>:
	...
   8:	00000010 	mfhi	zero
   c:	00000010 	mfhi	zero
  10:	00520001 	0x520001
  14:	00000000 	nop
  18:	18000000 	blez	zero,1c <.debug_loc+0x1c>
  1c:	50000000 	beqzl	zero,20 <.debug_loc+0x20>
  20:	01000000 	0x1000000
  24:	00005400 	sll	t2,zero,0x10
  28:	00000000 	nop
  2c:	00600000 	0x600000
  30:	008c0000 	0x8c0000
  34:	00010000 	sll	zero,at,0x0
  38:	00000054 	0x54
  3c:	00000000 	nop
  40:	0000ac00 	sll	s5,zero,0x10
  44:	0000c800 	sll	t9,zero,0x0
  48:	54000100 	bnezl	zero,44c <_locks_read+0x98>
  4c:	000000f8 	0xf8
  50:	00000100 	sll	zero,zero,0x4
  54:	00540001 	movf	zero,v0,$fcc5
  58:	00000000 	nop
  5c:	c8000000 	lwc2	$0,0(zero)
  60:	f8000000 	sdc2	$0,0(zero)
  64:	01000000 	0x1000000
  68:	00005400 	sll	t2,zero,0x10
  6c:	00000000 	nop
  70:	00d40000 	0xd40000
  74:	00f80000 	0xf80000
  78:	00010000 	sll	zero,at,0x0
  7c:	00000057 	0x57
  80:	00000000 	nop
  84:	00010000 	sll	zero,at,0x0
  88:	00012c00 	sll	a1,at,0x10
  8c:	54000100 	bnezl	zero,490 <_locks_read+0xdc>
  90:	0000018c 	syscall	0x6
  94:	00000194 	0x194
  98:	9c540001 	0x9c540001
  9c:	a4000001 	sh	zero,1(zero)
  a0:	01000001 	movf	zero,t0,$fcc0
  a4:	00005400 	sll	t2,zero,0x10
  a8:	00000000 	nop
  ac:	01280000 	0x1280000
  b0:	01400000 	0x1400000
  b4:	00010000 	sll	zero,at,0x0
  b8:	00000052 	mflhxu	zero
  bc:	00000000 	nop
  c0:	00013400 	sll	a2,at,0x10
  c4:	00018c00 	sll	s1,at,0x10
  c8:	57000100 	bnezl	t8,4cc <_locks_read+0x118>
  cc:	00000194 	0x194
  d0:	0000019c 	0x19c
  d4:	00570001 	0x570001
  d8:	00000000 	nop
  dc:	3c000000 	lui	zero,0x0
  e0:	40000001 	mfc0	zero,$0,1
  e4:	01000001 	movf	zero,t0,$fcc0
  e8:	01505200 	0x1505200
  ec:	016c0000 	0x16c0000
  f0:	00010000 	sll	zero,at,0x0
  f4:	00017c52 	0x17c52
  f8:	00018c00 	sll	s1,at,0x10
  fc:	52000100 	beqzl	s0,500 <_locks_read+0x14c>
 100:	00000194 	0x194
 104:	00000194 	0x194
 108:	00520001 	0x520001
 10c:	00000000 	nop
 110:	a4000000 	sh	zero,0(zero)
 114:	a8000001 	swl	zero,1(zero)
 118:	01000001 	movf	zero,t0,$fcc0
 11c:	01a86d00 	0x1a86d00
 120:	026c0000 	0x26c0000
 124:	00020000 	sll	zero,v0,0x0
 128:	0000288d 	break	0x0,0xa2
 12c:	00000000 	nop
 130:	01b40000 	0x1b40000
 134:	022c0000 	0x22c0000
 138:	00010000 	sll	zero,at,0x0
 13c:	00026056 	0x26056
 140:	00026c00 	sll	t5,v0,0x10
 144:	56000100 	bnezl	s0,548 <_locks_read+0x194>
 148:	00000000 	nop
 14c:	00000000 	nop
 150:	000001ac 	0x1ac
 154:	000001d8 	0x1d8
 158:	60530001 	0x60530001
 15c:	6c000002 	0x6c000002
 160:	01000002 	0x1000002
 164:	00005300 	sll	t2,zero,0xc
 168:	00000000 	nop
 16c:	02980000 	0x2980000
 170:	02b40000 	0x2b40000
 174:	00010000 	sll	zero,at,0x0
 178:	0002c054 	0x2c054
 17c:	0002c800 	sll	t9,v0,0x0
 180:	54000100 	bnezl	zero,584 <_locks_read+0x1d0>
 184:	00000000 	nop
 188:	00000000 	nop
 18c:	000002f4 	teq	zero,zero,0xb
 190:	00000310 	0x310
 194:	1c540001 	0x1c540001
 198:	24000003 	li	zero,3
 19c:	01000003 	0x1000003
 1a0:	00005400 	sll	t2,zero,0x10
 1a4:	00000000 	nop
 1a8:	03500000 	0x3500000
 1ac:	036c0000 	0x36c0000
 1b0:	00010000 	sll	zero,at,0x0
 1b4:	00037854 	0x37854
 1b8:	00038000 	sll	s0,v1,0x0
 1bc:	54000100 	bnezl	zero,5c0 <_locks_read+0x20c>
 1c0:	00000000 	nop
 1c4:	00000000 	nop
 1c8:	000003d4 	0x3d4
 1cc:	00000418 	0x418
 1d0:	00550001 	movt	zero,v0,$fcc5
 1d4:	00000000 	nop
 1d8:	d4000000 	ldc1	$f0,0(zero)
 1dc:	18000003 	blez	zero,1ec <.debug_loc+0x1ec>
 1e0:	01000004 	sllv	zero,zero,t0
 1e4:	00005600 	sll	t2,zero,0x18
 1e8:	00000000 	nop
 1ec:	03d40000 	0x3d40000
 1f0:	03d80000 	0x3d80000
 1f4:	00010000 	sll	zero,at,0x0
 1f8:	0003e452 	0x3e452
 1fc:	0003fc00 	sll	ra,v1,0x10
 200:	52000100 	beqzl	s0,604 <_locks_read+0x250>
 204:	00000000 	nop
 208:	00000000 	nop

Disassembly of section .debug_pubnames:

00000000 <.debug_pubnames>:
   0:	000000e8 	0xe8
   4:	00000002 	srl	zero,zero,0x0
   8:	06980000 	0x6980000
   c:	01250000 	0x1250000
  10:	705f0000 	madd	v0,ra
  14:	69636f72 	0x69636f72
  18:	01460064 	0x1460064
  1c:	705f0000 	madd	v0,ra
  20:	74636f72 	jalx	18dbdc8 <_locks_read+0x18dba14>
  24:	00656d69 	0x656d69
  28:	00000167 	0x167
  2c:	6d69745f 	0x6d69745f
  30:	775f7265 	jalx	d7dc994 <_locks_read+0xd7dc5e0>
  34:	65746972 	0x65746972
  38:	0001d100 	sll	k0,at,0x4
  3c:	69745f00 	0x69745f00
  40:	5f72656d 	0x5f72656d
  44:	64616572 	0x64616572
  48:	00023600 	sll	a2,v0,0x18
  4c:	74745f00 	jalx	1d17c00 <_locks_read+0x1d1784c>
  50:	72775f79 	0x72775f79
  54:	00657469 	0x657469
  58:	0000027c 	0x27c
  5c:	7974745f 	0x7974745f
  60:	6165725f 	0x6165725f
  64:	02fb0064 	0x2fb0064
  68:	655f0000 	0x655f0000
  6c:	00746978 	0x746978
  70:	000003a8 	0x3a8
  74:	616d645f 	0x616d645f
  78:	6972775f 	0x6972775f
  7c:	ed006574 	swc3	$0,25972(t0)
  80:	5f000003 	bgtzl	t8,90 <.debug_pubnames+0x90>
  84:	5f616d64 	0x5f616d64
  88:	64616572 	0x64616572
  8c:	00043400 	sll	a2,a0,0x10
  90:	63695f00 	0x63695f00
  94:	72775f75 	0x72775f75
  98:	00657469 	0x657469
  9c:	00000479 	0x479
  a0:	7563695f 	jalx	58da57c <_locks_read+0x58da1c8>
  a4:	6165725f 	0x6165725f
  a8:	04c00064 	bltz	a2,23c <_exit+0x98>
  ac:	675f0000 	0x675f0000
  b0:	775f6463 	jalx	d7d918c <_locks_read+0xd7d8dd8>
  b4:	65746972 	0x65746972
  b8:	00050500 	sll	zero,a1,0x14
  bc:	63675f00 	0x63675f00
  c0:	65725f64 	0x65725f64
  c4:	4c006461 	0x4c006461
  c8:	5f000005 	bgtzl	t8,e0 <.debug_pubnames+0xe0>
  cc:	6b636f6c 	0x6b636f6c
  d0:	72775f73 	0x72775f73
  d4:	00657469 	0x657469
  d8:	00000593 	0x593
  dc:	636f6c5f 	0x636f6c5f
  e0:	725f736b 	0x725f736b
  e4:	00646165 	0x646165
  e8:	00000000 	nop

Disassembly of section .debug_aranges:

00000000 <.debug_aranges>:
   0:	0000008c 	syscall	0x2
   4:	00000002 	srl	zero,zero,0x0
   8:	00040000 	sll	zero,a0,0x0
	...
  14:	0000000c 	syscall
  18:	0000000c 	syscall
  1c:	0000000c 	syscall
  20:	00000018 	mult	zero,zero
  24:	00000048 	0x48
  28:	00000060 	0x60
  2c:	0000004c 	syscall	0x1
  30:	000000ac 	0xac
  34:	00000054 	0x54
  38:	00000100 	sll	zero,zero,0x4
  3c:	000000a4 	0xa4
  40:	000001a4 	0x1a4
  44:	000000c8 	0xc8
  48:	0000026c 	0x26c
  4c:	0000002c 	0x2c
  50:	00000298 	0x298
  54:	00000030 	tge	zero,zero
  58:	000002c8 	0x2c8
  5c:	0000002c 	0x2c
  60:	000002f4 	teq	zero,zero,0xb
  64:	00000030 	tge	zero,zero
  68:	00000324 	0x324
  6c:	0000002c 	0x2c
  70:	00000350 	0x350
  74:	00000030 	tge	zero,zero
  78:	00000380 	sll	zero,zero,0xe
  7c:	00000034 	teq	zero,zero
  80:	000003b4 	teq	zero,zero,0xe
  84:	0000006c 	0x6c
	...

Disassembly of section .debug_ranges:

00000000 <.debug_ranges>:
   0:	000001a8 	0x1a8
   4:	000001ac 	0x1ac
   8:	000001b0 	tge	zero,zero,0x6
   c:	000001b4 	teq	zero,zero,0x6
	...
  18:	000001a8 	0x1a8
  1c:	000001ac 	0x1ac
  20:	000001b0 	tge	zero,zero,0x6
  24:	000001b4 	teq	zero,zero,0x6
	...
  30:	00000210 	0x210
  34:	00000214 	0x214
  38:	00000248 	0x248
  3c:	00000260 	0x260
  40:	00000238 	0x238
  44:	0000023c 	0x23c
  48:	00000228 	0x228
  4c:	00000230 	tge	zero,zero,0x8
	...
  58:	00000210 	0x210
  5c:	00000214 	0x214
  60:	00000248 	0x248
  64:	00000260 	0x260
  68:	00000238 	0x238
  6c:	0000023c 	0x23c
  70:	00000228 	0x228
  74:	00000230 	tge	zero,zero,0x8
	...
  8c:	0000000c 	syscall
  90:	0000000c 	syscall
  94:	00000018 	mult	zero,zero
  98:	00000018 	mult	zero,zero
  9c:	00000060 	0x60
  a0:	00000060 	0x60
  a4:	000000ac 	0xac
  a8:	000000ac 	0xac
  ac:	00000100 	sll	zero,zero,0x4
  b0:	00000100 	sll	zero,zero,0x4
  b4:	000001a4 	0x1a4
  b8:	000001a4 	0x1a4
  bc:	0000026c 	0x26c
  c0:	0000026c 	0x26c
  c4:	00000298 	0x298
  c8:	00000298 	0x298
  cc:	000002c8 	0x2c8
  d0:	000002c8 	0x2c8
  d4:	000002f4 	teq	zero,zero,0xb
  d8:	000002f4 	teq	zero,zero,0xb
  dc:	00000324 	0x324
  e0:	00000324 	0x324
  e4:	00000350 	0x350
  e8:	00000350 	0x350
  ec:	00000380 	sll	zero,zero,0xe
  f0:	00000380 	sll	zero,zero,0xe
  f4:	000003b4 	teq	zero,zero,0xe
  f8:	000003b4 	teq	zero,zero,0xe
  fc:	00000420 	0x420
	...

Disassembly of section .debug_str:

00000000 <.debug_str>:
   0:	5f78616d 	0x5f78616d
   4:	6b636f6c 	0x6b636f6c
   8:	756e5f73 	jalx	5b97dcc <_locks_read+0x5b97a18>
   c:	7265626d 	0x7265626d
  10:	67657300 	0x67657300
  14:	616d645f 	0x616d645f
  18:	7361625f 	0x7361625f
  1c:	69740065 	0x69740065
  20:	5f72656d 	0x5f72656d
  24:	65646e69 	0x65646e69
  28:	65730078 	0x65730078
  2c:	6f6c5f67 	0x6f6c5f67
  30:	5f736b63 	0x5f736b63
  34:	65736162 	0x65736162
  38:	4d495400 	0x4d495400
  3c:	535f5245 	beql	k0,ra,14954 <_locks_read+0x145a0>
  40:	004e4150 	0x4e4150
  44:	6b636f6c 	0x6b636f6c
  48:	646e695f 	0x646e695f
  4c:	76007865 	jalx	801e194 <_locks_read+0x801dde0>
  50:	65756c61 	0x65756c61
  54:	59545400 	0x59545400
  58:	4952575f 	0x4952575f
  5c:	54004554 	bnezl	zero,115b0 <_locks_read+0x111fc>
  60:	535f5954 	beql	k0,ra,165b4 <_locks_read+0x16200>
  64:	55544154 	bnel	t2,s4,105b8 <_locks_read+0x10204>
  68:	79730053 	0x79730053
  6c:	6c616373 	0x6c616373
  70:	632e736c 	0x632e736c
  74:	78616d00 	0x78616d00
  78:	6d69745f 	0x6d69745f
  7c:	6e5f7265 	0x6e5f7265
  80:	65626d75 	0x65626d75
  84:	695f0072 	0x695f0072
  88:	775f7563 	jalx	d7dd58c <_locks_read+0xd7dd1d8>
  8c:	65746972 	0x65746972
  90:	63695f00 	0x63695f00
  94:	65725f75 	0x65725f75
  98:	5f006461 	bgtzl	t8,19220 <_locks_read+0x18e6c>
  9c:	656d6974 	0x656d6974
  a0:	65725f72 	0x65725f72
  a4:	73006461 	0x73006461
  a8:	675f6765 	0x675f6765
  ac:	625f6463 	0x625f6463
  b0:	00657361 	0x657361
  b4:	5f616d64 	0x5f616d64
  b8:	72646461 	0x72646461
  bc:	00737365 	0x737365
  c0:	616d645f 	0x616d645f
  c4:	6165725f 	0x6165725f
  c8:	6c700064 	0x6c700064
  cc:	0066756f 	0x66756f
  d0:	5f797474 	0x5f797474
  d4:	65646e69 	0x65646e69
  d8:	65640078 	0x65640078
  dc:	0079616c 	0x79616c
  e0:	6573752f 	0x6573752f
  e4:	632f7372 	0x632f7372
  e8:	612f6f61 	0x612f6f61
  ec:	6e69616c 	0x6e69616c
  f0:	5f65752f 	0x5f65752f
  f4:	6c636f73 	0x6c636f73
  f8:	742f6269 	jalx	bd89a4 <_locks_read+0xbd85f0>
  fc:	732f3470 	0x732f3470
 100:	0074666f 	0x74666f
 104:	636f6c5f 	0x636f6c5f
 108:	725f736b 	0x725f736b
 10c:	00646165 	0x646165
 110:	6978655f 	0x6978655f
 114:	65730074 	0x65730074
 118:	63695f67 	0x63695f67
 11c:	61625f75 	0x61625f75
 120:	73006573 	0x73006573
 124:	745f6765 	jalx	17d9d94 <_locks_read+0x17d99e0>
 128:	72656d69 	0x72656d69
 12c:	7361625f 	0x7361625f
 130:	6c5f0065 	0x6c5f0065
 134:	736b636f 	0x736b636f
 138:	6972775f 	0x6972775f
 13c:	54006574 	bnezl	zero,19710 <_locks_read+0x1935c>
 140:	52454d49 	beql	s2,a1,13668 <_locks_read+0x132b4>
 144:	5345525f 	beql	k0,a1,14ac4 <_locks_read+0x14710>
 148:	52495445 	beql	s2,t1,15260 <_locks_read+0x14eac>
 14c:	54540051 	bnel	v0,s4,294 <_dma_write+0x28>
 150:	45525f59 	0x45525f59
 154:	5f004441 	bgtzl	t8,1125c <_locks_read+0x10ea8>
 158:	5f797474 	0x5f797474
 15c:	64616572 	0x64616572
 160:	67657300 	0x67657300
 164:	7974745f 	0x7974745f
 168:	7361625f 	0x7361625f
 16c:	6f6c0065 	0x6f6c0065
 170:	5f736b63 	0x5f736b63
 174:	72646461 	0x72646461
 178:	00737365 	0x737365
 17c:	72616863 	0x72616863
 180:	74745f00 	jalx	1d17c00 <_locks_read+0x1d1784c>
 184:	72775f79 	0x72775f79
 188:	00657469 	0x657469
 18c:	5f595454 	0x5f595454
 190:	4e415053 	c3	0x415053
 194:	6d645f00 	0x6d645f00
 198:	72775f61 	0x72775f61
 19c:	00657469 	0x657469
 1a0:	5f797474 	0x5f797474
 1a4:	72646461 	0x72646461
 1a8:	00737365 	0x737365
 1ac:	69676572 	0x69676572
 1b0:	72657473 	0x72657473
 1b4:	646e695f 	0x646e695f
 1b8:	53007865 	beqzl	t8,1e350 <_locks_read+0x1df9c>
 1bc:	696c636f 	0x696c636f
 1c0:	79745462 	0x79745462
 1c4:	69676552 	0x69676552
 1c8:	72657473 	0x72657473
 1cc:	616d0073 	0x616d0073
 1d0:	74745f78 	jalx	1d17de0 <_locks_read+0x1d17a2c>
 1d4:	756e5f79 	jalx	5b97de4 <_locks_read+0x5b97a30>
 1d8:	7265626d 	0x7265626d
 1dc:	636f5300 	0x636f5300
 1e0:	5462696c 	bnel	v1,v0,1a794 <_locks_read+0x1a3e0>
 1e4:	72656d69 	0x72656d69
 1e8:	69676552 	0x69676552
 1ec:	72657473 	0x72657473
 1f0:	745f0073 	jalx	17c01cc <_locks_read+0x17bfe18>
 1f4:	72656d69 	0x72656d69
 1f8:	6972775f 	0x6972775f
 1fc:	74006574 	jalx	195d0 <_locks_read+0x1921c>
 200:	72656d69 	0x72656d69
 204:	6464615f 	0x6464615f
 208:	73736572 	0x73736572
 20c:	74796200 	jalx	1e58800 <_locks_read+0x1e5844c>
 210:	75620065 	jalx	5880194 <_locks_read+0x587fde0>
 214:	72656666 	0x72656666
 218:	4d495400 	0x4d495400
 21c:	565f5245 	bnel	s2,ra,14b34 <_locks_read+0x14780>
 220:	45554c41 	0x45554c41
 224:	72705f00 	0x72705f00
 228:	6469636f 	0x6469636f
 22c:	63675f00 	0x63675f00
 230:	65725f64 	0x65725f64
 234:	69006461 	0x69006461
 238:	615f7563 	0x615f7563
 23c:	65726464 	0x65726464
 240:	54007373 	bnezl	zero,1d010 <_locks_read+0x1cc5c>
 244:	52454d49 	beql	s2,a1,1376c <_locks_read+0x133b8>
 248:	5245505f 	beql	s2,a1,143c8 <_locks_read+0x14014>
 24c:	00444f49 	0x444f49
 250:	20554e47 	addi	s5,v0,20039
 254:	2e342043 	sltiu	s4,s1,8259
 258:	20332e33 	addi	s3,at,11827
 25c:	5f00672d 	bgtzl	t8,19f14 <_locks_read+0x19b60>
 260:	5f646367 	0x5f646367
 264:	74697277 	jalx	1a5c9dc <_locks_read+0x1a5c628>
 268:	656c0065 	0x656c0065
 26c:	6874676e 	0x6874676e
 270:	64636700 	0x64636700
 274:	6464615f 	0x6464615f
 278:	73736572 	0x73736572
 27c:	4d495400 	0x4d495400
 280:	4d5f5245 	0x4d5f5245
 284:	0045444f 	0x45444f
 288:	6f72705f 	0x6f72705f
 28c:	6d697463 	0x6d697463
 290:	Address 0x0000000000000290 is out of bounds.


Disassembly of section .comment:

00000000 <.comment>:
   0:	43434700 	c0	0x1434700
   4:	4728203a 	c1	0x128203a
   8:	2029554e 	addi	t1,at,21838
   c:	2e332e34 	sltiu	s3,s1,11828
  10:	Address 0x0000000000000010 is out of bounds.


Disassembly of section .gnu.attributes:

00000000 <.gnu.attributes>:
   0:	00000f41 	0xf41
   4:	756e6700 	jalx	5b99c00 <_locks_read+0x5b9984c>
   8:	00070100 	sll	zero,a3,0x4
   c:	01040000 	0x1040000
