
userio.o:     file format elf32-littlemips


Disassembly of section .text:

00000000 <user_putc>:
   0:	27bdffe8 	addiu	sp,sp,-24
   4:	afb00010 	sw	s0,16(sp)
   8:	afbf0014 	sw	ra,20(sp)
   c:	0c000000 	jal	0 <user_putc>
  10:	00048600 	sll	s0,a0,0x18
  14:	00021880 	sll	v1,v0,0x2
  18:	00402821 	move	a1,v0
  1c:	3c020000 	lui	v0,0x0
  20:	24420000 	addiu	v0,v0,0
  24:	00108603 	sra	s0,s0,0x18
  28:	00432021 	addu	a0,v0,v1
  2c:	8c820000 	lw	v0,0(a0)
  30:	1440fffe 	bnez	v0,2c <user_putc+0x2c>
  34:	3c020000 	lui	v0,0x0
  38:	24420000 	addiu	v0,v0,0
  3c:	00a21021 	addu	v0,a1,v0
  40:	a0500000 	sb	s0,0(v0)
  44:	8fbf0014 	lw	ra,20(sp)
  48:	24030001 	li	v1,1
  4c:	8fb00010 	lw	s0,16(sp)
  50:	ac830000 	sw	v1,0(a0)
  54:	03e00008 	jr	ra
  58:	27bd0018 	addiu	sp,sp,24

0000005c <user_getc>:
  5c:	27bdffe8 	addiu	sp,sp,-24
  60:	afb00010 	sw	s0,16(sp)
  64:	afbf0014 	sw	ra,20(sp)
  68:	0c000000 	jal	0 <user_putc>
  6c:	00808021 	move	s0,a0
  70:	00021880 	sll	v1,v0,0x2
  74:	00402821 	move	a1,v0
  78:	3c020000 	lui	v0,0x0
  7c:	24420000 	addiu	v0,v0,0
  80:	00432021 	addu	a0,v0,v1
  84:	8c820000 	lw	v0,0(a0)
  88:	1040fffe 	beqz	v0,84 <user_getc+0x28>
  8c:	3c020000 	lui	v0,0x0
  90:	24420000 	addiu	v0,v0,0
  94:	00a21021 	addu	v0,a1,v0
  98:	90430000 	lbu	v1,0(v0)
  9c:	a2030000 	sb	v1,0(s0)
  a0:	8fbf0014 	lw	ra,20(sp)
  a4:	8fb00010 	lw	s0,16(sp)
  a8:	ac800000 	sw	zero,0(a0)
  ac:	03e00008 	jr	ra
  b0:	27bd0018 	addiu	sp,sp,24

Disassembly of section .bss:

00000000 <DMA_SYNC>:
   0:	00000000 	nop

00000004 <TTY_GET_SYNC>:
	...

00000024 <TTY_GET_DATA>:
	...

0000002c <TTY_PUT_SYNC>:
	...

0000004c <TTY_PUT_DATA>:
	...

Disassembly of section .reginfo:

00000000 <.reginfo>:
   0:	a001003c 	sb	at,60(zero)
	...

Disassembly of section .pdr:

00000000 <.pdr>:
   0:	00000000 	nop
   4:	80010000 	lb	at,0(zero)
   8:	fffffffc 	sdc3	$31,-4(ra)
	...
  14:	00000018 	mult	zero,zero
  18:	0000001d 	0x1d
  1c:	0000001f 	0x1f
  20:	00000000 	nop
  24:	80010000 	lb	at,0(zero)
  28:	fffffffc 	sdc3	$31,-4(ra)
	...
  34:	00000018 	mult	zero,zero
  38:	0000001d 	0x1d
  3c:	0000001f 	0x1f

Disassembly of section .debug_abbrev:

00000000 <.debug_abbrev>:
   0:	25011101 	addiu	at,t0,4353
   4:	030b130e 	0x30b130e
   8:	110e1b0e 	beq	t0,t6,6c44 <user_getc+0x6be8>
   c:	10011201 	beq	zero,at,4814 <user_getc+0x47b8>
  10:	02000006 	srlv	zero,zero,s0
  14:	0c3f012e 	jal	fc04b8 <user_getc+0xfc045c>
  18:	0b3a0e03 	j	ce8380c <user_getc+0xce837b0>
  1c:	0c270b3b 	jal	9c2cec <user_getc+0x9c2c90>
  20:	01120111 	0x1120111
  24:	40064081 	0x40064081
  28:	00130106 	0x130106
  2c:	00050300 	sll	zero,a1,0xc
  30:	0b3a0803 	j	ce8200c <user_getc+0xce81fb0>
  34:	13490b3b 	beq	k0,t1,2d24 <user_getc+0x2cc8>
  38:	00000602 	srl	zero,zero,0x18
  3c:	03003404 	0x3003404
  40:	3b0b3a0e 	xori	t3,t8,0x3a0e
  44:	0213490b 	0x213490b
  48:	05000006 	bltz	t0,64 <.debug_abbrev+0x64>
  4c:	0b0b0024 	j	c2c0090 <user_getc+0xc2c0034>
  50:	0e030b3e 	jal	80c2cf8 <user_getc+0x80c2c9c>
  54:	24060000 	li	a2,0
  58:	3e0b0b00 	0x3e0b0b00
  5c:	0008030b 	0x8030b
  60:	000f0700 	sll	zero,t7,0x1c
  64:	13490b0b 	beq	k0,t1,2c94 <user_getc+0x2c38>
  68:	34080000 	li	t0,0x0
  6c:	3a0e0300 	xori	t6,s0,0x300
  70:	490b3b0b 	bc2tl	$cc2,eca0 <user_getc+0xec44>
  74:	020c3f13 	0x20c3f13
  78:	0900000a 	j	4000028 <user_getc+0x3ffffcc>
  7c:	13490035 	beq	k0,t1,154 <user_getc+0xf8>
  80:	010a0000 	0x10a0000
  84:	01134901 	0x1134901
  88:	0b000013 	j	c00004c <user_getc+0xbfffff0>
  8c:	13490021 	beq	k0,t1,114 <user_getc+0xb8>
  90:	00000b2f 	0xb2f
  94:	0b00240c 	j	c009030 <user_getc+0xc008fd4>
  98:	000b3e0b 	0xb3e0b
	...

Disassembly of section .debug_info:

00000000 <.debug_info>:
   0:	00000144 	0x144
   4:	00000002 	srl	zero,zero,0x0
   8:	01040000 	0x1040000
   c:	0000005f 	0x5f
  10:	00008a01 	0x8a01
  14:	00000d00 	sll	at,zero,0x14
  18:	00000000 	nop
  1c:	0000b400 	sll	s6,zero,0x10
  20:	00000000 	nop
  24:	48010200 	0x48010200
  28:	01000000 	0x1000000
  2c:	0000012e 	0x12e
  30:	005c0000 	0x5c0000
  34:	00100000 	sll	zero,s0,0x0
  38:	00000000 	nop
  3c:	00610000 	0x610000
  40:	76030000 	jalx	80c0000 <user_getc+0x80bffa4>
  44:	01006c61 	0x1006c61
  48:	0000612d 	0x612d
  4c:	00001f00 	sll	v1,zero,0x1c
  50:	007b0400 	0x7b0400
  54:	2f010000 	sltiu	at,t8,0
  58:	00000068 	0x68
  5c:	0000003d 	0x3d
  60:	06010500 	bgez	s0,1464 <user_getc+0x1408>
  64:	00000085 	0x85
  68:	69050406 	0x69050406
  6c:	0200746e 	0x200746e
  70:	00003101 	0x3101
  74:	011d0100 	0x11d0100
  78:	0000005c 	0x5c
  7c:	000000b4 	teq	zero,zero,0x2
  80:	00000028 	0x28
  84:	00000050 	0x50
  88:	000000ab 	0xab
  8c:	66756203 	0x66756203
  90:	ab1c0100 	swl	gp,256(t8)
  94:	6f000000 	0x6f000000
  98:	04000000 	bltz	zero,9c <.debug_info+0x9c>
  9c:	0000007b 	0x7b
  a0:	00681e01 	0x681e01
  a4:	008d0000 	0x8d0000
  a8:	07000000 	bltz	t8,ac <.debug_info+0xac>
  ac:	00006104 	0x6104
  b0:	00930800 	0x930800
  b4:	0b010000 	j	c040000 <user_getc+0xc03ffa4>
  b8:	000000c3 	sra	zero,zero,0x3
  bc:	00030501 	0x30501
  c0:	09000000 	j	4000000 <user_getc+0x3ffffa4>
  c4:	00000068 	0x68
  c8:	0000680a 	movz	t5,zero,zero
  cc:	0000d800 	sll	k1,zero,0x0
  d0:	00d80b00 	0xd80b00
  d4:	00070000 	sll	zero,a3,0x0
  d8:	0807040c 	j	1c1030 <user_getc+0x1c0fd4>
  dc:	0000003b 	0x3b
  e0:	00ed0d01 	0xed0d01
  e4:	05010000 	bgez	t0,e8 <.debug_info+0xe8>
  e8:	00000003 	sra	zero,zero,0x0
  ec:	00c80900 	0xc80900
  f0:	610a0000 	0x610a0000
  f4:	02000000 	0x2000000
  f8:	0b000001 	j	c000004 <user_getc+0xbffffa8>
  fc:	000000d8 	0xd8
 100:	52080007 	beql	s0,t0,120 <.debug_info+0x120>
 104:	01000000 	0x1000000
 108:	0001140e 	0x1140e
 10c:	03050100 	0x3050100
 110:	00000000 	nop
 114:	0000f209 	0xf209
 118:	00000800 	sll	at,zero,0x0
 11c:	10010000 	beq	zero,at,120 <.debug_info+0x120>
 120:	0000012b 	0x12b
 124:	00030501 	0x30501
 128:	09000000 	j	4000000 <user_getc+0x3ffffa4>
 12c:	000000c8 	0xc8
 130:	00006e08 	0x6e08
 134:	42110100 	c0	0x110100
 138:	01000001 	movf	zero,t0,$fcc0
 13c:	00000305 	0x305
 140:	f2090000 	0xf2090000
 144:	00000000 	nop

Disassembly of section .debug_line:

00000000 <.debug_line>:
   0:	00000048 	0x48
   4:	001f0002 	srl	zero,ra,0x0
   8:	01010000 	0x1010000
   c:	000d0efb 	0xd0efb
  10:	01010101 	0x1010101
  14:	01000000 	0x1000000
  18:	00010000 	sll	zero,at,0x0
  1c:	72657375 	0x72657375
  20:	632e6f69 	0x632e6f69
  24:	00000000 	nop
  28:	02050000 	0x2050000
  2c:	00000000 	nop
  30:	bb012d03 	swr	at,11523(t8)
  34:	f34c80f3 	0xf34c80f3
  38:	484c48bd 	0x484c48bd
  3c:	8269034c 	lb	t1,844(s3)
  40:	7508f3bb 	jalx	423ceec <user_getc+0x423ce90>
  44:	024c80f5 	0x24c80f5
  48:	01010008 	0x1010008

Disassembly of section .debug_frame:

00000000 <.debug_frame>:
   0:	0000000c 	syscall
   4:	ffffffff 	sdc3	$31,-1(ra)
   8:	7c010001 	0x7c010001
   c:	001d0c1f 	0x1d0c1f
  10:	00000014 	0x14
	...
  1c:	0000005c 	0x5c
  20:	48180e44 	0x48180e44
  24:	0290019f 	0x290019f
  28:	00000014 	0x14
  2c:	00000000 	nop
  30:	0000005c 	0x5c
  34:	00000058 	0x58
  38:	48180e44 	0x48180e44
  3c:	0290019f 	0x290019f

Disassembly of section .debug_loc:

00000000 <.debug_loc>:
   0:	00000000 	nop
   4:	00000004 	sllv	zero,zero,zero
   8:	046d0001 	0x46d0001
   c:	5c000000 	bgtzl	zero,10 <.debug_loc+0x10>
  10:	02000000 	0x2000000
  14:	00188d00 	sll	s1,t8,0x14
	...
  20:	0c000000 	jal	0 <.debug_loc>
  24:	01000000 	0x1000000
  28:	000c5400 	sll	t2,t4,0x10
  2c:	00500000 	0x500000
  30:	00010000 	sll	zero,at,0x0
  34:	00000060 	0x60
  38:	00000000 	nop
  3c:	00001800 	sll	v1,zero,0x0
  40:	00001c00 	sll	v1,zero,0x10
  44:	52000100 	beqzl	s0,448 <user_getc+0x3ec>
  48:	00000000 	nop
  4c:	00000000 	nop
  50:	0000005c 	0x5c
  54:	00000060 	0x60
  58:	606d0001 	0x606d0001
  5c:	b4000000 	0xb4000000
  60:	02000000 	0x2000000
  64:	00188d00 	sll	s1,t8,0x14
  68:	00000000 	nop
  6c:	5c000000 	bgtzl	zero,70 <.debug_loc+0x70>
  70:	70000000 	madd	zero,zero
  74:	01000000 	0x1000000
  78:	00705400 	0x705400
  7c:	00a80000 	0xa80000
  80:	00010000 	sll	zero,at,0x0
  84:	00000060 	0x60
  88:	00000000 	nop
  8c:	00007400 	sll	t6,zero,0x10
  90:	00007800 	sll	t7,zero,0x0
  94:	52000100 	beqzl	s0,498 <user_getc+0x43c>
  98:	00000000 	nop
  9c:	00000000 	nop

Disassembly of section .debug_pubnames:

00000000 <.debug_pubnames>:
   0:	0000007b 	0x7b
   4:	00000002 	srl	zero,zero,0x0
   8:	01480000 	0x1480000
   c:	00250000 	0x250000
  10:	73750000 	madd	k1,s5
  14:	705f7265 	0x705f7265
  18:	00637475 	0x637475
  1c:	0000006f 	0x6f
  20:	72657375 	0x72657375
  24:	7465675f 	jalx	1959d7c <user_getc+0x1959d20>
  28:	00b10063 	0xb10063
  2c:	4d440000 	0x4d440000
  30:	59535f41 	0x59535f41
  34:	db00434e 	ldc2	$0,17230(t8)
  38:	54000000 	bnezl	zero,3c <.debug_pubnames+0x3c>
  3c:	475f5954 	c1	0x15f5954
  40:	535f5445 	beql	k0,ra,15158 <user_getc+0x150fc>
  44:	00434e59 	0x434e59
  48:	00000102 	srl	zero,zero,0x4
  4c:	5f595454 	0x5f595454
  50:	5f544547 	0x5f544547
  54:	41544144 	0x41544144
  58:	00011900 	sll	v1,at,0x4
  5c:	59545400 	0x59545400
  60:	5455505f 	bnel	v0,s5,141e0 <user_getc+0x14184>
  64:	4e59535f 	c3	0x59535f
  68:	01300043 	0x1300043
  6c:	54540000 	bnel	v0,s4,70 <.debug_pubnames+0x70>
  70:	55505f59 	bnel	t2,s0,17dd8 <user_getc+0x17d7c>
  74:	41445f54 	0x41445f54
  78:	00004154 	0x4154
  7c:	Address 0x000000000000007c is out of bounds.


Disassembly of section .debug_aranges:

00000000 <.debug_aranges>:
   0:	0000001c 	0x1c
   4:	00000002 	srl	zero,zero,0x0
   8:	00040000 	sll	zero,a0,0x0
	...
  14:	000000b4 	teq	zero,zero,0x2
	...

Disassembly of section .debug_str:

00000000 <.debug_str>:
   0:	5f595454 	0x5f595454
   4:	5f545550 	0x5f545550
   8:	434e5953 	c0	0x14e5953
   c:	73752f00 	0x73752f00
  10:	2f737265 	sltiu	s3,k1,29285
  14:	2f6f6163 	sltiu	t7,k1,24931
  18:	69616c61 	0x69616c61
  1c:	65752f6e 	0x65752f6e
  20:	636f735f 	0x636f735f
  24:	2f62696c 	sltiu	v0,k1,26988
  28:	2f347074 	sltiu	s4,t9,28788
  2c:	74666f73 	jalx	199bdcc <user_getc+0x199bd70>
  30:	65737500 	0x65737500
  34:	65675f72 	0x65675f72
  38:	54006374 	bnezl	zero,18e0c <user_getc+0x18db0>
  3c:	475f5954 	c1	0x15f5954
  40:	535f5445 	beql	k0,ra,15158 <user_getc+0x150fc>
  44:	00434e59 	0x434e59
  48:	72657375 	0x72657375
  4c:	7475705f 	jalx	1d5c17c <user_getc+0x1d5c120>
  50:	54540063 	bnel	v0,s4,1e0 <user_getc+0x184>
  54:	45475f59 	0x45475f59
  58:	41445f54 	0x41445f54
  5c:	47004154 	c1	0x1004154
  60:	4320554e 	c0	0x120554e
  64:	332e3420 	andi	t6,t9,0x3420
  68:	2d20332e 	sltiu	zero,t1,13102
  6c:	54540067 	bnel	v0,s4,20c <user_getc+0x1b0>
  70:	55505f59 	bnel	t2,s0,17dd8 <user_getc+0x17d7c>
  74:	41445f54 	0x41445f54
  78:	74004154 	jalx	10550 <user_getc+0x104f4>
  7c:	695f7974 	0x695f7974
  80:	7865646e 	0x7865646e
  84:	61686300 	0x61686300
  88:	73750072 	0x73750072
  8c:	6f697265 	0x6f697265
  90:	4400632e 	0x4400632e
  94:	535f414d 	beql	k0,ra,105cc <user_getc+0x10570>
  98:	00434e59 	0x434e59

Disassembly of section .comment:

00000000 <.comment>:
   0:	43434700 	c0	0x1434700
   4:	4728203a 	c1	0x128203a
   8:	2029554e 	addi	t1,at,21838
   c:	2e332e34 	sltiu	s3,s1,11828
  10:	Address 0x0000000000000010 is out of bounds.


Disassembly of section .gnu.attributes:

00000000 <.gnu.attributes>:
   0:	00000f41 	0xf41
   4:	756e6700 	jalx	5b99c00 <user_getc+0x5b99ba4>
   8:	00070100 	sll	zero,a3,0x4
   c:	01040000 	0x1040000
