
bin.soft:     file format elf32-littlemips


Disassembly of section seg_kcode:

80000000 <tab_causes>:
80000000:	800002d4 	lb	zero,724(zero)
80000004:	80000468 	lb	zero,1128(zero)
80000008:	80000468 	lb	zero,1128(zero)
8000000c:	80000468 	lb	zero,1128(zero)
80000010:	80000468 	lb	zero,1128(zero)
80000014:	80000468 	lb	zero,1128(zero)
80000018:	80000468 	lb	zero,1128(zero)
8000001c:	80000468 	lb	zero,1128(zero)
80000020:	8000019c 	lb	zero,412(zero)
80000024:	80000468 	lb	zero,1128(zero)
80000028:	80000468 	lb	zero,1128(zero)
8000002c:	80000468 	lb	zero,1128(zero)
80000030:	80000468 	lb	zero,1128(zero)
80000034:	80000468 	lb	zero,1128(zero)
80000038:	80000468 	lb	zero,1128(zero)
8000003c:	80000468 	lb	zero,1128(zero)
	...

80000180 <_giet>:
80000180:	401b6800 	mfc0	k1,c0_cause
80000184:	3c1a8000 	lui	k0,0x8000
80000188:	337b003c 	andi	k1,k1,0x3c
8000018c:	035bd021 	addu	k0,k0,k1
80000190:	8f5a0000 	lw	k0,0(k0)
80000194:	03400008 	jr	k0
80000198:	00000000 	nop

8000019c <_sys_handler>:
8000019c:	27bdffe8 	addiu	sp,sp,-24
800001a0:	401a6000 	mfc0	k0,c0_status
800001a4:	afba0010 	sw	k0,16(sp)
800001a8:	401b7000 	mfc0	k1,c0_epc
800001ac:	277b0004 	addiu	k1,k1,4
800001b0:	afbb0014 	sw	k1,20(sp)
800001b4:	305a001f 	andi	k0,v0,0x1f
800001b8:	001ad080 	sll	k0,k0,0x2
800001bc:	3c1b8000 	lui	k1,0x8000
800001c0:	277b0254 	addiu	k1,k1,596
800001c4:	037ad821 	addu	k1,k1,k0
800001c8:	8f630000 	lw	v1,0(k1)
800001cc:	241bffed 	li	k1,-19
800001d0:	401a6000 	mfc0	k0,c0_status
800001d4:	035bd024 	and	k0,k0,k1
800001d8:	0060f809 	jalr	v1
800001dc:	409a6000 	mtc0	k0,c0_status
800001e0:	40806000 	mtc0	zero,c0_status
800001e4:	8fba0010 	lw	k0,16(sp)
800001e8:	409a6000 	mtc0	k0,c0_status
800001ec:	8fba0014 	lw	k0,20(sp)
800001f0:	409a7000 	mtc0	k0,c0_epc
800001f4:	27bd0018 	addiu	sp,sp,24
800001f8:	42000018 	eret

800001fc <_sys_ukn>:
800001fc:	3c048000 	lui	a0,0x8000
80000200:	2484056f 	addiu	a0,a0,1391
80000204:	0c000374 	jal	80000dd0 <_tty_write>
80000208:	24050024 	li	a1,36
8000020c:	3c048000 	lui	a0,0x8000
80000210:	24840541 	addiu	a0,a0,1345
80000214:	0c000374 	jal	80000dd0 <_tty_write>
80000218:	24050008 	li	a1,8
8000021c:	40047000 	mfc0	a0,c0_epc
80000220:	3c058000 	lui	a1,0x8000
80000224:	24a50248 	addiu	a1,a1,584
80000228:	0c0002f7 	jal	80000bdc <_itoa_hex>
8000022c:	24a50002 	addiu	a1,a1,2
80000230:	3c048000 	lui	a0,0x8000
80000234:	24840248 	addiu	a0,a0,584
80000238:	0c000374 	jal	80000dd0 <_tty_write>
8000023c:	2405000a 	li	a1,10
80000240:	08000460 	j	80001180 <_exit>
80000244:	00000000 	nop

80000248 <itoa_buffer>:
80000248:	30307830 	andi	s0,at,0x7830
8000024c:	30303030 	andi	s0,at,0x3030
80000250:	00003030 	tge	zero,zero,0xc0

80000254 <tab_syscalls>:
80000254:	800009e4 	lb	zero,2532(zero)
80000258:	80000a00 	lb	zero,2560(zero)
8000025c:	80000dd0 	lb	zero,3536(zero)
80000260:	80001058 	lb	zero,4184(zero)
80000264:	80000cb4 	lb	zero,3252(zero)
80000268:	80000d40 	lb	zero,3392(zero)
8000026c:	80001374 	lb	zero,4980(zero)
80000270:	800013d0 	lb	zero,5072(zero)
80000274:	80001240 	lb	zero,4672(zero)
80000278:	800012d8 	lb	zero,4824(zero)
8000027c:	80000f18 	lb	zero,3864(zero)
80000280:	800001fc 	lb	zero,508(zero)
80000284:	80001430 	lb	zero,5168(zero)
80000288:	80001494 	lb	zero,5268(zero)
8000028c:	80001180 	lb	zero,4480(zero)
80000290:	800001fc 	lb	zero,508(zero)
80000294:	80001810 	lb	zero,6160(zero)
80000298:	800018d0 	lb	zero,6352(zero)
8000029c:	80001998 	lb	zero,6552(zero)
800002a0:	80001aac 	lb	zero,6828(zero)
800002a4:	80001bcc 	lb	zero,7116(zero)
800002a8:	80001544 	lb	zero,5444(zero)
800002ac:	80001670 	lb	zero,5744(zero)
800002b0:	800017b4 	lb	zero,6068(zero)
800002b4:	800001fc 	lb	zero,508(zero)
800002b8:	800001fc 	lb	zero,508(zero)
800002bc:	800001fc 	lb	zero,508(zero)
800002c0:	800001fc 	lb	zero,508(zero)
800002c4:	800001fc 	lb	zero,508(zero)
800002c8:	800001fc 	lb	zero,508(zero)
800002cc:	800001fc 	lb	zero,508(zero)
800002d0:	800001fc 	lb	zero,508(zero)

800002d4 <_int_handler>:
800002d4:	27bdffa4 	addiu	sp,sp,-92
800002d8:	afa10010 	sw	at,16(sp)
800002dc:	afa20014 	sw	v0,20(sp)
800002e0:	afa30018 	sw	v1,24(sp)
800002e4:	afa4001c 	sw	a0,28(sp)
800002e8:	afa50020 	sw	a1,32(sp)
800002ec:	afa60024 	sw	a2,36(sp)
800002f0:	afa70028 	sw	a3,40(sp)
800002f4:	afa8002c 	sw	t0,44(sp)
800002f8:	afa90030 	sw	t1,48(sp)
800002fc:	afaa0034 	sw	t2,52(sp)
80000300:	afab0038 	sw	t3,56(sp)
80000304:	afac003c 	sw	t4,60(sp)
80000308:	afad0040 	sw	t5,64(sp)
8000030c:	afae0044 	sw	t6,68(sp)
80000310:	afaf0048 	sw	t7,72(sp)
80000314:	afb8004c 	sw	t8,76(sp)
80000318:	afb90050 	sw	t9,80(sp)
8000031c:	afbf0054 	sw	ra,84(sp)
80000320:	401b7000 	mfc0	k1,c0_epc
80000324:	afbb0058 	sw	k1,88(sp)
80000328:	401b7801 	mfc0	k1,$15,1
8000032c:	337b0007 	andi	k1,k1,0x7
80000330:	001bdf00 	sll	k1,k1,0x1c
80000334:	3c1a8600 	lui	k0,0x8600
80000338:	275a0000 	addiu	k0,k0,0
8000033c:	035bd020 	add	k0,k0,k1
80000340:	8f5a0010 	lw	k0,16(k0)
80000344:	001ad942 	srl	k1,k0,0x5
80000348:	17600008 	bnez	k1,8000036c <restore>
8000034c:	00000000 	nop
80000350:	001ad080 	sll	k0,k0,0x2
80000354:	3c1b8000 	lui	k1,0x8000
80000358:	277b03e8 	addiu	k1,k1,1000
8000035c:	035bd021 	addu	k0,k0,k1
80000360:	8f5a0000 	lw	k0,0(k0)
80000364:	0340f809 	jalr	k0
80000368:	00000000 	nop

8000036c <restore>:
8000036c:	8fa10010 	lw	at,16(sp)
80000370:	8fa20014 	lw	v0,20(sp)
80000374:	8fa30018 	lw	v1,24(sp)
80000378:	8fa4001c 	lw	a0,28(sp)
8000037c:	8fa50020 	lw	a1,32(sp)
80000380:	8fa60024 	lw	a2,36(sp)
80000384:	8fa70028 	lw	a3,40(sp)
80000388:	8fa8002c 	lw	t0,44(sp)
8000038c:	8fa90030 	lw	t1,48(sp)
80000390:	8faa0034 	lw	t2,52(sp)
80000394:	8fab0038 	lw	t3,56(sp)
80000398:	8fac003c 	lw	t4,60(sp)
8000039c:	8fad0040 	lw	t5,64(sp)
800003a0:	8fae0044 	lw	t6,68(sp)
800003a4:	8faf0048 	lw	t7,72(sp)
800003a8:	8fb8004c 	lw	t8,76(sp)
800003ac:	8fb90050 	lw	t9,80(sp)
800003b0:	8fbf0054 	lw	ra,84(sp)
800003b4:	8fbb0058 	lw	k1,88(sp)
800003b8:	27bd005c 	addiu	sp,sp,92
800003bc:	409b7000 	mtc0	k1,c0_epc
800003c0:	42000018 	eret

800003c4 <isr_default>:
800003c4:	27bdffec 	addiu	sp,sp,-20
800003c8:	afbf0010 	sw	ra,16(sp)
800003cc:	3c048000 	lui	a0,0x8000
800003d0:	2484054a 	addiu	a0,a0,1354
800003d4:	0c000374 	jal	80000dd0 <_tty_write>
800003d8:	20050024 	addi	a1,zero,36
800003dc:	8fbf0010 	lw	ra,16(sp)
800003e0:	03e00008 	jr	ra
800003e4:	27bd0014 	addiu	sp,sp,20

800003e8 <_interrupt_vector>:
800003e8:	800003c4 	lb	zero,964(zero)
800003ec:	800003c4 	lb	zero,964(zero)
800003f0:	800003c4 	lb	zero,964(zero)
800003f4:	800003c4 	lb	zero,964(zero)
800003f8:	800003c4 	lb	zero,964(zero)
800003fc:	800003c4 	lb	zero,964(zero)
80000400:	800003c4 	lb	zero,964(zero)
80000404:	800003c4 	lb	zero,964(zero)
80000408:	800003c4 	lb	zero,964(zero)
8000040c:	800003c4 	lb	zero,964(zero)
80000410:	800003c4 	lb	zero,964(zero)
80000414:	800003c4 	lb	zero,964(zero)
80000418:	800003c4 	lb	zero,964(zero)
8000041c:	800003c4 	lb	zero,964(zero)
80000420:	800003c4 	lb	zero,964(zero)
80000424:	800003c4 	lb	zero,964(zero)
80000428:	800003c4 	lb	zero,964(zero)
8000042c:	800003c4 	lb	zero,964(zero)
80000430:	800003c4 	lb	zero,964(zero)
80000434:	800003c4 	lb	zero,964(zero)
80000438:	800003c4 	lb	zero,964(zero)
8000043c:	800003c4 	lb	zero,964(zero)
80000440:	800003c4 	lb	zero,964(zero)
80000444:	800003c4 	lb	zero,964(zero)
80000448:	800003c4 	lb	zero,964(zero)
8000044c:	800003c4 	lb	zero,964(zero)
80000450:	800003c4 	lb	zero,964(zero)
80000454:	800003c4 	lb	zero,964(zero)
80000458:	800003c4 	lb	zero,964(zero)
8000045c:	800003c4 	lb	zero,964(zero)
80000460:	800003c4 	lb	zero,964(zero)
80000464:	800003c4 	lb	zero,964(zero)

80000468 <_cause_adel>:
80000468:	401a6800 	mfc0	k0,c0_cause
8000046c:	335a003c 	andi	k0,k0,0x3c
80000470:	3c1b8000 	lui	k1,0x8000
80000474:	277b04f8 	addiu	k1,k1,1272
80000478:	035bd821 	addu	k1,k0,k1
8000047c:	8f640000 	lw	a0,0(k1)
80000480:	0c000374 	jal	80000dd0 <_tty_write>
80000484:	24050024 	li	a1,36
80000488:	3c048000 	lui	a0,0x8000
8000048c:	24840541 	addiu	a0,a0,1345
80000490:	0c000374 	jal	80000dd0 <_tty_write>
80000494:	24050008 	li	a1,8
80000498:	40047000 	mfc0	a0,c0_epc
8000049c:	3c058000 	lui	a1,0x8000
800004a0:	24a50248 	addiu	a1,a1,584
800004a4:	0c0002f7 	jal	80000bdc <_itoa_hex>
800004a8:	24a50002 	addiu	a1,a1,2
800004ac:	3c048000 	lui	a0,0x8000
800004b0:	24840248 	addiu	a0,a0,584
800004b4:	0c000374 	jal	80000dd0 <_tty_write>
800004b8:	2405000a 	li	a1,10
800004bc:	3c048000 	lui	a0,0x8000
800004c0:	24840538 	addiu	a0,a0,1336
800004c4:	0c000374 	jal	80000dd0 <_tty_write>
800004c8:	24050008 	li	a1,8
800004cc:	40044000 	mfc0	a0,c0_badvaddr
800004d0:	3c058000 	lui	a1,0x8000
800004d4:	24a50248 	addiu	a1,a1,584
800004d8:	0c0002f7 	jal	80000bdc <_itoa_hex>
800004dc:	24a50002 	addiu	a1,a1,2
800004e0:	3c048000 	lui	a0,0x8000
800004e4:	24840248 	addiu	a0,a0,584
800004e8:	0c000374 	jal	80000dd0 <_tty_write>
800004ec:	2405000a 	li	a1,10
800004f0:	08000460 	j	80001180 <_exit>
800004f4:	00000000 	nop

800004f8 <mess_causes>:
800004f8:	80000594 	lb	zero,1428(zero)
800004fc:	80000594 	lb	zero,1428(zero)
80000500:	80000594 	lb	zero,1428(zero)
80000504:	80000594 	lb	zero,1428(zero)
80000508:	800005b9 	lb	zero,1465(zero)
8000050c:	800005de 	lb	zero,1502(zero)
80000510:	80000603 	lb	zero,1539(zero)
80000514:	80000628 	lb	zero,1576(zero)
80000518:	80000594 	lb	zero,1428(zero)
8000051c:	8000064d 	lb	zero,1613(zero)
80000520:	80000672 	lb	zero,1650(zero)
80000524:	800006bc 	lb	zero,1724(zero)
80000528:	80000697 	lb	zero,1687(zero)
8000052c:	80000594 	lb	zero,1428(zero)
80000530:	80000594 	lb	zero,1428(zero)
80000534:	80000594 	lb	zero,1428(zero)

80000538 <msg_bar>:
80000538:	5241420a 	beql	s2,at,80010d64 <_isr_switch+0xefcc>
8000053c:	203d2020 	addi	sp,at,8224
	...

80000541 <msg_epc>:
80000541:	450a      	addiu	s0,a1,-6
80000543:	4350      	daddiu	v0,v1,0
80000545:	2020      	beqz	s0,80000587 <msg_uknsyscall+0x18>
80000547:	203d      	beqz	s0,800005c3 <msg_adel+0xa>
	...

8000054a <msg_default>:
8000054a:	20200a0a 	addi	zero,at,2570
8000054e:	20212121 	addi	at,at,8481
80000552:	61666544 	0x61666544
80000556:	20746c75 	addi	s4,v1,27765
8000055a:	20525349 	addi	s2,v0,21321
8000055e:	21212120 	addi	at,t1,8480
80000562:	20202020 	addi	zero,at,8224
80000566:	20202020 	addi	zero,at,8224
8000056a:	0a202020 	j	88808080 <seg_timer_base+0x808080>
8000056e:	200a0a00 	addi	t2,zero,2560

8000056f <msg_uknsyscall>:
8000056f:	0a0a      	la	v0,80000594 <msg_ukncause>
80000571:	2020      	beqz	s0,800005b3 <msg_ukncause+0x1f>
80000573:	2121      	beqz	s1,800005b7 <msg_ukncause+0x23>
80000575:	2021      	beqz	s0,800005b9 <msg_adel>
80000577:	6e55      	li	a2,85
80000579:	6564      	move	v1,a0
8000057b:	6966      	li	s1,102
8000057d:	656e      	move	t3,a2
8000057f:	2064      	beqz	s0,80000649 <msg_dbe+0x21>
80000581:	7953      	sd	v0,152(s1)
80000583:	7473      	cmpi	a0,115
80000585:	6d65      	li	a1,101
80000587:	4320      	addiu	s1,v1,0
80000589:	6c61      	li	a0,97
8000058b:	206c      	beqz	s0,80000665 <msg_bp+0x18>
8000058d:	2121      	beqz	s1,800005d1 <msg_adel+0x18>
8000058f:	2021      	beqz	s0,800005d3 <msg_adel+0x1a>
80000591:	0a20      	la	v0,80000610 <msg_ibe+0xd>
	...

80000594 <msg_ukncause>:
80000594:	78450a0a 	0x78450a0a
80000598:	74706563 	jalx	81c1958c <_isr_switch+0x1c177f4>
8000059c:	206e6f69 	addi	t6,v1,28521
800005a0:	7473203a 	jalx	81cc80e8 <_isr_switch+0x1cc6350>
800005a4:	676e6172 	0x676e6172
800005a8:	6e752065 	0x6e752065
800005ac:	776f6e6b 	jalx	8dbdb9ac <seg_gcd_base+0xbdb9ac>
800005b0:	6163206e 	0x6163206e
800005b4:	0a657375 	j	8995cdd4 <seg_ioc_base+0x95cdd4>
800005b8:	450a0a00 	bc1fl	$fcc2,80002dbc <_isr_switch+0x1024>

800005b9 <msg_adel>:
800005b9:	0a0a      	la	v0,800005e0 <msg_ades+0x2>
800005bb:	7845      	sd	v0,40(s0)
800005bd:	6563      	move	v1,v1
800005bf:	7470      	cmpi	a0,112
800005c1:	6f69      	li	a3,105
800005c3:	206e      	beqz	s0,800006a1 <msg_ovf+0xa>
800005c5:	203a      	beqz	s0,8000063b <msg_dbe+0x13>
800005c7:	6c69      	li	a0,105
800005c9:	656c      	move	t3,a0
800005cb:	6167      	btnez	8000069b <msg_ovf+0x4>
800005cd:	206c      	beqz	s0,800006a7 <msg_ovf+0x10>
800005cf:	6572      	move	s3,v0
800005d1:	6461      	restore	8,ra,s0
800005d3:	6120      	btnez	80000615 <msg_ibe+0x12>
800005d5:	6464      	restore	32,ra,s0
800005d7:	6572      	move	s3,v0
800005d9:	7373      	cmpi	v1,115
800005db:	0a20      	la	v0,80000658 <msg_bp+0xb>
	...

800005de <msg_ades>:
800005de:	78450a0a 	0x78450a0a
800005e2:	74706563 	jalx	81c1958c <_isr_switch+0x1c177f4>
800005e6:	206e6f69 	addi	t6,v1,28521
800005ea:	6c69203a 	0x6c69203a
800005ee:	6167656c 	0x6167656c
800005f2:	7277206c 	0x7277206c
800005f6:	20657469 	addi	a1,v1,29801
800005fa:	72646461 	0x72646461
800005fe:	0a737365 	j	89cdcd94 <seg_ioc_base+0xcdcd94>
80000602:	450a0a00 	bc1fl	$fcc2,80002e06 <_isr_switch+0x106e>

80000603 <msg_ibe>:
80000603:	0a0a      	la	v0,80000628 <msg_dbe>
80000605:	7845      	sd	v0,40(s0)
80000607:	6563      	move	v1,v1
80000609:	7470      	cmpi	a0,112
8000060b:	6f69      	li	a3,105
8000060d:	206e      	beqz	s0,800006eb <_ctx_switch+0x7>
8000060f:	203a      	beqz	s0,80000685 <msg_ri+0x13>
80000611:	6e69      	li	a2,105
80000613:	7473      	cmpi	a0,115
80000615:	6220      	sw	ra,128(sp)
80000617:	7375      	cmpi	v1,117
80000619:	6520      	move	at,s0
8000061b:	7272      	cmpi	v0,114
8000061d:	726f      	cmpi	v0,111
8000061f:	2020      	beqz	s0,80000661 <msg_bp+0x14>
80000621:	2020      	beqz	s0,80000663 <msg_bp+0x16>
80000623:	2020      	beqz	s0,80000665 <msg_bp+0x18>
80000625:	0a20      	la	v0,800006a4 <msg_ovf+0xd>
	...

80000628 <msg_dbe>:
80000628:	78450a0a 	0x78450a0a
8000062c:	74706563 	jalx	81c1958c <_isr_switch+0x1c177f4>
80000630:	206e6f69 	addi	t6,v1,28521
80000634:	6164203a 	0x6164203a
80000638:	62206174 	0x62206174
8000063c:	65207375 	0x65207375
80000640:	726f7272 	0x726f7272
80000644:	20202020 	addi	zero,at,8224
80000648:	0a202020 	j	88808080 <seg_timer_base+0x808080>
8000064c:	450a0a00 	bc1fl	$fcc2,80002e50 <_isr_switch+0x10b8>

8000064d <msg_bp>:
8000064d:	0a0a      	la	v0,80000674 <msg_ri+0x2>
8000064f:	7845      	sd	v0,40(s0)
80000651:	6563      	move	v1,v1
80000653:	7470      	cmpi	a0,112
80000655:	6f69      	li	a3,105
80000657:	206e      	beqz	s0,80000735 <do_it+0x21>
80000659:	203a      	beqz	s0,800006cf <msg_cpu+0x13>
8000065b:	7262      	cmpi	v0,98
8000065d:	6165      	btnez	80000729 <do_it+0x15>
8000065f:	706b      	cmpi	s0,107
80000661:	696f      	li	s1,111
80000663:	746e      	cmpi	a0,110
80000665:	2020      	beqz	s0,800006a7 <msg_ovf+0x10>
80000667:	2020      	beqz	s0,800006a9 <msg_ovf+0x12>
80000669:	2020      	beqz	s0,800006ab <msg_ovf+0x14>
8000066b:	2020      	beqz	s0,800006ad <msg_ovf+0x16>
8000066d:	2020      	beqz	s0,800006af <msg_ovf+0x18>
8000066f:	0a20      	la	v0,800006ec <_ctx_switch+0x8>
	...

80000672 <msg_ri>:
80000672:	78450a0a 	0x78450a0a
80000676:	74706563 	jalx	81c1958c <_isr_switch+0x1c177f4>
8000067a:	206e6f69 	addi	t6,v1,28521
8000067e:	6572203a 	0x6572203a
80000682:	76726573 	jalx	89c995cc <seg_ioc_base+0xc995cc>
80000686:	69206465 	0x69206465
8000068a:	7274736e 	0x7274736e
8000068e:	69746375 	0x69746375
80000692:	0a206e6f 	j	8881b9bc <seg_timer_base+0x81b9bc>
80000696:	450a0a00 	bc1fl	$fcc2,80002e9a <_isr_switch+0x1102>

80000697 <msg_ovf>:
80000697:	0a0a      	la	v0,800006bc <msg_cpu>
80000699:	7845      	sd	v0,40(s0)
8000069b:	6563      	move	v1,v1
8000069d:	7470      	cmpi	a0,112
8000069f:	6f69      	li	a3,105
800006a1:	206e      	beqz	s0,8000077f <do_it+0x6b>
800006a3:	203a      	beqz	s0,80000719 <do_it+0x5>
800006a5:	7261      	cmpi	v0,97
800006a7:	7469      	cmpi	a0,105
800006a9:	6d68      	li	a1,104
800006ab:	7465      	cmpi	a0,101
800006ad:	6369      	addiu	sp,840
800006af:	6f20      	li	a3,32
800006b1:	6576      	move	s3,a2
800006b3:	6672      	0x6672
800006b5:	6f6c      	li	a3,108
800006b7:	2077      	beqz	s0,800007a7 <do_it+0x93>
800006b9:	0a20      	la	v0,80000738 <do_it+0x24>
	...

800006bc <msg_cpu>:
800006bc:	78450a0a 	0x78450a0a
800006c0:	74706563 	jalx	81c1958c <_isr_switch+0x1c177f4>
800006c4:	206e6f69 	addi	t6,v1,28521
800006c8:	6c69203a 	0x6c69203a
800006cc:	6167656c 	0x6167656c
800006d0:	6f63206c 	0x6f63206c
800006d4:	636f7270 	0x636f7270
800006d8:	63636120 	0x63636120
800006dc:	0a737365 	j	89cdcd94 <seg_ioc_base+0xcdcd94>
800006e0:	00000000 	nop

800006e4 <_ctx_switch>:
800006e4:	401a7801 	mfc0	k0,$15,1
800006e8:	335a0007 	andi	k0,k0,0x7
800006ec:	001ad080 	sll	k0,k0,0x2
800006f0:	3c1b9100 	lui	k1,0x9100
800006f4:	277b2020 	addiu	k1,k1,8224
800006f8:	037ad821 	addu	k1,k1,k0
800006fc:	8f7b0000 	lw	k1,0(k1)
80000700:	237affff 	addi	k0,k1,-1
80000704:	17400003 	bnez	k0,80000714 <do_it>
80000708:	00000000 	nop
8000070c:	03e00008 	jr	ra
80000710:	00000000 	nop

80000714 <do_it>:
80000714:	401a7801 	mfc0	k0,$15,1
80000718:	335a0007 	andi	k0,k0,0x7
8000071c:	001ad080 	sll	k0,k0,0x2
80000720:	3c1b9100 	lui	k1,0x9100
80000724:	277b2000 	addiu	k1,k1,8192
80000728:	037ad821 	addu	k1,k1,k0
8000072c:	8f7a0000 	lw	k0,0(k1)
80000730:	001ad200 	sll	k0,k0,0x8
80000734:	3c1b9100 	lui	k1,0x9100
80000738:	277b0000 	addiu	k1,k1,0
8000073c:	037ad821 	addu	k1,k1,k0
80000740:	401a7801 	mfc0	k0,$15,1
80000744:	335a0007 	andi	k0,k0,0x7
80000748:	001ad280 	sll	k0,k0,0xa
8000074c:	037ad821 	addu	k1,k1,k0
80000750:	401a6000 	mfc0	k0,c0_status
80000754:	af7a0000 	sw	k0,0(k1)
80000758:	af610004 	sw	at,4(k1)
8000075c:	af620008 	sw	v0,8(k1)
80000760:	af63000c 	sw	v1,12(k1)
80000764:	af640010 	sw	a0,16(k1)
80000768:	af650014 	sw	a1,20(k1)
8000076c:	af660018 	sw	a2,24(k1)
80000770:	af67001c 	sw	a3,28(k1)
80000774:	af680020 	sw	t0,32(k1)
80000778:	af690024 	sw	t1,36(k1)
8000077c:	af6a0028 	sw	t2,40(k1)
80000780:	af6b002c 	sw	t3,44(k1)
80000784:	af6c0030 	sw	t4,48(k1)
80000788:	af6d0034 	sw	t5,52(k1)
8000078c:	af6e0038 	sw	t6,56(k1)
80000790:	af6f003c 	sw	t7,60(k1)
80000794:	af700040 	sw	s0,64(k1)
80000798:	af710044 	sw	s1,68(k1)
8000079c:	af720048 	sw	s2,72(k1)
800007a0:	af73004c 	sw	s3,76(k1)
800007a4:	af740050 	sw	s4,80(k1)
800007a8:	af750054 	sw	s5,84(k1)
800007ac:	af760058 	sw	s6,88(k1)
800007b0:	af77005c 	sw	s7,92(k1)
800007b4:	af780060 	sw	t8,96(k1)
800007b8:	af790064 	sw	t9,100(k1)
800007bc:	0000d012 	mflo	k0
800007c0:	af7a0068 	sw	k0,104(k1)
800007c4:	0000d010 	mfhi	k0
800007c8:	af7a006c 	sw	k0,108(k1)
800007cc:	af7c0070 	sw	gp,112(k1)
800007d0:	af7d0074 	sw	sp,116(k1)
800007d4:	af7e0078 	sw	s8,120(k1)
800007d8:	af7f007c 	sw	ra,124(k1)
800007dc:	401a7000 	mfc0	k0,c0_epc
800007e0:	af7a0080 	sw	k0,128(k1)
800007e4:	401a6800 	mfc0	k0,c0_cause
800007e8:	af7a0084 	sw	k0,132(k1)
800007ec:	400f7801 	mfc0	t7,$15,1
800007f0:	31ef0007 	andi	t7,t7,0x7
800007f4:	000f8080 	sll	s0,t7,0x2
800007f8:	3c119100 	lui	s1,0x9100
800007fc:	26312000 	addiu	s1,s1,8192
80000800:	02308821 	addu	s1,s1,s0
80000804:	8e320000 	lw	s2,0(s1)
80000808:	3c139100 	lui	s3,0x9100
8000080c:	26732020 	addiu	s3,s3,8224
80000810:	02709821 	addu	s3,s3,s0
80000814:	8e740000 	lw	s4,0(s3)
80000818:	26520001 	addiu	s2,s2,1
8000081c:	02541022 	sub	v0,s2,s4
80000820:	14400002 	bnez	v0,8000082c <no_wrap>
80000824:	00000000 	nop
80000828:	00009020 	add	s2,zero,zero

8000082c <no_wrap>:
8000082c:	ae320000 	sw	s2,0(s1)
80000830:	00129a00 	sll	s3,s2,0x8
80000834:	3c1b9100 	lui	k1,0x9100
80000838:	277b0000 	addiu	k1,k1,0
8000083c:	0373d821 	addu	k1,k1,s3
80000840:	000f9a80 	sll	s3,t7,0xa
80000844:	0373d821 	addu	k1,k1,s3
80000848:	8f7a0000 	lw	k0,0(k1)
8000084c:	409a6000 	mtc0	k0,c0_status
80000850:	8f610004 	lw	at,4(k1)
80000854:	8f620008 	lw	v0,8(k1)
80000858:	8f63000c 	lw	v1,12(k1)
8000085c:	8f640010 	lw	a0,16(k1)
80000860:	8f650014 	lw	a1,20(k1)
80000864:	8f660018 	lw	a2,24(k1)
80000868:	8f67001c 	lw	a3,28(k1)
8000086c:	8f680020 	lw	t0,32(k1)
80000870:	8f690024 	lw	t1,36(k1)
80000874:	8f6a0028 	lw	t2,40(k1)
80000878:	8f6b002c 	lw	t3,44(k1)
8000087c:	8f6c0030 	lw	t4,48(k1)
80000880:	8f6d0034 	lw	t5,52(k1)
80000884:	8f6e0038 	lw	t6,56(k1)
80000888:	8f6f003c 	lw	t7,60(k1)
8000088c:	8f700040 	lw	s0,64(k1)
80000890:	8f710044 	lw	s1,68(k1)
80000894:	8f720048 	lw	s2,72(k1)
80000898:	8f73004c 	lw	s3,76(k1)
8000089c:	8f740050 	lw	s4,80(k1)
800008a0:	8f750054 	lw	s5,84(k1)
800008a4:	8f760058 	lw	s6,88(k1)
800008a8:	8f77005c 	lw	s7,92(k1)
800008ac:	8f780060 	lw	t8,96(k1)
800008b0:	8f790064 	lw	t9,100(k1)
800008b4:	8f7a0068 	lw	k0,104(k1)
800008b8:	03400013 	mtlo	k0
800008bc:	8f7a006c 	lw	k0,108(k1)
800008c0:	03400011 	mthi	k0
800008c4:	8f7c0070 	lw	gp,112(k1)
800008c8:	8f7d0074 	lw	sp,116(k1)
800008cc:	8f7e0078 	lw	s8,120(k1)
800008d0:	8f7f007c 	lw	ra,124(k1)
800008d4:	8f7a0080 	lw	k0,128(k1)
800008d8:	409a7000 	mtc0	k0,c0_epc
800008dc:	8f7a0084 	lw	k0,132(k1)
800008e0:	03e00008 	jr	ra
800008e4:	409a6800 	mtc0	k0,c0_cause

800008e8 <memcpy>:
800008e8:	27bdfff0 	addiu	sp,sp,-16
800008ec:	afa40010 	sw	a0,16(sp)
800008f0:	afa50014 	sw	a1,20(sp)
800008f4:	afa60018 	sw	a2,24(sp)
800008f8:	8fa20010 	lw	v0,16(sp)
800008fc:	afa2000c 	sw	v0,12(sp)
80000900:	8fa20014 	lw	v0,20(sp)
80000904:	afa20008 	sw	v0,8(sp)
80000908:	8fa2000c 	lw	v0,12(sp)
8000090c:	30420003 	andi	v0,v0,0x3
80000910:	14400018 	bnez	v0,80000974 <memcpy+0x8c>
80000914:	00000000 	nop
80000918:	8fa20008 	lw	v0,8(sp)
8000091c:	30420003 	andi	v0,v0,0x3
80000920:	14400014 	bnez	v0,80000974 <memcpy+0x8c>
80000924:	00000000 	nop
80000928:	08000259 	j	80000964 <memcpy+0x7c>
8000092c:	00000000 	nop
80000930:	8fa20008 	lw	v0,8(sp)
80000934:	8c430000 	lw	v1,0(v0)
80000938:	8fa2000c 	lw	v0,12(sp)
8000093c:	ac430000 	sw	v1,0(v0)
80000940:	8fa2000c 	lw	v0,12(sp)
80000944:	24420004 	addiu	v0,v0,4
80000948:	afa2000c 	sw	v0,12(sp)
8000094c:	8fa20008 	lw	v0,8(sp)
80000950:	24420004 	addiu	v0,v0,4
80000954:	afa20008 	sw	v0,8(sp)
80000958:	8fa20018 	lw	v0,24(sp)
8000095c:	2442fffc 	addiu	v0,v0,-4
80000960:	afa20018 	sw	v0,24(sp)
80000964:	8fa20018 	lw	v0,24(sp)
80000968:	2c420004 	sltiu	v0,v0,4
8000096c:	1040fff0 	beqz	v0,80000930 <memcpy+0x48>
80000970:	00000000 	nop
80000974:	8fa2000c 	lw	v0,12(sp)
80000978:	afa20004 	sw	v0,4(sp)
8000097c:	8fa20008 	lw	v0,8(sp)
80000980:	afa20000 	sw	v0,0(sp)
80000984:	0800026d 	j	800009b4 <memcpy+0xcc>
80000988:	00000000 	nop
8000098c:	8fa20000 	lw	v0,0(sp)
80000990:	90430000 	lbu	v1,0(v0)
80000994:	8fa20004 	lw	v0,4(sp)
80000998:	a0430000 	sb	v1,0(v0)
8000099c:	8fa20004 	lw	v0,4(sp)
800009a0:	24420001 	addiu	v0,v0,1
800009a4:	afa20004 	sw	v0,4(sp)
800009a8:	8fa20000 	lw	v0,0(sp)
800009ac:	24420001 	addiu	v0,v0,1
800009b0:	afa20000 	sw	v0,0(sp)
800009b4:	8fa20018 	lw	v0,24(sp)
800009b8:	0002102b 	sltu	v0,zero,v0
800009bc:	304200ff 	andi	v0,v0,0xff
800009c0:	8fa30018 	lw	v1,24(sp)
800009c4:	2463ffff 	addiu	v1,v1,-1
800009c8:	afa30018 	sw	v1,24(sp)
800009cc:	1440ffef 	bnez	v0,8000098c <memcpy+0xa4>
800009d0:	00000000 	nop
800009d4:	8fa20010 	lw	v0,16(sp)
800009d8:	27bd0010 	addiu	sp,sp,16
800009dc:	03e00008 	jr	ra
800009e0:	00000000 	nop

800009e4 <_procid>:
800009e4:	27bdfff8 	addiu	sp,sp,-8
800009e8:	40027801 	mfc0	v0,$15,1
800009ec:	afa20000 	sw	v0,0(sp)
800009f0:	8fa20000 	lw	v0,0(sp)
800009f4:	30420007 	andi	v0,v0,0x7
800009f8:	03e00008 	jr	ra
800009fc:	27bd0008 	addiu	sp,sp,8

80000a00 <_proctime>:
80000a00:	27bdfff8 	addiu	sp,sp,-8
80000a04:	40024800 	mfc0	v0,c0_count
80000a08:	afa20000 	sw	v0,0(sp)
80000a0c:	8fa20000 	lw	v0,0(sp)
80000a10:	03e00008 	jr	ra
80000a14:	27bd0008 	addiu	sp,sp,8

80000a18 <_it_mask>:
80000a18:	27bdfff8 	addiu	sp,sp,-8
80000a1c:	40026000 	mfc0	v0,c0_status
80000a20:	afa20000 	sw	v0,0(sp)
80000a24:	34420001 	ori	v0,v0,0x1
80000a28:	afa20000 	sw	v0,0(sp)
80000a2c:	40826000 	mtc0	v0,c0_status
80000a30:	afa20000 	sw	v0,0(sp)
80000a34:	03e00008 	jr	ra
80000a38:	27bd0008 	addiu	sp,sp,8

80000a3c <_it_enable>:
80000a3c:	27bdfff8 	addiu	sp,sp,-8
80000a40:	40026000 	mfc0	v0,c0_status
80000a44:	afa20000 	sw	v0,0(sp)
80000a48:	2042ffff 	addi	v0,v0,-1
80000a4c:	afa20000 	sw	v0,0(sp)
80000a50:	40826000 	mtc0	v0,c0_status
80000a54:	afa20000 	sw	v0,0(sp)
80000a58:	03e00008 	jr	ra
80000a5c:	27bd0008 	addiu	sp,sp,8

80000a60 <_dcache_buf_invalidate>:
80000a60:	27bdfff8 	addiu	sp,sp,-8
80000a64:	afa40008 	sw	a0,8(sp)
80000a68:	afa5000c 	sw	a1,12(sp)
80000a6c:	40028001 	mfc0	v0,c0_config1
80000a70:	afa20000 	sw	v0,0(sp)
80000a74:	8fa20000 	lw	v0,0(sp)
80000a78:	00021282 	srl	v0,v0,0xa
80000a7c:	30420007 	andi	v0,v0,0x7
80000a80:	24030002 	li	v1,2
80000a84:	00431004 	sllv	v0,v1,v0
80000a88:	afa20000 	sw	v0,0(sp)
80000a8c:	080002ad 	j	80000ab4 <_dcache_buf_invalidate+0x54>
80000a90:	afa00004 	sw	zero,4(sp)
80000a94:	8fa30008 	lw	v1,8(sp)
80000a98:	8fa20004 	lw	v0,4(sp)
80000a9c:	00621021 	addu	v0,v1,v0
80000aa0:	bc510000 	cache	0x11,0(v0)
80000aa4:	8fa30004 	lw	v1,4(sp)
80000aa8:	8fa20000 	lw	v0,0(sp)
80000aac:	00621021 	addu	v0,v1,v0
80000ab0:	afa20004 	sw	v0,4(sp)
80000ab4:	8fa30004 	lw	v1,4(sp)
80000ab8:	8fa2000c 	lw	v0,12(sp)
80000abc:	0062102b 	sltu	v0,v1,v0
80000ac0:	1440fff4 	bnez	v0,80000a94 <_dcache_buf_invalidate+0x34>
80000ac4:	00000000 	nop
80000ac8:	03e00008 	jr	ra
80000acc:	27bd0008 	addiu	sp,sp,8

80000ad0 <_itoa_dec>:
80000ad0:	27bdfff0 	addiu	sp,sp,-16
80000ad4:	afa40010 	sw	a0,16(sp)
80000ad8:	afa50014 	sw	a1,20(sp)
80000adc:	3c023100 	lui	v0,0x3100
80000ae0:	8c440000 	lw	a0,0(v0)
80000ae4:	24430000 	addiu	v1,v0,0
80000ae8:	8c630004 	lw	v1,4(v1)
80000aec:	afa40004 	sw	a0,4(sp)
80000af0:	afa30008 	sw	v1,8(sp)
80000af4:	24420000 	addiu	v0,v0,0
80000af8:	94430008 	lhu	v1,8(v0)
80000afc:	a7a3000c 	sh	v1,12(sp)
80000b00:	9042000a 	lbu	v0,10(v0)
80000b04:	a3a2000e 	sb	v0,14(sp)
80000b08:	afa00000 	sw	zero,0(sp)
80000b0c:	080002f0 	j	80000bc0 <_itoa_dec+0xf0>
80000b10:	00000000 	nop
80000b14:	8fa20010 	lw	v0,16(sp)
80000b18:	14400004 	bnez	v0,80000b2c <_itoa_dec+0x5c>
80000b1c:	00000000 	nop
80000b20:	8fa20000 	lw	v0,0(sp)
80000b24:	14400015 	bnez	v0,80000b7c <_itoa_dec+0xac>
80000b28:	00000000 	nop
80000b2c:	24030009 	li	v1,9
80000b30:	8fa20000 	lw	v0,0(sp)
80000b34:	00621023 	subu	v0,v1,v0
80000b38:	8fa30014 	lw	v1,20(sp)
80000b3c:	00621821 	addu	v1,v1,v0
80000b40:	8fa40010 	lw	a0,16(sp)
80000b44:	3c02cccc 	lui	v0,0xcccc
80000b48:	3442cccd 	ori	v0,v0,0xcccd
80000b4c:	00820019 	multu	a0,v0
80000b50:	00001010 	mfhi	v0
80000b54:	000210c2 	srl	v0,v0,0x3
80000b58:	00021040 	sll	v0,v0,0x1
80000b5c:	00022880 	sll	a1,v0,0x2
80000b60:	00451021 	addu	v0,v0,a1
80000b64:	00821023 	subu	v0,a0,v0
80000b68:	03a21021 	addu	v0,sp,v0
80000b6c:	80420004 	lb	v0,4(v0)
80000b70:	a0620000 	sb	v0,0(v1)
80000b74:	080002e6 	j	80000b98 <_itoa_dec+0xc8>
80000b78:	00000000 	nop
80000b7c:	24030009 	li	v1,9
80000b80:	8fa20000 	lw	v0,0(sp)
80000b84:	00621023 	subu	v0,v1,v0
80000b88:	8fa30014 	lw	v1,20(sp)
80000b8c:	00621021 	addu	v0,v1,v0
80000b90:	24030020 	li	v1,32
80000b94:	a0430000 	sb	v1,0(v0)
80000b98:	8fa30010 	lw	v1,16(sp)
80000b9c:	3c02cccc 	lui	v0,0xcccc
80000ba0:	3442cccd 	ori	v0,v0,0xcccd
80000ba4:	00620019 	multu	v1,v0
80000ba8:	00001010 	mfhi	v0
80000bac:	000210c2 	srl	v0,v0,0x3
80000bb0:	afa20010 	sw	v0,16(sp)
80000bb4:	8fa20000 	lw	v0,0(sp)
80000bb8:	24420001 	addiu	v0,v0,1
80000bbc:	afa20000 	sw	v0,0(sp)
80000bc0:	8fa20000 	lw	v0,0(sp)
80000bc4:	2c42000a 	sltiu	v0,v0,10
80000bc8:	1440ffd2 	bnez	v0,80000b14 <_itoa_dec+0x44>
80000bcc:	00000000 	nop
80000bd0:	27bd0010 	addiu	sp,sp,16
80000bd4:	03e00008 	jr	ra
80000bd8:	00000000 	nop

80000bdc <_itoa_hex>:
80000bdc:	27bdffe8 	addiu	sp,sp,-24
80000be0:	afa40018 	sw	a0,24(sp)
80000be4:	afa5001c 	sw	a1,28(sp)
80000be8:	3c023100 	lui	v0,0x3100
80000bec:	8c45000c 	lw	a1,12(v0)
80000bf0:	2443000c 	addiu	v1,v0,12
80000bf4:	8c640004 	lw	a0,4(v1)
80000bf8:	2443000c 	addiu	v1,v0,12
80000bfc:	8c630008 	lw	v1,8(v1)
80000c00:	afa50004 	sw	a1,4(sp)
80000c04:	afa40008 	sw	a0,8(sp)
80000c08:	afa3000c 	sw	v1,12(sp)
80000c0c:	2442000c 	addiu	v0,v0,12
80000c10:	9443000c 	lhu	v1,12(v0)
80000c14:	a7a30010 	sh	v1,16(sp)
80000c18:	9042000e 	lbu	v0,14(v0)
80000c1c:	a3a20012 	sb	v0,18(sp)
80000c20:	afa00000 	sw	zero,0(sp)
80000c24:	08000326 	j	80000c98 <_itoa_hex+0xbc>
80000c28:	00000000 	nop
80000c2c:	24030007 	li	v1,7
80000c30:	8fa20000 	lw	v0,0(sp)
80000c34:	00621023 	subu	v0,v1,v0
80000c38:	8fa3001c 	lw	v1,28(sp)
80000c3c:	00621821 	addu	v1,v1,v0
80000c40:	8fa40018 	lw	a0,24(sp)
80000c44:	3c028000 	lui	v0,0x8000
80000c48:	3442000f 	ori	v0,v0,0xf
80000c4c:	00821024 	and	v0,a0,v0
80000c50:	04410005 	bgez	v0,80000c68 <_itoa_hex+0x8c>
80000c54:	00000000 	nop
80000c58:	2442ffff 	addiu	v0,v0,-1
80000c5c:	2404fff0 	li	a0,-16
80000c60:	00441025 	or	v0,v0,a0
80000c64:	24420001 	addiu	v0,v0,1
80000c68:	03a21021 	addu	v0,sp,v0
80000c6c:	80420004 	lb	v0,4(v0)
80000c70:	a0620000 	sb	v0,0(v1)
80000c74:	8fa20018 	lw	v0,24(sp)
80000c78:	04410002 	bgez	v0,80000c84 <_itoa_hex+0xa8>
80000c7c:	00000000 	nop
80000c80:	2442000f 	addiu	v0,v0,15
80000c84:	00021103 	sra	v0,v0,0x4
80000c88:	afa20018 	sw	v0,24(sp)
80000c8c:	8fa20000 	lw	v0,0(sp)
80000c90:	24420001 	addiu	v0,v0,1
80000c94:	afa20000 	sw	v0,0(sp)
80000c98:	8fa20000 	lw	v0,0(sp)
80000c9c:	2c420008 	sltiu	v0,v0,8
80000ca0:	1440ffe2 	bnez	v0,80000c2c <_itoa_hex+0x50>
80000ca4:	00000000 	nop
80000ca8:	27bd0018 	addiu	sp,sp,24
80000cac:	03e00008 	jr	ra
80000cb0:	00000000 	nop

80000cb4 <_timer_write>:
80000cb4:	27bdfff8 	addiu	sp,sp,-8
80000cb8:	afa40008 	sw	a0,8(sp)
80000cbc:	afa5000c 	sw	a1,12(sp)
80000cc0:	afa60010 	sw	a2,16(sp)
80000cc4:	3c020000 	lui	v0,0x0
80000cc8:	24420001 	addiu	v0,v0,1
80000ccc:	afa20000 	sw	v0,0(sp)
80000cd0:	8fa30008 	lw	v1,8(sp)
80000cd4:	8fa20000 	lw	v0,0(sp)
80000cd8:	0062102a 	slt	v0,v1,v0
80000cdc:	10400005 	beqz	v0,80000cf4 <_timer_write+0x40>
80000ce0:	00000000 	nop
80000ce4:	8fa2000c 	lw	v0,12(sp)
80000ce8:	28420004 	slti	v0,v0,4
80000cec:	14400004 	bnez	v0,80000d00 <_timer_write+0x4c>
80000cf0:	00000000 	nop
80000cf4:	2402ffff 	li	v0,-1
80000cf8:	0800034d 	j	80000d34 <_timer_write+0x80>
80000cfc:	00000000 	nop
80000d00:	3c028800 	lui	v0,0x8800
80000d04:	24430000 	addiu	v1,v0,0
80000d08:	8fa20008 	lw	v0,8(sp)
80000d0c:	00021100 	sll	v0,v0,0x4
80000d10:	00621021 	addu	v0,v1,v0
80000d14:	afa20004 	sw	v0,4(sp)
80000d18:	8fa2000c 	lw	v0,12(sp)
80000d1c:	00021080 	sll	v0,v0,0x2
80000d20:	8fa30004 	lw	v1,4(sp)
80000d24:	00621021 	addu	v0,v1,v0
80000d28:	8fa30010 	lw	v1,16(sp)
80000d2c:	ac430000 	sw	v1,0(v0)
80000d30:	00001021 	move	v0,zero
80000d34:	27bd0008 	addiu	sp,sp,8
80000d38:	03e00008 	jr	ra
80000d3c:	00000000 	nop

80000d40 <_timer_read>:
80000d40:	27bdfff8 	addiu	sp,sp,-8
80000d44:	afa40008 	sw	a0,8(sp)
80000d48:	afa5000c 	sw	a1,12(sp)
80000d4c:	afa60010 	sw	a2,16(sp)
80000d50:	3c020000 	lui	v0,0x0
80000d54:	24420001 	addiu	v0,v0,1
80000d58:	afa20000 	sw	v0,0(sp)
80000d5c:	8fa30008 	lw	v1,8(sp)
80000d60:	8fa20000 	lw	v0,0(sp)
80000d64:	0062102a 	slt	v0,v1,v0
80000d68:	10400005 	beqz	v0,80000d80 <_timer_read+0x40>
80000d6c:	00000000 	nop
80000d70:	8fa2000c 	lw	v0,12(sp)
80000d74:	28420004 	slti	v0,v0,4
80000d78:	14400004 	bnez	v0,80000d8c <_timer_read+0x4c>
80000d7c:	00000000 	nop
80000d80:	2402ffff 	li	v0,-1
80000d84:	08000371 	j	80000dc4 <_timer_read+0x84>
80000d88:	00000000 	nop
80000d8c:	3c028800 	lui	v0,0x8800
80000d90:	24430000 	addiu	v1,v0,0
80000d94:	8fa20008 	lw	v0,8(sp)
80000d98:	00021100 	sll	v0,v0,0x4
80000d9c:	00621021 	addu	v0,v1,v0
80000da0:	afa20004 	sw	v0,4(sp)
80000da4:	8fa2000c 	lw	v0,12(sp)
80000da8:	00021080 	sll	v0,v0,0x2
80000dac:	8fa30004 	lw	v1,4(sp)
80000db0:	00621021 	addu	v0,v1,v0
80000db4:	8c430000 	lw	v1,0(v0)
80000db8:	8fa20010 	lw	v0,16(sp)
80000dbc:	ac430000 	sw	v1,0(v0)
80000dc0:	00001021 	move	v0,zero
80000dc4:	27bd0008 	addiu	sp,sp,8
80000dc8:	03e00008 	jr	ra
80000dcc:	00000000 	nop

80000dd0 <_tty_write>:
80000dd0:	27bdffc8 	addiu	sp,sp,-56
80000dd4:	afbf0034 	sw	ra,52(sp)
80000dd8:	afa40038 	sw	a0,56(sp)
80000ddc:	afa5003c 	sw	a1,60(sp)
80000de0:	3c020000 	lui	v0,0x0
80000de4:	24420001 	addiu	v0,v0,1
80000de8:	afa20020 	sw	v0,32(sp)
80000dec:	3c020000 	lui	v0,0x0
80000df0:	24420004 	addiu	v0,v0,4
80000df4:	afa2001c 	sw	v0,28(sp)
80000df8:	afa00014 	sw	zero,20(sp)
80000dfc:	0c000279 	jal	800009e4 <_procid>
80000e00:	00000000 	nop
80000e04:	afa20028 	sw	v0,40(sp)
80000e08:	8fa30028 	lw	v1,40(sp)
80000e0c:	8fa2001c 	lw	v0,28(sp)
80000e10:	0062102a 	slt	v0,v1,v0
80000e14:	14400004 	bnez	v0,80000e28 <_tty_write+0x58>
80000e18:	00000000 	nop
80000e1c:	2402ffff 	li	v0,-1
80000e20:	080003c2 	j	80000f08 <_tty_write+0x138>
80000e24:	00000000 	nop
80000e28:	8fa30028 	lw	v1,40(sp)
80000e2c:	3c029100 	lui	v0,0x9100
80000e30:	00031880 	sll	v1,v1,0x2
80000e34:	24422000 	addiu	v0,v0,8192
80000e38:	00621021 	addu	v0,v1,v0
80000e3c:	8c420000 	lw	v0,0(v0)
80000e40:	afa20024 	sw	v0,36(sp)
80000e44:	8fa30024 	lw	v1,36(sp)
80000e48:	8fa20020 	lw	v0,32(sp)
80000e4c:	0062102a 	slt	v0,v1,v0
80000e50:	14400004 	bnez	v0,80000e64 <_tty_write+0x94>
80000e54:	00000000 	nop
80000e58:	2402ffff 	li	v0,-1
80000e5c:	080003c2 	j	80000f08 <_tty_write+0x138>
80000e60:	00000000 	nop
80000e64:	3c028700 	lui	v0,0x8700
80000e68:	24430000 	addiu	v1,v0,0
80000e6c:	8fa20028 	lw	v0,40(sp)
80000e70:	00021600 	sll	v0,v0,0x18
80000e74:	00402021 	move	a0,v0
80000e78:	8fa20024 	lw	v0,36(sp)
80000e7c:	00821021 	addu	v0,a0,v0
80000e80:	00021100 	sll	v0,v0,0x4
80000e84:	00621021 	addu	v0,v1,v0
80000e88:	afa20010 	sw	v0,16(sp)
80000e8c:	afa00018 	sw	zero,24(sp)
80000e90:	080003b9 	j	80000ee4 <_tty_write+0x114>
80000e94:	00000000 	nop
80000e98:	8fa20010 	lw	v0,16(sp)
80000e9c:	24420004 	addiu	v0,v0,4
80000ea0:	80420000 	lb	v0,0(v0)
80000ea4:	304200ff 	andi	v0,v0,0xff
80000ea8:	30420002 	andi	v0,v0,0x2
80000eac:	14400014 	bnez	v0,80000f00 <_tty_write+0x130>
80000eb0:	00000000 	nop
80000eb4:	8fa20018 	lw	v0,24(sp)
80000eb8:	8fa30038 	lw	v1,56(sp)
80000ebc:	00621021 	addu	v0,v1,v0
80000ec0:	80430000 	lb	v1,0(v0)
80000ec4:	8fa20010 	lw	v0,16(sp)
80000ec8:	a0430000 	sb	v1,0(v0)
80000ecc:	8fa20014 	lw	v0,20(sp)
80000ed0:	24420001 	addiu	v0,v0,1
80000ed4:	afa20014 	sw	v0,20(sp)
80000ed8:	8fa20018 	lw	v0,24(sp)
80000edc:	24420001 	addiu	v0,v0,1
80000ee0:	afa20018 	sw	v0,24(sp)
80000ee4:	8fa30018 	lw	v1,24(sp)
80000ee8:	8fa2003c 	lw	v0,60(sp)
80000eec:	0062102a 	slt	v0,v1,v0
80000ef0:	1440ffe9 	bnez	v0,80000e98 <_tty_write+0xc8>
80000ef4:	00000000 	nop
80000ef8:	080003c1 	j	80000f04 <_tty_write+0x134>
80000efc:	00000000 	nop
80000f00:	00000000 	nop
80000f04:	8fa20014 	lw	v0,20(sp)
80000f08:	8fbf0034 	lw	ra,52(sp)
80000f0c:	27bd0038 	addiu	sp,sp,56
80000f10:	03e00008 	jr	ra
80000f14:	00000000 	nop

80000f18 <_tty_read_irq>:
80000f18:	27bdffd0 	addiu	sp,sp,-48
80000f1c:	afbf002c 	sw	ra,44(sp)
80000f20:	afa40030 	sw	a0,48(sp)
80000f24:	afa50034 	sw	a1,52(sp)
80000f28:	3c020000 	lui	v0,0x0
80000f2c:	24420001 	addiu	v0,v0,1
80000f30:	afa20018 	sw	v0,24(sp)
80000f34:	3c020000 	lui	v0,0x0
80000f38:	24420004 	addiu	v0,v0,4
80000f3c:	afa20014 	sw	v0,20(sp)
80000f40:	8fa30034 	lw	v1,52(sp)
80000f44:	24020001 	li	v0,1
80000f48:	10620004 	beq	v1,v0,80000f5c <_tty_read_irq+0x44>
80000f4c:	00000000 	nop
80000f50:	2402ffff 	li	v0,-1
80000f54:	08000412 	j	80001048 <_tty_read_irq+0x130>
80000f58:	00000000 	nop
80000f5c:	0c000279 	jal	800009e4 <_procid>
80000f60:	00000000 	nop
80000f64:	afa20020 	sw	v0,32(sp)
80000f68:	8fa30020 	lw	v1,32(sp)
80000f6c:	8fa20014 	lw	v0,20(sp)
80000f70:	0062102a 	slt	v0,v1,v0
80000f74:	14400004 	bnez	v0,80000f88 <_tty_read_irq+0x70>
80000f78:	00000000 	nop
80000f7c:	2402ffff 	li	v0,-1
80000f80:	08000412 	j	80001048 <_tty_read_irq+0x130>
80000f84:	00000000 	nop
80000f88:	8fa30020 	lw	v1,32(sp)
80000f8c:	3c029100 	lui	v0,0x9100
80000f90:	00031880 	sll	v1,v1,0x2
80000f94:	24422000 	addiu	v0,v0,8192
80000f98:	00621021 	addu	v0,v1,v0
80000f9c:	8c420000 	lw	v0,0(v0)
80000fa0:	afa2001c 	sw	v0,28(sp)
80000fa4:	8fa3001c 	lw	v1,28(sp)
80000fa8:	8fa20018 	lw	v0,24(sp)
80000fac:	0062102a 	slt	v0,v1,v0
80000fb0:	14400004 	bnez	v0,80000fc4 <_tty_read_irq+0xac>
80000fb4:	00000000 	nop
80000fb8:	2402ffff 	li	v0,-1
80000fbc:	08000412 	j	80001048 <_tty_read_irq+0x130>
80000fc0:	00000000 	nop
80000fc4:	8fa30020 	lw	v1,32(sp)
80000fc8:	8fa20018 	lw	v0,24(sp)
80000fcc:	70621802 	mul	v1,v1,v0
80000fd0:	8fa2001c 	lw	v0,28(sp)
80000fd4:	00621021 	addu	v0,v1,v0
80000fd8:	afa20010 	sw	v0,16(sp)
80000fdc:	8fa30010 	lw	v1,16(sp)
80000fe0:	3c029200 	lui	v0,0x9200
80000fe4:	00031880 	sll	v1,v1,0x2
80000fe8:	24420030 	addiu	v0,v0,48
80000fec:	00621021 	addu	v0,v1,v0
80000ff0:	8c420000 	lw	v0,0(v0)
80000ff4:	14400004 	bnez	v0,80001008 <_tty_read_irq+0xf0>
80000ff8:	00000000 	nop
80000ffc:	00001021 	move	v0,zero
80001000:	08000412 	j	80001048 <_tty_read_irq+0x130>
80001004:	00000000 	nop
80001008:	8fa30010 	lw	v1,16(sp)
8000100c:	3c029200 	lui	v0,0x9200
80001010:	24420010 	addiu	v0,v0,16
80001014:	00621021 	addu	v0,v1,v0
80001018:	90420000 	lbu	v0,0(v0)
8000101c:	00021e00 	sll	v1,v0,0x18
80001020:	00031e03 	sra	v1,v1,0x18
80001024:	8fa20030 	lw	v0,48(sp)
80001028:	a0430000 	sb	v1,0(v0)
8000102c:	8fa30010 	lw	v1,16(sp)
80001030:	3c029200 	lui	v0,0x9200
80001034:	00031880 	sll	v1,v1,0x2
80001038:	24420030 	addiu	v0,v0,48
8000103c:	00621021 	addu	v0,v1,v0
80001040:	ac400000 	sw	zero,0(v0)
80001044:	24020001 	li	v0,1
80001048:	8fbf002c 	lw	ra,44(sp)
8000104c:	27bd0030 	addiu	sp,sp,48
80001050:	03e00008 	jr	ra
80001054:	00000000 	nop

80001058 <_tty_read>:
80001058:	27bdffd0 	addiu	sp,sp,-48
8000105c:	afbf002c 	sw	ra,44(sp)
80001060:	afa40030 	sw	a0,48(sp)
80001064:	afa50034 	sw	a1,52(sp)
80001068:	3c020000 	lui	v0,0x0
8000106c:	24420001 	addiu	v0,v0,1
80001070:	afa20018 	sw	v0,24(sp)
80001074:	3c020000 	lui	v0,0x0
80001078:	24420004 	addiu	v0,v0,4
8000107c:	afa20014 	sw	v0,20(sp)
80001080:	8fa30034 	lw	v1,52(sp)
80001084:	24020001 	li	v0,1
80001088:	10620004 	beq	v1,v0,8000109c <_tty_read+0x44>
8000108c:	00000000 	nop
80001090:	2402ffff 	li	v0,-1
80001094:	0800045c 	j	80001170 <_tty_read+0x118>
80001098:	00000000 	nop
8000109c:	0c000279 	jal	800009e4 <_procid>
800010a0:	00000000 	nop
800010a4:	afa20020 	sw	v0,32(sp)
800010a8:	8fa30020 	lw	v1,32(sp)
800010ac:	8fa20014 	lw	v0,20(sp)
800010b0:	0062102a 	slt	v0,v1,v0
800010b4:	14400004 	bnez	v0,800010c8 <_tty_read+0x70>
800010b8:	00000000 	nop
800010bc:	2402ffff 	li	v0,-1
800010c0:	0800045c 	j	80001170 <_tty_read+0x118>
800010c4:	00000000 	nop
800010c8:	8fa30020 	lw	v1,32(sp)
800010cc:	3c029100 	lui	v0,0x9100
800010d0:	00031880 	sll	v1,v1,0x2
800010d4:	24422000 	addiu	v0,v0,8192
800010d8:	00621021 	addu	v0,v1,v0
800010dc:	8c420000 	lw	v0,0(v0)
800010e0:	afa2001c 	sw	v0,28(sp)
800010e4:	8fa3001c 	lw	v1,28(sp)
800010e8:	8fa20018 	lw	v0,24(sp)
800010ec:	0062102a 	slt	v0,v1,v0
800010f0:	14400004 	bnez	v0,80001104 <_tty_read+0xac>
800010f4:	00000000 	nop
800010f8:	2402ffff 	li	v0,-1
800010fc:	0800045c 	j	80001170 <_tty_read+0x118>
80001100:	00000000 	nop
80001104:	3c028700 	lui	v0,0x8700
80001108:	24430000 	addiu	v1,v0,0
8000110c:	8fa20020 	lw	v0,32(sp)
80001110:	00021600 	sll	v0,v0,0x18
80001114:	00402021 	move	a0,v0
80001118:	8fa2001c 	lw	v0,28(sp)
8000111c:	00821021 	addu	v0,a0,v0
80001120:	00021100 	sll	v0,v0,0x4
80001124:	00621021 	addu	v0,v1,v0
80001128:	afa20010 	sw	v0,16(sp)
8000112c:	8fa20010 	lw	v0,16(sp)
80001130:	24420004 	addiu	v0,v0,4
80001134:	80420000 	lb	v0,0(v0)
80001138:	304200ff 	andi	v0,v0,0xff
8000113c:	30420001 	andi	v0,v0,0x1
80001140:	304200ff 	andi	v0,v0,0xff
80001144:	10400009 	beqz	v0,8000116c <_tty_read+0x114>
80001148:	00000000 	nop
8000114c:	8fa20010 	lw	v0,16(sp)
80001150:	24420008 	addiu	v0,v0,8
80001154:	80430000 	lb	v1,0(v0)
80001158:	8fa20030 	lw	v0,48(sp)
8000115c:	a0430000 	sb	v1,0(v0)
80001160:	24020001 	li	v0,1
80001164:	0800045c 	j	80001170 <_tty_read+0x118>
80001168:	00000000 	nop
8000116c:	00001021 	move	v0,zero
80001170:	8fbf002c 	lw	ra,44(sp)
80001174:	27bd0030 	addiu	sp,sp,48
80001178:	03e00008 	jr	ra
8000117c:	00000000 	nop

80001180 <_exit>:
80001180:	27bdffb8 	addiu	sp,sp,-72
80001184:	afbf0044 	sw	ra,68(sp)
80001188:	3c023100 	lui	v0,0x3100
8000118c:	27a40014 	addiu	a0,sp,20
80001190:	2443001c 	addiu	v1,v0,28
80001194:	24020025 	li	v0,37
80001198:	00602821 	move	a1,v1
8000119c:	0c00023a 	jal	800008e8 <memcpy>
800011a0:	00403021 	move	a2,v0
800011a4:	0c000279 	jal	800009e4 <_procid>
800011a8:	00000000 	nop
800011ac:	afa20010 	sw	v0,16(sp)
800011b0:	24020030 	li	v0,48
800011b4:	a3a2002c 	sb	v0,44(sp)
800011b8:	24020078 	li	v0,120
800011bc:	a3a2002d 	sb	v0,45(sp)
800011c0:	8fa20010 	lw	v0,16(sp)
800011c4:	00021203 	sra	v0,v0,0x8
800011c8:	304200ff 	andi	v0,v0,0xff
800011cc:	3042000f 	andi	v0,v0,0xf
800011d0:	24420030 	addiu	v0,v0,48
800011d4:	304200ff 	andi	v0,v0,0xff
800011d8:	00021600 	sll	v0,v0,0x18
800011dc:	00021603 	sra	v0,v0,0x18
800011e0:	a3a2002e 	sb	v0,46(sp)
800011e4:	8fa20010 	lw	v0,16(sp)
800011e8:	00021103 	sra	v0,v0,0x4
800011ec:	304200ff 	andi	v0,v0,0xff
800011f0:	3042000f 	andi	v0,v0,0xf
800011f4:	24420030 	addiu	v0,v0,48
800011f8:	304200ff 	andi	v0,v0,0xff
800011fc:	00021600 	sll	v0,v0,0x18
80001200:	00021603 	sra	v0,v0,0x18
80001204:	a3a2002f 	sb	v0,47(sp)
80001208:	8fa20010 	lw	v0,16(sp)
8000120c:	304200ff 	andi	v0,v0,0xff
80001210:	3042000f 	andi	v0,v0,0xf
80001214:	24420030 	addiu	v0,v0,48
80001218:	304200ff 	andi	v0,v0,0xff
8000121c:	00021600 	sll	v0,v0,0x18
80001220:	00021603 	sra	v0,v0,0x18
80001224:	a3a20030 	sb	v0,48(sp)
80001228:	27a20014 	addiu	v0,sp,20
8000122c:	00402021 	move	a0,v0
80001230:	0c000374 	jal	80000dd0 <_tty_write>
80001234:	24050024 	li	a1,36
80001238:	0800048e 	j	80001238 <_exit+0xb8>
8000123c:	00000000 	nop

80001240 <_icu_write>:
80001240:	27bdffe0 	addiu	sp,sp,-32
80001244:	afbf001c 	sw	ra,28(sp)
80001248:	afa40020 	sw	a0,32(sp)
8000124c:	afa50024 	sw	a1,36(sp)
80001250:	0c000279 	jal	800009e4 <_procid>
80001254:	00000000 	nop
80001258:	afa20010 	sw	v0,16(sp)
8000125c:	8fa20020 	lw	v0,32(sp)
80001260:	28420005 	slti	v0,v0,5
80001264:	14400004 	bnez	v0,80001278 <_icu_write+0x38>
80001268:	00000000 	nop
8000126c:	2402ffff 	li	v0,-1
80001270:	080004b2 	j	800012c8 <_icu_write+0x88>
80001274:	00000000 	nop
80001278:	8fa20010 	lw	v0,16(sp)
8000127c:	28420008 	slti	v0,v0,8
80001280:	14400004 	bnez	v0,80001294 <_icu_write+0x54>
80001284:	00000000 	nop
80001288:	2402ffff 	li	v0,-1
8000128c:	080004b2 	j	800012c8 <_icu_write+0x88>
80001290:	00000000 	nop
80001294:	3c028600 	lui	v0,0x8600
80001298:	24420000 	addiu	v0,v0,0
8000129c:	afa20014 	sw	v0,20(sp)
800012a0:	8fa20010 	lw	v0,16(sp)
800012a4:	000218c0 	sll	v1,v0,0x3
800012a8:	8fa20020 	lw	v0,32(sp)
800012ac:	00621021 	addu	v0,v1,v0
800012b0:	00021080 	sll	v0,v0,0x2
800012b4:	8fa30014 	lw	v1,20(sp)
800012b8:	00621021 	addu	v0,v1,v0
800012bc:	8fa30024 	lw	v1,36(sp)
800012c0:	ac430000 	sw	v1,0(v0)
800012c4:	00001021 	move	v0,zero
800012c8:	8fbf001c 	lw	ra,28(sp)
800012cc:	27bd0020 	addiu	sp,sp,32
800012d0:	03e00008 	jr	ra
800012d4:	00000000 	nop

800012d8 <_icu_read>:
800012d8:	27bdffe0 	addiu	sp,sp,-32
800012dc:	afbf001c 	sw	ra,28(sp)
800012e0:	afa40020 	sw	a0,32(sp)
800012e4:	afa50024 	sw	a1,36(sp)
800012e8:	0c000279 	jal	800009e4 <_procid>
800012ec:	00000000 	nop
800012f0:	afa20010 	sw	v0,16(sp)
800012f4:	8fa20020 	lw	v0,32(sp)
800012f8:	28420005 	slti	v0,v0,5
800012fc:	14400004 	bnez	v0,80001310 <_icu_read+0x38>
80001300:	00000000 	nop
80001304:	2402ffff 	li	v0,-1
80001308:	080004d9 	j	80001364 <_icu_read+0x8c>
8000130c:	00000000 	nop
80001310:	8fa20010 	lw	v0,16(sp)
80001314:	28420008 	slti	v0,v0,8
80001318:	14400004 	bnez	v0,8000132c <_icu_read+0x54>
8000131c:	00000000 	nop
80001320:	2402ffff 	li	v0,-1
80001324:	080004d9 	j	80001364 <_icu_read+0x8c>
80001328:	00000000 	nop
8000132c:	3c028600 	lui	v0,0x8600
80001330:	24420000 	addiu	v0,v0,0
80001334:	afa20014 	sw	v0,20(sp)
80001338:	8fa20010 	lw	v0,16(sp)
8000133c:	000218c0 	sll	v1,v0,0x3
80001340:	8fa20020 	lw	v0,32(sp)
80001344:	00621021 	addu	v0,v1,v0
80001348:	00021080 	sll	v0,v0,0x2
8000134c:	8fa30014 	lw	v1,20(sp)
80001350:	00621021 	addu	v0,v1,v0
80001354:	8c430000 	lw	v1,0(v0)
80001358:	8fa20024 	lw	v0,36(sp)
8000135c:	ac430000 	sw	v1,0(v0)
80001360:	00001021 	move	v0,zero
80001364:	8fbf001c 	lw	ra,28(sp)
80001368:	27bd0020 	addiu	sp,sp,32
8000136c:	03e00008 	jr	ra
80001370:	00000000 	nop

80001374 <_gcd_write>:
80001374:	27bdfff8 	addiu	sp,sp,-8
80001378:	afa40008 	sw	a0,8(sp)
8000137c:	afa5000c 	sw	a1,12(sp)
80001380:	8fa20008 	lw	v0,8(sp)
80001384:	28420004 	slti	v0,v0,4
80001388:	14400004 	bnez	v0,8000139c <_gcd_write+0x28>
8000138c:	00000000 	nop
80001390:	2402ffff 	li	v0,-1
80001394:	080004f1 	j	800013c4 <_gcd_write+0x50>
80001398:	00000000 	nop
8000139c:	3c028d00 	lui	v0,0x8d00
800013a0:	24420000 	addiu	v0,v0,0
800013a4:	afa20000 	sw	v0,0(sp)
800013a8:	8fa20008 	lw	v0,8(sp)
800013ac:	00021080 	sll	v0,v0,0x2
800013b0:	8fa30000 	lw	v1,0(sp)
800013b4:	00621021 	addu	v0,v1,v0
800013b8:	8fa3000c 	lw	v1,12(sp)
800013bc:	ac430000 	sw	v1,0(v0)
800013c0:	00001021 	move	v0,zero
800013c4:	27bd0008 	addiu	sp,sp,8
800013c8:	03e00008 	jr	ra
800013cc:	00000000 	nop

800013d0 <_gcd_read>:
800013d0:	27bdfff8 	addiu	sp,sp,-8
800013d4:	afa40008 	sw	a0,8(sp)
800013d8:	afa5000c 	sw	a1,12(sp)
800013dc:	8fa20008 	lw	v0,8(sp)
800013e0:	28420004 	slti	v0,v0,4
800013e4:	14400004 	bnez	v0,800013f8 <_gcd_read+0x28>
800013e8:	00000000 	nop
800013ec:	2402ffff 	li	v0,-1
800013f0:	08000509 	j	80001424 <_gcd_read+0x54>
800013f4:	00000000 	nop
800013f8:	3c028d00 	lui	v0,0x8d00
800013fc:	24420000 	addiu	v0,v0,0
80001400:	afa20000 	sw	v0,0(sp)
80001404:	8fa20008 	lw	v0,8(sp)
80001408:	00021080 	sll	v0,v0,0x2
8000140c:	8fa30000 	lw	v1,0(sp)
80001410:	00621021 	addu	v0,v1,v0
80001414:	8c430000 	lw	v1,0(v0)
80001418:	8fa2000c 	lw	v0,12(sp)
8000141c:	ac430000 	sw	v1,0(v0)
80001420:	00001021 	move	v0,zero
80001424:	27bd0008 	addiu	sp,sp,8
80001428:	03e00008 	jr	ra
8000142c:	00000000 	nop

80001430 <_locks_write>:
80001430:	27bdfff8 	addiu	sp,sp,-8
80001434:	afa40008 	sw	a0,8(sp)
80001438:	3c020000 	lui	v0,0x0
8000143c:	24420000 	addiu	v0,v0,0
80001440:	afa20000 	sw	v0,0(sp)
80001444:	8fa30008 	lw	v1,8(sp)
80001448:	8fa20000 	lw	v0,0(sp)
8000144c:	0062102a 	slt	v0,v1,v0
80001450:	14400004 	bnez	v0,80001464 <_locks_write+0x34>
80001454:	00000000 	nop
80001458:	2402ffff 	li	v0,-1
8000145c:	08000522 	j	80001488 <_locks_write+0x58>
80001460:	00000000 	nop
80001464:	3c028c00 	lui	v0,0x8c00
80001468:	24420000 	addiu	v0,v0,0
8000146c:	afa20004 	sw	v0,4(sp)
80001470:	8fa20008 	lw	v0,8(sp)
80001474:	00021080 	sll	v0,v0,0x2
80001478:	8fa30004 	lw	v1,4(sp)
8000147c:	00621021 	addu	v0,v1,v0
80001480:	ac400000 	sw	zero,0(v0)
80001484:	00001021 	move	v0,zero
80001488:	27bd0008 	addiu	sp,sp,8
8000148c:	03e00008 	jr	ra
80001490:	00000000 	nop

80001494 <_locks_read>:
80001494:	27bdffd8 	addiu	sp,sp,-40
80001498:	afbf0024 	sw	ra,36(sp)
8000149c:	afa40028 	sw	a0,40(sp)
800014a0:	3c020000 	lui	v0,0x0
800014a4:	24420000 	addiu	v0,v0,0
800014a8:	afa20018 	sw	v0,24(sp)
800014ac:	8fa30028 	lw	v1,40(sp)
800014b0:	8fa20018 	lw	v0,24(sp)
800014b4:	0062102a 	slt	v0,v1,v0
800014b8:	14400003 	bnez	v0,800014c8 <_locks_read+0x34>
800014bc:	00000000 	nop
800014c0:	0800054e 	j	80001538 <_locks_read+0xa4>
800014c4:	2402ffff 	li	v0,-1
800014c8:	3c028c00 	lui	v0,0x8c00
800014cc:	24420000 	addiu	v0,v0,0
800014d0:	08000546 	j	80001518 <_locks_read+0x84>
800014d4:	afa2001c 	sw	v0,28(sp)
800014d8:	0c000280 	jal	80000a00 <_proctime>
800014dc:	00000000 	nop
800014e0:	00021100 	sll	v0,v0,0x4
800014e4:	304200ff 	andi	v0,v0,0xff
800014e8:	afa20014 	sw	v0,20(sp)
800014ec:	08000541 	j	80001504 <_locks_read+0x70>
800014f0:	afa00010 	sw	zero,16(sp)
800014f4:	00000000 	nop
800014f8:	8fa20010 	lw	v0,16(sp)
800014fc:	24420001 	addiu	v0,v0,1
80001500:	afa20010 	sw	v0,16(sp)
80001504:	8fa30010 	lw	v1,16(sp)
80001508:	8fa20014 	lw	v0,20(sp)
8000150c:	0062102a 	slt	v0,v1,v0
80001510:	1440fff8 	bnez	v0,800014f4 <_locks_read+0x60>
80001514:	00000000 	nop
80001518:	8fa20028 	lw	v0,40(sp)
8000151c:	00021080 	sll	v0,v0,0x2
80001520:	8fa3001c 	lw	v1,28(sp)
80001524:	00621021 	addu	v0,v1,v0
80001528:	8c420000 	lw	v0,0(v0)
8000152c:	1440ffea 	bnez	v0,800014d8 <_locks_read+0x44>
80001530:	00000000 	nop
80001534:	00001021 	move	v0,zero
80001538:	8fbf0024 	lw	ra,36(sp)
8000153c:	03e00008 	jr	ra
80001540:	27bd0028 	addiu	sp,sp,40

80001544 <_ioc_write>:
80001544:	27bdffd8 	addiu	sp,sp,-40
80001548:	afbf0024 	sw	ra,36(sp)
8000154c:	afa40028 	sw	a0,40(sp)
80001550:	afa5002c 	sw	a1,44(sp)
80001554:	afa60030 	sw	a2,48(sp)
80001558:	3c028900 	lui	v0,0x8900
8000155c:	24420000 	addiu	v0,v0,0
80001560:	afa2001c 	sw	v0,28(sp)
80001564:	8fa2001c 	lw	v0,28(sp)
80001568:	2442001c 	addiu	v0,v0,28
8000156c:	8c420000 	lw	v0,0(v0)
80001570:	afa20010 	sw	v0,16(sp)
80001574:	8fa30010 	lw	v1,16(sp)
80001578:	8fa20030 	lw	v0,48(sp)
8000157c:	70621802 	mul	v1,v1,v0
80001580:	8fa2002c 	lw	v0,44(sp)
80001584:	00621021 	addu	v0,v1,v0
80001588:	04410003 	bgez	v0,80001598 <_ioc_write+0x54>
8000158c:	00000000 	nop
80001590:	08000599 	j	80001664 <_ioc_write+0x120>
80001594:	2402ffff 	li	v0,-1
80001598:	8fa2002c 	lw	v0,44(sp)
8000159c:	04410015 	bgez	v0,800015f4 <_ioc_write+0xb0>
800015a0:	00000000 	nop
800015a4:	08000599 	j	80001664 <_ioc_write+0x120>
800015a8:	2402ffff 	li	v0,-1
800015ac:	0c000280 	jal	80000a00 <_proctime>
800015b0:	00000000 	nop
800015b4:	00021100 	sll	v0,v0,0x4
800015b8:	304200ff 	andi	v0,v0,0xff
800015bc:	afa20018 	sw	v0,24(sp)
800015c0:	08000576 	j	800015d8 <_ioc_write+0x94>
800015c4:	afa00014 	sw	zero,20(sp)
800015c8:	00000000 	nop
800015cc:	8fa20014 	lw	v0,20(sp)
800015d0:	24420001 	addiu	v0,v0,1
800015d4:	afa20014 	sw	v0,20(sp)
800015d8:	8fa30014 	lw	v1,20(sp)
800015dc:	8fa20018 	lw	v0,24(sp)
800015e0:	0062102a 	slt	v0,v1,v0
800015e4:	1440fff8 	bnez	v0,800015c8 <_ioc_write+0x84>
800015e8:	00000000 	nop
800015ec:	0800057e 	j	800015f8 <_ioc_write+0xb4>
800015f0:	00000000 	nop
800015f4:	00000000 	nop
800015f8:	3c029200 	lui	v0,0x9200
800015fc:	8c420008 	lw	v0,8(v0)
80001600:	1440ffea 	bnez	v0,800015ac <_ioc_write+0x68>
80001604:	00000000 	nop
80001608:	3c029200 	lui	v0,0x9200
8000160c:	24030001 	li	v1,1
80001610:	ac430008 	sw	v1,8(v0)
80001614:	8fa3002c 	lw	v1,44(sp)
80001618:	8fa2001c 	lw	v0,28(sp)
8000161c:	ac430000 	sw	v1,0(v0)
80001620:	8fa2001c 	lw	v0,28(sp)
80001624:	24420008 	addiu	v0,v0,8
80001628:	8fa30030 	lw	v1,48(sp)
8000162c:	ac430000 	sw	v1,0(v0)
80001630:	8fa2001c 	lw	v0,28(sp)
80001634:	24420004 	addiu	v0,v0,4
80001638:	8fa30028 	lw	v1,40(sp)
8000163c:	ac430000 	sw	v1,0(v0)
80001640:	8fa2001c 	lw	v0,28(sp)
80001644:	24420014 	addiu	v0,v0,20
80001648:	24030001 	li	v1,1
8000164c:	ac430000 	sw	v1,0(v0)
80001650:	8fa2001c 	lw	v0,28(sp)
80001654:	2442000c 	addiu	v0,v0,12
80001658:	24030002 	li	v1,2
8000165c:	ac430000 	sw	v1,0(v0)
80001660:	00001021 	move	v0,zero
80001664:	8fbf0024 	lw	ra,36(sp)
80001668:	03e00008 	jr	ra
8000166c:	27bd0028 	addiu	sp,sp,40

80001670 <_ioc_read>:
80001670:	27bdffd8 	addiu	sp,sp,-40
80001674:	afbf0024 	sw	ra,36(sp)
80001678:	afa40028 	sw	a0,40(sp)
8000167c:	afa5002c 	sw	a1,44(sp)
80001680:	afa60030 	sw	a2,48(sp)
80001684:	3c028900 	lui	v0,0x8900
80001688:	24420000 	addiu	v0,v0,0
8000168c:	afa2001c 	sw	v0,28(sp)
80001690:	8fa2001c 	lw	v0,28(sp)
80001694:	2442001c 	addiu	v0,v0,28
80001698:	8c420000 	lw	v0,0(v0)
8000169c:	afa20010 	sw	v0,16(sp)
800016a0:	8fa30010 	lw	v1,16(sp)
800016a4:	8fa20030 	lw	v0,48(sp)
800016a8:	70621802 	mul	v1,v1,v0
800016ac:	8fa2002c 	lw	v0,44(sp)
800016b0:	00621021 	addu	v0,v1,v0
800016b4:	04410003 	bgez	v0,800016c4 <_ioc_read+0x54>
800016b8:	00000000 	nop
800016bc:	080005ea 	j	800017a8 <_ioc_read+0x138>
800016c0:	2402ffff 	li	v0,-1
800016c4:	8fa2002c 	lw	v0,44(sp)
800016c8:	04410015 	bgez	v0,80001720 <_ioc_read+0xb0>
800016cc:	00000000 	nop
800016d0:	080005ea 	j	800017a8 <_ioc_read+0x138>
800016d4:	2402ffff 	li	v0,-1
800016d8:	0c000280 	jal	80000a00 <_proctime>
800016dc:	00000000 	nop
800016e0:	00021100 	sll	v0,v0,0x4
800016e4:	304200ff 	andi	v0,v0,0xff
800016e8:	afa20018 	sw	v0,24(sp)
800016ec:	080005c1 	j	80001704 <_ioc_read+0x94>
800016f0:	afa00014 	sw	zero,20(sp)
800016f4:	00000000 	nop
800016f8:	8fa20014 	lw	v0,20(sp)
800016fc:	24420001 	addiu	v0,v0,1
80001700:	afa20014 	sw	v0,20(sp)
80001704:	8fa30014 	lw	v1,20(sp)
80001708:	8fa20018 	lw	v0,24(sp)
8000170c:	0062102a 	slt	v0,v1,v0
80001710:	1440fff8 	bnez	v0,800016f4 <_ioc_read+0x84>
80001714:	00000000 	nop
80001718:	080005c9 	j	80001724 <_ioc_read+0xb4>
8000171c:	00000000 	nop
80001720:	00000000 	nop
80001724:	3c029200 	lui	v0,0x9200
80001728:	8c420008 	lw	v0,8(v0)
8000172c:	1440ffea 	bnez	v0,800016d8 <_ioc_read+0x68>
80001730:	00000000 	nop
80001734:	3c029200 	lui	v0,0x9200
80001738:	24030001 	li	v1,1
8000173c:	ac430008 	sw	v1,8(v0)
80001740:	8fa3002c 	lw	v1,44(sp)
80001744:	8fa2001c 	lw	v0,28(sp)
80001748:	ac430000 	sw	v1,0(v0)
8000174c:	8fa2001c 	lw	v0,28(sp)
80001750:	24420008 	addiu	v0,v0,8
80001754:	8fa30030 	lw	v1,48(sp)
80001758:	ac430000 	sw	v1,0(v0)
8000175c:	8fa2001c 	lw	v0,28(sp)
80001760:	24420004 	addiu	v0,v0,4
80001764:	8fa30028 	lw	v1,40(sp)
80001768:	ac430000 	sw	v1,0(v0)
8000176c:	8fa2001c 	lw	v0,28(sp)
80001770:	24420014 	addiu	v0,v0,20
80001774:	24030001 	li	v1,1
80001778:	ac430000 	sw	v1,0(v0)
8000177c:	8fa2001c 	lw	v0,28(sp)
80001780:	2442000c 	addiu	v0,v0,12
80001784:	24030001 	li	v1,1
80001788:	ac430000 	sw	v1,0(v0)
8000178c:	8fa30010 	lw	v1,16(sp)
80001790:	8fa20030 	lw	v0,48(sp)
80001794:	70621002 	mul	v0,v1,v0
80001798:	8fa4002c 	lw	a0,44(sp)
8000179c:	0c000298 	jal	80000a60 <_dcache_buf_invalidate>
800017a0:	00402821 	move	a1,v0
800017a4:	00001021 	move	v0,zero
800017a8:	8fbf0024 	lw	ra,36(sp)
800017ac:	03e00008 	jr	ra
800017b0:	27bd0028 	addiu	sp,sp,40

800017b4 <_ioc_completed>:
800017b4:	080005f0 	j	800017c0 <_ioc_completed+0xc>
800017b8:	00000000 	nop
800017bc:	00000000 	nop
800017c0:	3c029200 	lui	v0,0x9200
800017c4:	8c420008 	lw	v0,8(v0)
800017c8:	1440fffc 	bnez	v0,800017bc <_ioc_completed+0x8>
800017cc:	00000000 	nop
800017d0:	3c029200 	lui	v0,0x9200
800017d4:	8c43000c 	lw	v1,12(v0)
800017d8:	24020002 	li	v0,2
800017dc:	10620009 	beq	v1,v0,80001804 <_ioc_completed+0x50>
800017e0:	00000000 	nop
800017e4:	3c029200 	lui	v0,0x9200
800017e8:	8c43000c 	lw	v1,12(v0)
800017ec:	24020003 	li	v0,3
800017f0:	10620004 	beq	v1,v0,80001804 <_ioc_completed+0x50>
800017f4:	00000000 	nop
800017f8:	3c029200 	lui	v0,0x9200
800017fc:	08000602 	j	80001808 <_ioc_completed+0x54>
80001800:	8c42000c 	lw	v0,12(v0)
80001804:	00001021 	move	v0,zero
80001808:	03e00008 	jr	ra
8000180c:	00000000 	nop

80001810 <_fb_sync_write>:
80001810:	27bdfff0 	addiu	sp,sp,-16
80001814:	afa40010 	sw	a0,16(sp)
80001818:	afa50014 	sw	a1,20(sp)
8000181c:	afa60018 	sw	a2,24(sp)
80001820:	3c02ab00 	lui	v0,0xab00
80001824:	24430000 	addiu	v1,v0,0
80001828:	8fa20010 	lw	v0,16(sp)
8000182c:	00621021 	addu	v0,v1,v0
80001830:	afa20008 	sw	v0,8(sp)
80001834:	8fa20014 	lw	v0,20(sp)
80001838:	afa20004 	sw	v0,4(sp)
8000183c:	8fa30014 	lw	v1,20(sp)
80001840:	8fa20018 	lw	v0,24(sp)
80001844:	00621021 	addu	v0,v1,v0
80001848:	04410004 	bgez	v0,8000185c <_fb_sync_write+0x4c>
8000184c:	00000000 	nop
80001850:	2402ffff 	li	v0,-1
80001854:	08000631 	j	800018c4 <_fb_sync_write+0xb4>
80001858:	00000000 	nop
8000185c:	8fa20014 	lw	v0,20(sp)
80001860:	04410004 	bgez	v0,80001874 <_fb_sync_write+0x64>
80001864:	00000000 	nop
80001868:	2402ffff 	li	v0,-1
8000186c:	08000631 	j	800018c4 <_fb_sync_write+0xb4>
80001870:	00000000 	nop
80001874:	afa00000 	sw	zero,0(sp)
80001878:	0800062b 	j	800018ac <_fb_sync_write+0x9c>
8000187c:	00000000 	nop
80001880:	8fa30008 	lw	v1,8(sp)
80001884:	8fa20000 	lw	v0,0(sp)
80001888:	00621021 	addu	v0,v1,v0
8000188c:	8fa40004 	lw	a0,4(sp)
80001890:	8fa30000 	lw	v1,0(sp)
80001894:	00831821 	addu	v1,a0,v1
80001898:	80630000 	lb	v1,0(v1)
8000189c:	a0430000 	sb	v1,0(v0)
800018a0:	8fa20000 	lw	v0,0(sp)
800018a4:	24420001 	addiu	v0,v0,1
800018a8:	afa20000 	sw	v0,0(sp)
800018ac:	8fa30000 	lw	v1,0(sp)
800018b0:	8fa20018 	lw	v0,24(sp)
800018b4:	0062102b 	sltu	v0,v1,v0
800018b8:	1440fff1 	bnez	v0,80001880 <_fb_sync_write+0x70>
800018bc:	00000000 	nop
800018c0:	00001021 	move	v0,zero
800018c4:	27bd0010 	addiu	sp,sp,16
800018c8:	03e00008 	jr	ra
800018cc:	00000000 	nop

800018d0 <_fb_sync_read>:
800018d0:	27bdfff0 	addiu	sp,sp,-16
800018d4:	afa40010 	sw	a0,16(sp)
800018d8:	afa50014 	sw	a1,20(sp)
800018dc:	afa60018 	sw	a2,24(sp)
800018e0:	3c02ab00 	lui	v0,0xab00
800018e4:	24430000 	addiu	v1,v0,0
800018e8:	8fa20010 	lw	v0,16(sp)
800018ec:	00621021 	addu	v0,v1,v0
800018f0:	afa20008 	sw	v0,8(sp)
800018f4:	8fa20014 	lw	v0,20(sp)
800018f8:	afa20004 	sw	v0,4(sp)
800018fc:	8fa30014 	lw	v1,20(sp)
80001900:	8fa20018 	lw	v0,24(sp)
80001904:	00621021 	addu	v0,v1,v0
80001908:	04410004 	bgez	v0,8000191c <_fb_sync_read+0x4c>
8000190c:	00000000 	nop
80001910:	2402ffff 	li	v0,-1
80001914:	08000663 	j	8000198c <_fb_sync_read+0xbc>
80001918:	00000000 	nop
8000191c:	8fa20014 	lw	v0,20(sp)
80001920:	04410004 	bgez	v0,80001934 <_fb_sync_read+0x64>
80001924:	00000000 	nop
80001928:	2402ffff 	li	v0,-1
8000192c:	08000663 	j	8000198c <_fb_sync_read+0xbc>
80001930:	00000000 	nop
80001934:	afa00000 	sw	zero,0(sp)
80001938:	0800065d 	j	80001974 <_fb_sync_read+0xa4>
8000193c:	00000000 	nop
80001940:	8fa30004 	lw	v1,4(sp)
80001944:	8fa20000 	lw	v0,0(sp)
80001948:	00621021 	addu	v0,v1,v0
8000194c:	8fa40008 	lw	a0,8(sp)
80001950:	8fa30000 	lw	v1,0(sp)
80001954:	00831821 	addu	v1,a0,v1
80001958:	90630000 	lbu	v1,0(v1)
8000195c:	00031e00 	sll	v1,v1,0x18
80001960:	00031e03 	sra	v1,v1,0x18
80001964:	a0430000 	sb	v1,0(v0)
80001968:	8fa20000 	lw	v0,0(sp)
8000196c:	24420001 	addiu	v0,v0,1
80001970:	afa20000 	sw	v0,0(sp)
80001974:	8fa30000 	lw	v1,0(sp)
80001978:	8fa20018 	lw	v0,24(sp)
8000197c:	0062102b 	sltu	v0,v1,v0
80001980:	1440ffef 	bnez	v0,80001940 <_fb_sync_read+0x70>
80001984:	00000000 	nop
80001988:	00001021 	move	v0,zero
8000198c:	27bd0010 	addiu	sp,sp,16
80001990:	03e00008 	jr	ra
80001994:	00000000 	nop

80001998 <_fb_write>:
80001998:	27bdffd8 	addiu	sp,sp,-40
8000199c:	afbf0024 	sw	ra,36(sp)
800019a0:	afa40028 	sw	a0,40(sp)
800019a4:	afa5002c 	sw	a1,44(sp)
800019a8:	afa60030 	sw	a2,48(sp)
800019ac:	3c02ab00 	lui	v0,0xab00
800019b0:	24430000 	addiu	v1,v0,0
800019b4:	8fa20028 	lw	v0,40(sp)
800019b8:	00621021 	addu	v0,v1,v0
800019bc:	afa2001c 	sw	v0,28(sp)
800019c0:	3c029a00 	lui	v0,0x9a00
800019c4:	24420000 	addiu	v0,v0,0
800019c8:	afa20018 	sw	v0,24(sp)
800019cc:	8fa3002c 	lw	v1,44(sp)
800019d0:	8fa20030 	lw	v0,48(sp)
800019d4:	00621021 	addu	v0,v1,v0
800019d8:	04410003 	bgez	v0,800019e8 <_fb_write+0x50>
800019dc:	00000000 	nop
800019e0:	080006a8 	j	80001aa0 <_fb_write+0x108>
800019e4:	2402ffff 	li	v0,-1
800019e8:	8fa2002c 	lw	v0,44(sp)
800019ec:	04410015 	bgez	v0,80001a44 <_fb_write+0xac>
800019f0:	00000000 	nop
800019f4:	080006a8 	j	80001aa0 <_fb_write+0x108>
800019f8:	2402ffff 	li	v0,-1
800019fc:	0c000280 	jal	80000a00 <_proctime>
80001a00:	00000000 	nop
80001a04:	00021100 	sll	v0,v0,0x4
80001a08:	304200ff 	andi	v0,v0,0xff
80001a0c:	afa20014 	sw	v0,20(sp)
80001a10:	0800068a 	j	80001a28 <_fb_write+0x90>
80001a14:	afa00010 	sw	zero,16(sp)
80001a18:	00000000 	nop
80001a1c:	8fa20010 	lw	v0,16(sp)
80001a20:	24420001 	addiu	v0,v0,1
80001a24:	afa20010 	sw	v0,16(sp)
80001a28:	8fa30010 	lw	v1,16(sp)
80001a2c:	8fa20014 	lw	v0,20(sp)
80001a30:	0062102a 	slt	v0,v1,v0
80001a34:	1440fff8 	bnez	v0,80001a18 <_fb_write+0x80>
80001a38:	00000000 	nop
80001a3c:	08000692 	j	80001a48 <_fb_write+0xb0>
80001a40:	00000000 	nop
80001a44:	00000000 	nop
80001a48:	3c029200 	lui	v0,0x9200
80001a4c:	8c420000 	lw	v0,0(v0)
80001a50:	1440ffea 	bnez	v0,800019fc <_fb_write+0x64>
80001a54:	00000000 	nop
80001a58:	3c029200 	lui	v0,0x9200
80001a5c:	24030001 	li	v1,1
80001a60:	ac430000 	sw	v1,0(v0)
80001a64:	8fa20018 	lw	v0,24(sp)
80001a68:	24420010 	addiu	v0,v0,16
80001a6c:	ac400000 	sw	zero,0(v0)
80001a70:	8fa3002c 	lw	v1,44(sp)
80001a74:	8fa20018 	lw	v0,24(sp)
80001a78:	ac430000 	sw	v1,0(v0)
80001a7c:	8fa20018 	lw	v0,24(sp)
80001a80:	24420004 	addiu	v0,v0,4
80001a84:	8fa3001c 	lw	v1,28(sp)
80001a88:	ac430000 	sw	v1,0(v0)
80001a8c:	8fa20018 	lw	v0,24(sp)
80001a90:	24420008 	addiu	v0,v0,8
80001a94:	8fa30030 	lw	v1,48(sp)
80001a98:	ac430000 	sw	v1,0(v0)
80001a9c:	00001021 	move	v0,zero
80001aa0:	8fbf0024 	lw	ra,36(sp)
80001aa4:	03e00008 	jr	ra
80001aa8:	27bd0028 	addiu	sp,sp,40

80001aac <_fb_read>:
80001aac:	27bdffd8 	addiu	sp,sp,-40
80001ab0:	afbf0024 	sw	ra,36(sp)
80001ab4:	afa40028 	sw	a0,40(sp)
80001ab8:	afa5002c 	sw	a1,44(sp)
80001abc:	afa60030 	sw	a2,48(sp)
80001ac0:	3c02ab00 	lui	v0,0xab00
80001ac4:	24430000 	addiu	v1,v0,0
80001ac8:	8fa20028 	lw	v0,40(sp)
80001acc:	00621021 	addu	v0,v1,v0
80001ad0:	afa2001c 	sw	v0,28(sp)
80001ad4:	3c029a00 	lui	v0,0x9a00
80001ad8:	24420000 	addiu	v0,v0,0
80001adc:	afa20018 	sw	v0,24(sp)
80001ae0:	8fa3002c 	lw	v1,44(sp)
80001ae4:	8fa20030 	lw	v0,48(sp)
80001ae8:	00621021 	addu	v0,v1,v0
80001aec:	04410003 	bgez	v0,80001afc <_fb_read+0x50>
80001af0:	00000000 	nop
80001af4:	080006f0 	j	80001bc0 <_fb_read+0x114>
80001af8:	2402ffff 	li	v0,-1
80001afc:	8fa2002c 	lw	v0,44(sp)
80001b00:	04410015 	bgez	v0,80001b58 <_fb_read+0xac>
80001b04:	00000000 	nop
80001b08:	080006f0 	j	80001bc0 <_fb_read+0x114>
80001b0c:	2402ffff 	li	v0,-1
80001b10:	0c000280 	jal	80000a00 <_proctime>
80001b14:	00000000 	nop
80001b18:	00021100 	sll	v0,v0,0x4
80001b1c:	304200ff 	andi	v0,v0,0xff
80001b20:	afa20014 	sw	v0,20(sp)
80001b24:	080006cf 	j	80001b3c <_fb_read+0x90>
80001b28:	afa00010 	sw	zero,16(sp)
80001b2c:	00000000 	nop
80001b30:	8fa20010 	lw	v0,16(sp)
80001b34:	24420001 	addiu	v0,v0,1
80001b38:	afa20010 	sw	v0,16(sp)
80001b3c:	8fa30010 	lw	v1,16(sp)
80001b40:	8fa20014 	lw	v0,20(sp)
80001b44:	0062102a 	slt	v0,v1,v0
80001b48:	1440fff8 	bnez	v0,80001b2c <_fb_read+0x80>
80001b4c:	00000000 	nop
80001b50:	080006d7 	j	80001b5c <_fb_read+0xb0>
80001b54:	00000000 	nop
80001b58:	00000000 	nop
80001b5c:	3c029200 	lui	v0,0x9200
80001b60:	8c420000 	lw	v0,0(v0)
80001b64:	1440ffea 	bnez	v0,80001b10 <_fb_read+0x64>
80001b68:	00000000 	nop
80001b6c:	3c029200 	lui	v0,0x9200
80001b70:	24030001 	li	v1,1
80001b74:	ac430000 	sw	v1,0(v0)
80001b78:	8fa20018 	lw	v0,24(sp)
80001b7c:	24420010 	addiu	v0,v0,16
80001b80:	ac400000 	sw	zero,0(v0)
80001b84:	8fa3001c 	lw	v1,28(sp)
80001b88:	8fa20018 	lw	v0,24(sp)
80001b8c:	ac430000 	sw	v1,0(v0)
80001b90:	8fa20018 	lw	v0,24(sp)
80001b94:	24420004 	addiu	v0,v0,4
80001b98:	8fa3002c 	lw	v1,44(sp)
80001b9c:	ac430000 	sw	v1,0(v0)
80001ba0:	8fa20018 	lw	v0,24(sp)
80001ba4:	24420008 	addiu	v0,v0,8
80001ba8:	8fa30030 	lw	v1,48(sp)
80001bac:	ac430000 	sw	v1,0(v0)
80001bb0:	8fa4002c 	lw	a0,44(sp)
80001bb4:	0c000298 	jal	80000a60 <_dcache_buf_invalidate>
80001bb8:	8fa50030 	lw	a1,48(sp)
80001bbc:	00001021 	move	v0,zero
80001bc0:	8fbf0024 	lw	ra,36(sp)
80001bc4:	03e00008 	jr	ra
80001bc8:	27bd0028 	addiu	sp,sp,40

80001bcc <_fb_completed>:
80001bcc:	080006f6 	j	80001bd8 <_fb_completed+0xc>
80001bd0:	00000000 	nop
80001bd4:	00000000 	nop
80001bd8:	3c029200 	lui	v0,0x9200
80001bdc:	8c420000 	lw	v0,0(v0)
80001be0:	1440fffc 	bnez	v0,80001bd4 <_fb_completed+0x8>
80001be4:	00000000 	nop
80001be8:	3c029200 	lui	v0,0x9200
80001bec:	8c430004 	lw	v1,4(v0)
80001bf0:	24020001 	li	v0,1
80001bf4:	14620003 	bne	v1,v0,80001c04 <_fb_completed+0x38>
80001bf8:	00000000 	nop
80001bfc:	08000703 	j	80001c0c <_fb_completed+0x40>
80001c00:	00001021 	move	v0,zero
80001c04:	3c029200 	lui	v0,0x9200
80001c08:	8c420004 	lw	v0,4(v0)
80001c0c:	03e00008 	jr	ra
80001c10:	00000000 	nop

80001c14 <_isr_dma>:
80001c14:	3c049a00 	lui	a0,0x9a00
80001c18:	24840000 	addiu	a0,a0,0
80001c1c:	8c850008 	lw	a1,8(a0)
80001c20:	3c069200 	lui	a2,0x9200
80001c24:	24c60004 	addiu	a2,a2,4
80001c28:	acc50000 	sw	a1,0(a2)
80001c2c:	3c069200 	lui	a2,0x9200
80001c30:	24c60000 	addiu	a2,a2,0
80001c34:	acc00000 	sw	zero,0(a2)
80001c38:	03e00008 	jr	ra
80001c3c:	ac80000c 	sw	zero,12(a0)

80001c40 <_isr_ioc>:
80001c40:	3c048900 	lui	a0,0x8900
80001c44:	24840000 	addiu	a0,a0,0
80001c48:	8c850010 	lw	a1,16(a0)
80001c4c:	3c069200 	lui	a2,0x9200
80001c50:	24c6000c 	addiu	a2,a2,12
80001c54:	acc50000 	sw	a1,0(a2)
80001c58:	3c069200 	lui	a2,0x9200
80001c5c:	24c60008 	addiu	a2,a2,8
80001c60:	03e00008 	jr	ra
80001c64:	acc00000 	sw	zero,0(a2)

80001c68 <_isr_timer>:
80001c68:	27bdffec 	addiu	sp,sp,-20
80001c6c:	afbf0010 	sw	ra,16(sp)
80001c70:	40047801 	mfc0	a0,$15,1
80001c74:	30840007 	andi	a0,a0,0x7
80001c78:	00042900 	sll	a1,a0,0x4
80001c7c:	3c068800 	lui	a2,0x8800
80001c80:	24c60000 	addiu	a2,a2,0
80001c84:	00c53020 	add	a2,a2,a1
80001c88:	acc0000c 	sw	zero,12(a2)
80001c8c:	3c048000 	lui	a0,0x8000
80001c90:	24841cdc 	addiu	a0,a0,7388
80001c94:	0c000374 	jal	80000dd0 <_tty_write>
80001c98:	24050028 	li	a1,40
80001c9c:	40044800 	mfc0	a0,c0_count
80001ca0:	3c058000 	lui	a1,0x8000
80001ca4:	24a51d06 	addiu	a1,a1,7430
80001ca8:	0c0002b4 	jal	80000ad0 <_itoa_dec>
80001cac:	00000000 	nop
80001cb0:	3c048000 	lui	a0,0x8000
80001cb4:	24841d06 	addiu	a0,a0,7430
80001cb8:	0c000374 	jal	80000dd0 <_tty_write>
80001cbc:	2405000a 	li	a1,10
80001cc0:	3c048000 	lui	a0,0x8000
80001cc4:	24841d04 	addiu	a0,a0,7428
80001cc8:	0c000374 	jal	80000dd0 <_tty_write>
80001ccc:	24050002 	li	a1,2
80001cd0:	8fbf0010 	lw	ra,16(sp)
80001cd4:	03e00008 	jr	ra
80001cd8:	27bd0014 	addiu	sp,sp,20

80001cdc <message_timer_begin>:
80001cdc:	2121210a 	addi	at,t1,8458
80001ce0:	746e6920 	jalx	81b9a480 <_isr_switch+0x1b986e8>
80001ce4:	75727265 	jalx	85c9c994 <_isr_switch+0x5c9abfc>
80001ce8:	74207470 	jalx	8081d1c0 <_isr_switch+0x81b428>
80001cec:	72656d69 	0x72656d69
80001cf0:	63657220 	0x63657220
80001cf4:	65766965 	0x65766965
80001cf8:	74612064 	jalx	81848190 <_isr_switch+0x18463f8>
80001cfc:	63796320 	0x63796320
80001d00:	203a656c 	addi	k0,at,25964

80001d04 <message_timer_end>:
80001d04:	30300a0a 	andi	s0,at,0xa0a

80001d06 <isr_timer_buffer>:
80001d06:	30303030 	andi	s0,at,0x3030
80001d0a:	30303030 	andi	s0,at,0x3030
80001d0e:	074b3030 	tltiu	k0,12336

80001d10 <_isr_tty_get_task0>:
80001d10:	0800074b 	j	80001d2c <tty_get_start>
80001d14:	24040000 	li	a0,0

80001d18 <_isr_tty_get_task1>:
80001d18:	0800074b 	j	80001d2c <tty_get_start>
80001d1c:	24040001 	li	a0,1

80001d20 <_isr_tty_get_task2>:
80001d20:	0800074b 	j	80001d2c <tty_get_start>
80001d24:	24040002 	li	a0,2

80001d28 <_isr_tty_get_task3>:
80001d28:	24040003 	li	a0,3

80001d2c <tty_get_start>:
80001d2c:	40057801 	mfc0	a1,$15,1
80001d30:	30a50007 	andi	a1,a1,0x7
80001d34:	3c061000 	lui	a2,0x1000
80001d38:	00a60018 	mult	a1,a2
80001d3c:	00003812 	mflo	a3
80001d40:	00043100 	sll	a2,a0,0x4
80001d44:	00e63021 	addu	a2,a3,a2
80001d48:	3c070000 	lui	a3,0x0
80001d4c:	24e70001 	addiu	a3,a3,1
80001d50:	00a70018 	mult	a1,a3
80001d54:	00003812 	mflo	a3
80001d58:	00873821 	addu	a3,a0,a3
80001d5c:	3c048700 	lui	a0,0x8700
80001d60:	24840000 	addiu	a0,a0,0
80001d64:	00863021 	addu	a2,a0,a2
80001d68:	80c50008 	lb	a1,8(a2)
80001d6c:	3c049200 	lui	a0,0x9200
80001d70:	24840030 	addiu	a0,a0,48
80001d74:	00073080 	sll	a2,a3,0x2
80001d78:	00863021 	addu	a2,a0,a2
80001d7c:	24040001 	li	a0,1
80001d80:	acc40000 	sw	a0,0(a2)
80001d84:	3c049200 	lui	a0,0x9200
80001d88:	24840010 	addiu	a0,a0,16
80001d8c:	00873021 	addu	a2,a0,a3
80001d90:	03e00008 	jr	ra
80001d94:	a0c50000 	sb	a1,0(a2)

80001d98 <_isr_switch>:
80001d98:	27bdfffc 	addiu	sp,sp,-4
80001d9c:	afbf0000 	sw	ra,0(sp)
80001da0:	40047801 	mfc0	a0,$15,1
80001da4:	30840007 	andi	a0,a0,0x7
80001da8:	00042900 	sll	a1,a0,0x4
80001dac:	3c068800 	lui	a2,0x8800
80001db0:	24c60000 	addiu	a2,a2,0
80001db4:	00c53020 	add	a2,a2,a1
80001db8:	0c0001b9 	jal	800006e4 <_ctx_switch>
80001dbc:	acc0000c 	sw	zero,12(a2)
80001dc0:	8fbf0000 	lw	ra,0(sp)
80001dc4:	03e00008 	jr	ra
80001dc8:	27bd0004 	addiu	sp,sp,4

Disassembly of section seg_kdata:

91000000 <_task_context_array>:
	...

91002000 <_current_task_array>:
	...

91002020 <_task_number_array>:
91002020:	00000001 	movf	zero,zero,$fcc0
91002024:	00000001 	movf	zero,zero,$fcc0
91002028:	00000001 	movf	zero,zero,$fcc0
9100202c:	00000001 	movf	zero,zero,$fcc0
91002030:	00000001 	movf	zero,zero,$fcc0
91002034:	00000001 	movf	zero,zero,$fcc0
91002038:	00000001 	movf	zero,zero,$fcc0
9100203c:	00000001 	movf	zero,zero,$fcc0

Disassembly of section seg_kunc:

92000000 <_dma_busy>:
92000000:	00000000 	nop

92000004 <_dma_status>:
92000004:	00000000 	nop

92000008 <_ioc_busy>:
92000008:	00000000 	nop

9200000c <_ioc_status>:
9200000c:	00000000 	nop

92000010 <_tty_get_buf>:
	...

92000030 <_tty_get_full>:
	...

920000b0 <_tty_put_buf>:
	...

920000d0 <_tty_put_full>:
	...

Disassembly of section seg_code:

20000000 <sys_call>:
20000000:	27bdfff8 	addiu	sp,sp,-8
20000004:	afbf0004 	sw	ra,4(sp)
20000008:	afa40008 	sw	a0,8(sp)
2000000c:	afa5000c 	sw	a1,12(sp)
20000010:	afa60010 	sw	a2,16(sp)
20000014:	afa70014 	sw	a3,20(sp)
20000018:	8fa20008 	lw	v0,8(sp)
2000001c:	8fa4000c 	lw	a0,12(sp)
20000020:	8fa50010 	lw	a1,16(sp)
20000024:	8fa60014 	lw	a2,20(sp)
20000028:	8fa70018 	lw	a3,24(sp)
2000002c:	0000000c 	syscall
20000030:	8fbf0004 	lw	ra,4(sp)
20000034:	03e00008 	jr	ra
20000038:	27bd0008 	addiu	sp,sp,8

2000003c <procid>:
2000003c:	27bdffe0 	addiu	sp,sp,-32
20000040:	afbf001c 	sw	ra,28(sp)
20000044:	afa00010 	sw	zero,16(sp)
20000048:	00002021 	move	a0,zero
2000004c:	00002821 	move	a1,zero
20000050:	00003021 	move	a2,zero
20000054:	00003821 	move	a3,zero
20000058:	0c000000 	jal	20000000 <sys_call>
2000005c:	00000000 	nop
20000060:	8fbf001c 	lw	ra,28(sp)
20000064:	27bd0020 	addiu	sp,sp,32
20000068:	03e00008 	jr	ra
2000006c:	00000000 	nop

20000070 <proctime>:
20000070:	27bdffe0 	addiu	sp,sp,-32
20000074:	afbf001c 	sw	ra,28(sp)
20000078:	afa00010 	sw	zero,16(sp)
2000007c:	24040001 	li	a0,1
20000080:	00002821 	move	a1,zero
20000084:	00003021 	move	a2,zero
20000088:	00003821 	move	a3,zero
2000008c:	0c000000 	jal	20000000 <sys_call>
20000090:	00000000 	nop
20000094:	8fbf001c 	lw	ra,28(sp)
20000098:	27bd0020 	addiu	sp,sp,32
2000009c:	03e00008 	jr	ra
200000a0:	00000000 	nop

200000a4 <exit>:
200000a4:	27bdffd8 	addiu	sp,sp,-40
200000a8:	afbf0024 	sw	ra,36(sp)
200000ac:	0c00000f 	jal	2000003c <procid>
200000b0:	00000000 	nop
200000b4:	afa20018 	sw	v0,24(sp)
200000b8:	afa00010 	sw	zero,16(sp)
200000bc:	2404000e 	li	a0,14
200000c0:	8fa50018 	lw	a1,24(sp)
200000c4:	00003021 	move	a2,zero
200000c8:	00003821 	move	a3,zero
200000cc:	0c000000 	jal	20000000 <sys_call>
200000d0:	00000000 	nop
200000d4:	8fbf0024 	lw	ra,36(sp)
200000d8:	27bd0028 	addiu	sp,sp,40
200000dc:	03e00008 	jr	ra
200000e0:	00000000 	nop

200000e4 <rand>:
200000e4:	27bdffd8 	addiu	sp,sp,-40
200000e8:	afbf0024 	sw	ra,36(sp)
200000ec:	afa00010 	sw	zero,16(sp)
200000f0:	24040001 	li	a0,1
200000f4:	00002821 	move	a1,zero
200000f8:	00003021 	move	a2,zero
200000fc:	00003821 	move	a3,zero
20000100:	0c000000 	jal	20000000 <sys_call>
20000104:	00000000 	nop
20000108:	afa20018 	sw	v0,24(sp)
2000010c:	8fa20018 	lw	v0,24(sp)
20000110:	3042000f 	andi	v0,v0,0xf
20000114:	28420008 	slti	v0,v0,8
20000118:	14400007 	bnez	v0,20000138 <rand+0x54>
2000011c:	00000000 	nop
20000120:	8fa30018 	lw	v1,24(sp)
20000124:	8fa20018 	lw	v0,24(sp)
20000128:	70621002 	mul	v0,v1,v0
2000012c:	3042ffff 	andi	v0,v0,0xffff
20000130:	08000054 	j	20000150 <rand+0x6c>
20000134:	00000000 	nop
20000138:	8fa30018 	lw	v1,24(sp)
2000013c:	8fa20018 	lw	v0,24(sp)
20000140:	70621802 	mul	v1,v1,v0
20000144:	8fa20018 	lw	v0,24(sp)
20000148:	70621002 	mul	v0,v1,v0
2000014c:	3042ffff 	andi	v0,v0,0xffff
20000150:	8fbf0024 	lw	ra,36(sp)
20000154:	27bd0028 	addiu	sp,sp,40
20000158:	03e00008 	jr	ra
2000015c:	00000000 	nop

20000160 <tty_putc>:
20000160:	27bdffe0 	addiu	sp,sp,-32
20000164:	afbf001c 	sw	ra,28(sp)
20000168:	00801021 	move	v0,a0
2000016c:	a3a20020 	sb	v0,32(sp)
20000170:	27a20020 	addiu	v0,sp,32
20000174:	afa00010 	sw	zero,16(sp)
20000178:	24040002 	li	a0,2
2000017c:	00402821 	move	a1,v0
20000180:	24060001 	li	a2,1
20000184:	00003821 	move	a3,zero
20000188:	0c000000 	jal	20000000 <sys_call>
2000018c:	00000000 	nop
20000190:	8fbf001c 	lw	ra,28(sp)
20000194:	27bd0020 	addiu	sp,sp,32
20000198:	03e00008 	jr	ra
2000019c:	00000000 	nop

200001a0 <tty_puts>:
200001a0:	27bdffd8 	addiu	sp,sp,-40
200001a4:	afbf0024 	sw	ra,36(sp)
200001a8:	afa40028 	sw	a0,40(sp)
200001ac:	afa00018 	sw	zero,24(sp)
200001b0:	08000071 	j	200001c4 <tty_puts+0x24>
200001b4:	00000000 	nop
200001b8:	8fa20018 	lw	v0,24(sp)
200001bc:	24420001 	addiu	v0,v0,1
200001c0:	afa20018 	sw	v0,24(sp)
200001c4:	8fa20018 	lw	v0,24(sp)
200001c8:	8fa30028 	lw	v1,40(sp)
200001cc:	00621021 	addu	v0,v1,v0
200001d0:	80420000 	lb	v0,0(v0)
200001d4:	1440fff8 	bnez	v0,200001b8 <tty_puts+0x18>
200001d8:	00000000 	nop
200001dc:	8fa20028 	lw	v0,40(sp)
200001e0:	afa00010 	sw	zero,16(sp)
200001e4:	24040002 	li	a0,2
200001e8:	00402821 	move	a1,v0
200001ec:	8fa60018 	lw	a2,24(sp)
200001f0:	00003821 	move	a3,zero
200001f4:	0c000000 	jal	20000000 <sys_call>
200001f8:	00000000 	nop
200001fc:	8fbf0024 	lw	ra,36(sp)
20000200:	27bd0028 	addiu	sp,sp,40
20000204:	03e00008 	jr	ra
20000208:	00000000 	nop

2000020c <tty_putw>:
2000020c:	27bdffd0 	addiu	sp,sp,-48
20000210:	afbf002c 	sw	ra,44(sp)
20000214:	afa40030 	sw	a0,48(sp)
20000218:	afa00018 	sw	zero,24(sp)
2000021c:	080000ad 	j	200002b4 <tty_putw+0xa8>
20000220:	00000000 	nop
20000224:	24030009 	li	v1,9
20000228:	8fa20018 	lw	v0,24(sp)
2000022c:	00622023 	subu	a0,v1,v0
20000230:	8fa30030 	lw	v1,48(sp)
20000234:	3c026666 	lui	v0,0x6666
20000238:	34426667 	ori	v0,v0,0x6667
2000023c:	00620018 	mult	v1,v0
20000240:	00003012 	mflo	a2
20000244:	00003810 	mfhi	a3
20000248:	00072883 	sra	a1,a3,0x2
2000024c:	000317c3 	sra	v0,v1,0x1f
20000250:	00a21023 	subu	v0,a1,v0
20000254:	00021040 	sll	v0,v0,0x1
20000258:	00022880 	sll	a1,v0,0x2
2000025c:	00451021 	addu	v0,v0,a1
20000260:	00621023 	subu	v0,v1,v0
20000264:	304200ff 	andi	v0,v0,0xff
20000268:	24420030 	addiu	v0,v0,48
2000026c:	304200ff 	andi	v0,v0,0xff
20000270:	00021e00 	sll	v1,v0,0x18
20000274:	00031e03 	sra	v1,v1,0x18
20000278:	27a20018 	addiu	v0,sp,24
2000027c:	00441021 	addu	v0,v0,a0
20000280:	a0430004 	sb	v1,4(v0)
20000284:	8fa20030 	lw	v0,48(sp)
20000288:	3c036666 	lui	v1,0x6666
2000028c:	34636667 	ori	v1,v1,0x6667
20000290:	00430018 	mult	v0,v1
20000294:	00001810 	mfhi	v1
20000298:	00031883 	sra	v1,v1,0x2
2000029c:	000217c3 	sra	v0,v0,0x1f
200002a0:	00621023 	subu	v0,v1,v0
200002a4:	afa20030 	sw	v0,48(sp)
200002a8:	8fa20018 	lw	v0,24(sp)
200002ac:	24420001 	addiu	v0,v0,1
200002b0:	afa20018 	sw	v0,24(sp)
200002b4:	8fa20018 	lw	v0,24(sp)
200002b8:	2842000a 	slti	v0,v0,10
200002bc:	1440ffd9 	bnez	v0,20000224 <tty_putw+0x18>
200002c0:	00000000 	nop
200002c4:	27a2001c 	addiu	v0,sp,28
200002c8:	afa00010 	sw	zero,16(sp)
200002cc:	24040002 	li	a0,2
200002d0:	00402821 	move	a1,v0
200002d4:	2406000a 	li	a2,10
200002d8:	00003821 	move	a3,zero
200002dc:	0c000000 	jal	20000000 <sys_call>
200002e0:	00000000 	nop
200002e4:	8fbf002c 	lw	ra,44(sp)
200002e8:	27bd0030 	addiu	sp,sp,48
200002ec:	03e00008 	jr	ra
200002f0:	00000000 	nop

200002f4 <tty_getc>:
200002f4:	27bdffd8 	addiu	sp,sp,-40
200002f8:	afbf0024 	sw	ra,36(sp)
200002fc:	afa40028 	sw	a0,40(sp)
20000300:	afa00018 	sw	zero,24(sp)
20000304:	080000d6 	j	20000358 <tty_getc+0x64>
20000308:	00000000 	nop
2000030c:	8fa20028 	lw	v0,40(sp)
20000310:	afa00010 	sw	zero,16(sp)
20000314:	24040003 	li	a0,3
20000318:	00402821 	move	a1,v0
2000031c:	24060001 	li	a2,1
20000320:	00003821 	move	a3,zero
20000324:	0c000000 	jal	20000000 <sys_call>
20000328:	00000000 	nop
2000032c:	afa20018 	sw	v0,24(sp)
20000330:	8fa20018 	lw	v0,24(sp)
20000334:	04400005 	bltz	v0,2000034c <tty_getc+0x58>
20000338:	00000000 	nop
2000033c:	8fa20018 	lw	v0,24(sp)
20000340:	28420002 	slti	v0,v0,2
20000344:	14400004 	bnez	v0,20000358 <tty_getc+0x64>
20000348:	00000000 	nop
2000034c:	2402ffff 	li	v0,-1
20000350:	080000da 	j	20000368 <tty_getc+0x74>
20000354:	00000000 	nop
20000358:	8fa20018 	lw	v0,24(sp)
2000035c:	1040ffeb 	beqz	v0,2000030c <tty_getc+0x18>
20000360:	00000000 	nop
20000364:	00001021 	move	v0,zero
20000368:	8fbf0024 	lw	ra,36(sp)
2000036c:	27bd0028 	addiu	sp,sp,40
20000370:	03e00008 	jr	ra
20000374:	00000000 	nop

20000378 <tty_getc_irq>:
20000378:	27bdffd8 	addiu	sp,sp,-40
2000037c:	afbf0024 	sw	ra,36(sp)
20000380:	afa40028 	sw	a0,40(sp)
20000384:	afa00018 	sw	zero,24(sp)
20000388:	080000f7 	j	200003dc <tty_getc_irq+0x64>
2000038c:	00000000 	nop
20000390:	8fa20028 	lw	v0,40(sp)
20000394:	afa00010 	sw	zero,16(sp)
20000398:	2404000a 	li	a0,10
2000039c:	00402821 	move	a1,v0
200003a0:	24060001 	li	a2,1
200003a4:	00003821 	move	a3,zero
200003a8:	0c000000 	jal	20000000 <sys_call>
200003ac:	00000000 	nop
200003b0:	afa20018 	sw	v0,24(sp)
200003b4:	8fa20018 	lw	v0,24(sp)
200003b8:	04400005 	bltz	v0,200003d0 <tty_getc_irq+0x58>
200003bc:	00000000 	nop
200003c0:	8fa20018 	lw	v0,24(sp)
200003c4:	28420002 	slti	v0,v0,2
200003c8:	14400004 	bnez	v0,200003dc <tty_getc_irq+0x64>
200003cc:	00000000 	nop
200003d0:	2402ffff 	li	v0,-1
200003d4:	080000fb 	j	200003ec <tty_getc_irq+0x74>
200003d8:	00000000 	nop
200003dc:	8fa20018 	lw	v0,24(sp)
200003e0:	1040ffeb 	beqz	v0,20000390 <tty_getc_irq+0x18>
200003e4:	00000000 	nop
200003e8:	00001021 	move	v0,zero
200003ec:	8fbf0024 	lw	ra,36(sp)
200003f0:	27bd0028 	addiu	sp,sp,40
200003f4:	03e00008 	jr	ra
200003f8:	00000000 	nop

200003fc <tty_gets_irq>:
200003fc:	27bdffd0 	addiu	sp,sp,-48
20000400:	afbf002c 	sw	ra,44(sp)
20000404:	afa40030 	sw	a0,48(sp)
20000408:	afa50034 	sw	a1,52(sp)
2000040c:	afa00018 	sw	zero,24(sp)
20000410:	08000137 	j	200004dc <tty_gets_irq+0xe0>
20000414:	00000000 	nop
20000418:	27a20020 	addiu	v0,sp,32
2000041c:	afa00010 	sw	zero,16(sp)
20000420:	2404000a 	li	a0,10
20000424:	00402821 	move	a1,v0
20000428:	24060001 	li	a2,1
2000042c:	00003821 	move	a3,zero
20000430:	0c000000 	jal	20000000 <sys_call>
20000434:	00000000 	nop
20000438:	afa2001c 	sw	v0,28(sp)
2000043c:	8fa2001c 	lw	v0,28(sp)
20000440:	04400005 	bltz	v0,20000458 <tty_gets_irq+0x5c>
20000444:	00000000 	nop
20000448:	8fa2001c 	lw	v0,28(sp)
2000044c:	28420002 	slti	v0,v0,2
20000450:	14400004 	bnez	v0,20000464 <tty_gets_irq+0x68>
20000454:	00000000 	nop
20000458:	2402ffff 	li	v0,-1
2000045c:	08000146 	j	20000518 <tty_gets_irq+0x11c>
20000460:	00000000 	nop
20000464:	8fa3001c 	lw	v1,28(sp)
20000468:	24020001 	li	v0,1
2000046c:	1462001b 	bne	v1,v0,200004dc <tty_gets_irq+0xe0>
20000470:	00000000 	nop
20000474:	93a30020 	lbu	v1,32(sp)
20000478:	2402000a 	li	v0,10
2000047c:	10620020 	beq	v1,v0,20000500 <tty_gets_irq+0x104>
20000480:	00000000 	nop
20000484:	93a30020 	lbu	v1,32(sp)
20000488:	2402007f 	li	v0,127
2000048c:	14620009 	bne	v1,v0,200004b4 <tty_gets_irq+0xb8>
20000490:	00000000 	nop
20000494:	8fa20018 	lw	v0,24(sp)
20000498:	10400006 	beqz	v0,200004b4 <tty_gets_irq+0xb8>
2000049c:	00000000 	nop
200004a0:	8fa20018 	lw	v0,24(sp)
200004a4:	2442ffff 	addiu	v0,v0,-1
200004a8:	afa20018 	sw	v0,24(sp)
200004ac:	08000137 	j	200004dc <tty_gets_irq+0xe0>
200004b0:	00000000 	nop
200004b4:	8fa30030 	lw	v1,48(sp)
200004b8:	8fa20018 	lw	v0,24(sp)
200004bc:	00621021 	addu	v0,v1,v0
200004c0:	93a30020 	lbu	v1,32(sp)
200004c4:	00031e00 	sll	v1,v1,0x18
200004c8:	00031e03 	sra	v1,v1,0x18
200004cc:	a0430000 	sb	v1,0(v0)
200004d0:	8fa20018 	lw	v0,24(sp)
200004d4:	24420001 	addiu	v0,v0,1
200004d8:	afa20018 	sw	v0,24(sp)
200004dc:	8fa20034 	lw	v0,52(sp)
200004e0:	2442ffff 	addiu	v0,v0,-1
200004e4:	00401821 	move	v1,v0
200004e8:	8fa20018 	lw	v0,24(sp)
200004ec:	0043102b 	sltu	v0,v0,v1
200004f0:	1440ffc9 	bnez	v0,20000418 <tty_gets_irq+0x1c>
200004f4:	00000000 	nop
200004f8:	08000141 	j	20000504 <tty_gets_irq+0x108>
200004fc:	00000000 	nop
20000500:	00000000 	nop
20000504:	8fa30030 	lw	v1,48(sp)
20000508:	8fa20018 	lw	v0,24(sp)
2000050c:	00621021 	addu	v0,v1,v0
20000510:	a0400000 	sb	zero,0(v0)
20000514:	00001021 	move	v0,zero
20000518:	8fbf002c 	lw	ra,44(sp)
2000051c:	27bd0030 	addiu	sp,sp,48
20000520:	03e00008 	jr	ra
20000524:	00000000 	nop

20000528 <tty_getw_irq>:
20000528:	27bdffa0 	addiu	sp,sp,-96
2000052c:	afbf005c 	sw	ra,92(sp)
20000530:	afa40060 	sw	a0,96(sp)
20000534:	afa00030 	sw	zero,48(sp)
20000538:	afa0002c 	sw	zero,44(sp)
2000053c:	afa00028 	sw	zero,40(sp)
20000540:	afa00024 	sw	zero,36(sp)
20000544:	afa00020 	sw	zero,32(sp)
20000548:	080001c2 	j	20000708 <tty_getw_irq+0x1e0>
2000054c:	00000000 	nop
20000550:	27a20054 	addiu	v0,sp,84
20000554:	afa00010 	sw	zero,16(sp)
20000558:	2404000a 	li	a0,10
2000055c:	00402821 	move	a1,v0
20000560:	24060001 	li	a2,1
20000564:	00003821 	move	a3,zero
20000568:	0c000000 	jal	20000000 <sys_call>
2000056c:	00000000 	nop
20000570:	afa20018 	sw	v0,24(sp)
20000574:	8fa20018 	lw	v0,24(sp)
20000578:	04400005 	bltz	v0,20000590 <tty_getw_irq+0x68>
2000057c:	00000000 	nop
20000580:	8fa20018 	lw	v0,24(sp)
20000584:	28420002 	slti	v0,v0,2
20000588:	14400004 	bnez	v0,2000059c <tty_getw_irq+0x74>
2000058c:	00000000 	nop
20000590:	2402ffff 	li	v0,-1
20000594:	08000206 	j	20000818 <tty_getw_irq+0x2f0>
20000598:	00000000 	nop
2000059c:	8fa30018 	lw	v1,24(sp)
200005a0:	24020001 	li	v0,1
200005a4:	14620058 	bne	v1,v0,20000708 <tty_getw_irq+0x1e0>
200005a8:	00000000 	nop
200005ac:	93a20054 	lbu	v0,84(sp)
200005b0:	2c420030 	sltiu	v0,v0,48
200005b4:	14400015 	bnez	v0,2000060c <tty_getw_irq+0xe4>
200005b8:	00000000 	nop
200005bc:	93a20054 	lbu	v0,84(sp)
200005c0:	2c42003a 	sltiu	v0,v0,58
200005c4:	10400011 	beqz	v0,2000060c <tty_getw_irq+0xe4>
200005c8:	00000000 	nop
200005cc:	8fa20020 	lw	v0,32(sp)
200005d0:	93a30054 	lbu	v1,84(sp)
200005d4:	27a40018 	addiu	a0,sp,24
200005d8:	00821021 	addu	v0,a0,v0
200005dc:	a043001c 	sb	v1,28(v0)
200005e0:	8fa20020 	lw	v0,32(sp)
200005e4:	24420001 	addiu	v0,v0,1
200005e8:	afa20020 	sw	v0,32(sp)
200005ec:	93a20054 	lbu	v0,84(sp)
200005f0:	00021600 	sll	v0,v0,0x18
200005f4:	00021603 	sra	v0,v0,0x18
200005f8:	00402021 	move	a0,v0
200005fc:	0c000058 	jal	20000160 <tty_putc>
20000600:	00000000 	nop
20000604:	080001a2 	j	20000688 <tty_getw_irq+0x160>
20000608:	00000000 	nop
2000060c:	93a30054 	lbu	v1,84(sp)
20000610:	2402000a 	li	v0,10
20000614:	10620005 	beq	v1,v0,2000062c <tty_getw_irq+0x104>
20000618:	00000000 	nop
2000061c:	93a30054 	lbu	v1,84(sp)
20000620:	2402000d 	li	v0,13
20000624:	14620005 	bne	v1,v0,2000063c <tty_getw_irq+0x114>
20000628:	00000000 	nop
2000062c:	24020001 	li	v0,1
20000630:	afa20028 	sw	v0,40(sp)
20000634:	080001a2 	j	20000688 <tty_getw_irq+0x160>
20000638:	00000000 	nop
2000063c:	93a30054 	lbu	v1,84(sp)
20000640:	2402007f 	li	v0,127
20000644:	14620010 	bne	v1,v0,20000688 <tty_getw_irq+0x160>
20000648:	00000000 	nop
2000064c:	8fa20020 	lw	v0,32(sp)
20000650:	1040000d 	beqz	v0,20000688 <tty_getw_irq+0x160>
20000654:	00000000 	nop
20000658:	8fa20020 	lw	v0,32(sp)
2000065c:	2442ffff 	addiu	v0,v0,-1
20000660:	afa20020 	sw	v0,32(sp)
20000664:	24040008 	li	a0,8
20000668:	0c000058 	jal	20000160 <tty_putc>
2000066c:	00000000 	nop
20000670:	24040020 	li	a0,32
20000674:	0c000058 	jal	20000160 <tty_putc>
20000678:	00000000 	nop
2000067c:	24040008 	li	a0,8
20000680:	0c000058 	jal	20000160 <tty_putc>
20000684:	00000000 	nop
20000688:	8fa30020 	lw	v1,32(sp)
2000068c:	24020020 	li	v0,32
20000690:	1462001d 	bne	v1,v0,20000708 <tty_getw_irq+0x1e0>
20000694:	00000000 	nop
20000698:	afa0001c 	sw	zero,28(sp)
2000069c:	080001b5 	j	200006d4 <tty_getw_irq+0x1ac>
200006a0:	00000000 	nop
200006a4:	24040008 	li	a0,8
200006a8:	0c000058 	jal	20000160 <tty_putc>
200006ac:	00000000 	nop
200006b0:	24040020 	li	a0,32
200006b4:	0c000058 	jal	20000160 <tty_putc>
200006b8:	00000000 	nop
200006bc:	24040008 	li	a0,8
200006c0:	0c000058 	jal	20000160 <tty_putc>
200006c4:	00000000 	nop
200006c8:	8fa2001c 	lw	v0,28(sp)
200006cc:	24420001 	addiu	v0,v0,1
200006d0:	afa2001c 	sw	v0,28(sp)
200006d4:	8fa3001c 	lw	v1,28(sp)
200006d8:	8fa20020 	lw	v0,32(sp)
200006dc:	0062102b 	sltu	v0,v1,v0
200006e0:	1440fff0 	bnez	v0,200006a4 <tty_getw_irq+0x17c>
200006e4:	00000000 	nop
200006e8:	24040030 	li	a0,48
200006ec:	0c000058 	jal	20000160 <tty_putc>
200006f0:	00000000 	nop
200006f4:	8fa20060 	lw	v0,96(sp)
200006f8:	ac400000 	sw	zero,0(v0)
200006fc:	00001021 	move	v0,zero
20000700:	08000206 	j	20000818 <tty_getw_irq+0x2f0>
20000704:	00000000 	nop
20000708:	8fa20028 	lw	v0,40(sp)
2000070c:	1040ff90 	beqz	v0,20000550 <tty_getw_irq+0x28>
20000710:	00000000 	nop
20000714:	afa0001c 	sw	zero,28(sp)
20000718:	080001df 	j	2000077c <tty_getw_irq+0x254>
2000071c:	00000000 	nop
20000720:	8fa2002c 	lw	v0,44(sp)
20000724:	00021040 	sll	v0,v0,0x1
20000728:	00021880 	sll	v1,v0,0x2
2000072c:	00431821 	addu	v1,v0,v1
20000730:	8fa2001c 	lw	v0,28(sp)
20000734:	27a40018 	addiu	a0,sp,24
20000738:	00821021 	addu	v0,a0,v0
2000073c:	9042001c 	lbu	v0,28(v0)
20000740:	00621021 	addu	v0,v1,v0
20000744:	2442ffd0 	addiu	v0,v0,-48
20000748:	afa2002c 	sw	v0,44(sp)
2000074c:	8fa3002c 	lw	v1,44(sp)
20000750:	8fa20030 	lw	v0,48(sp)
20000754:	0062102b 	sltu	v0,v1,v0
20000758:	10400003 	beqz	v0,20000768 <tty_getw_irq+0x240>
2000075c:	00000000 	nop
20000760:	24020001 	li	v0,1
20000764:	afa20024 	sw	v0,36(sp)
20000768:	8fa2002c 	lw	v0,44(sp)
2000076c:	afa20030 	sw	v0,48(sp)
20000770:	8fa2001c 	lw	v0,28(sp)
20000774:	24420001 	addiu	v0,v0,1
20000778:	afa2001c 	sw	v0,28(sp)
2000077c:	8fa3001c 	lw	v1,28(sp)
20000780:	8fa20020 	lw	v0,32(sp)
20000784:	0062102b 	sltu	v0,v1,v0
20000788:	1440ffe5 	bnez	v0,20000720 <tty_getw_irq+0x1f8>
2000078c:	00000000 	nop
20000790:	8fa20024 	lw	v0,36(sp)
20000794:	14400006 	bnez	v0,200007b0 <tty_getw_irq+0x288>
20000798:	00000000 	nop
2000079c:	8fa3002c 	lw	v1,44(sp)
200007a0:	8fa20060 	lw	v0,96(sp)
200007a4:	ac430000 	sw	v1,0(v0)
200007a8:	08000205 	j	20000814 <tty_getw_irq+0x2ec>
200007ac:	00000000 	nop
200007b0:	afa0001c 	sw	zero,28(sp)
200007b4:	080001fb 	j	200007ec <tty_getw_irq+0x2c4>
200007b8:	00000000 	nop
200007bc:	24040008 	li	a0,8
200007c0:	0c000058 	jal	20000160 <tty_putc>
200007c4:	00000000 	nop
200007c8:	24040020 	li	a0,32
200007cc:	0c000058 	jal	20000160 <tty_putc>
200007d0:	00000000 	nop
200007d4:	24040008 	li	a0,8
200007d8:	0c000058 	jal	20000160 <tty_putc>
200007dc:	00000000 	nop
200007e0:	8fa2001c 	lw	v0,28(sp)
200007e4:	24420001 	addiu	v0,v0,1
200007e8:	afa2001c 	sw	v0,28(sp)
200007ec:	8fa3001c 	lw	v1,28(sp)
200007f0:	8fa20020 	lw	v0,32(sp)
200007f4:	0062102b 	sltu	v0,v1,v0
200007f8:	1440fff0 	bnez	v0,200007bc <tty_getw_irq+0x294>
200007fc:	00000000 	nop
20000800:	24040030 	li	a0,48
20000804:	0c000058 	jal	20000160 <tty_putc>
20000808:	00000000 	nop
2000080c:	8fa20060 	lw	v0,96(sp)
20000810:	ac400000 	sw	zero,0(v0)
20000814:	00001021 	move	v0,zero
20000818:	8fbf005c 	lw	ra,92(sp)
2000081c:	27bd0060 	addiu	sp,sp,96
20000820:	03e00008 	jr	ra
20000824:	00000000 	nop

20000828 <tty_printf>:
20000828:	27bdffb0 	addiu	sp,sp,-80
2000082c:	afbf004c 	sw	ra,76(sp)
20000830:	afa50054 	sw	a1,84(sp)
20000834:	afa60058 	sw	a2,88(sp)
20000838:	afa7005c 	sw	a3,92(sp)
2000083c:	afa40050 	sw	a0,80(sp)
20000840:	27a20054 	addiu	v0,sp,84
20000844:	afa20030 	sw	v0,48(sp)
20000848:	08000253 	j	2000094c <tty_printf+0x124>
2000084c:	00000000 	nop
20000850:	08000253 	j	2000094c <tty_printf+0x124>
20000854:	00000000 	nop
20000858:	afa0002c 	sw	zero,44(sp)
2000085c:	0800021c 	j	20000870 <tty_printf+0x48>
20000860:	00000000 	nop
20000864:	8fa2002c 	lw	v0,44(sp)
20000868:	24420001 	addiu	v0,v0,1
2000086c:	afa2002c 	sw	v0,44(sp)
20000870:	8fa30050 	lw	v1,80(sp)
20000874:	8fa2002c 	lw	v0,44(sp)
20000878:	00621021 	addu	v0,v1,v0
2000087c:	80420000 	lb	v0,0(v0)
20000880:	10400008 	beqz	v0,200008a4 <tty_printf+0x7c>
20000884:	00000000 	nop
20000888:	8fa30050 	lw	v1,80(sp)
2000088c:	8fa2002c 	lw	v0,44(sp)
20000890:	00621021 	addu	v0,v1,v0
20000894:	80430000 	lb	v1,0(v0)
20000898:	24020025 	li	v0,37
2000089c:	1462fff1 	bne	v1,v0,20000864 <tty_printf+0x3c>
200008a0:	00000000 	nop
200008a4:	8fa2002c 	lw	v0,44(sp)
200008a8:	1040000e 	beqz	v0,200008e4 <tty_printf+0xbc>
200008ac:	00000000 	nop
200008b0:	8fa30050 	lw	v1,80(sp)
200008b4:	8fa2002c 	lw	v0,44(sp)
200008b8:	afa00010 	sw	zero,16(sp)
200008bc:	24040002 	li	a0,2
200008c0:	00602821 	move	a1,v1
200008c4:	00403021 	move	a2,v0
200008c8:	00003821 	move	a3,zero
200008cc:	0c000000 	jal	20000000 <sys_call>
200008d0:	00000000 	nop
200008d4:	8fa30050 	lw	v1,80(sp)
200008d8:	8fa2002c 	lw	v0,44(sp)
200008dc:	00621021 	addu	v0,v1,v0
200008e0:	afa20050 	sw	v0,80(sp)
200008e4:	8fa20050 	lw	v0,80(sp)
200008e8:	80430000 	lb	v1,0(v0)
200008ec:	24020025 	li	v0,37
200008f0:	14620016 	bne	v1,v0,2000094c <tty_printf+0x124>
200008f4:	00000000 	nop
200008f8:	8fa20050 	lw	v0,80(sp)
200008fc:	24420001 	addiu	v0,v0,1
20000900:	afa20050 	sw	v0,80(sp)
20000904:	00000000 	nop
20000908:	8fa20030 	lw	v0,48(sp)
2000090c:	24430004 	addiu	v1,v0,4
20000910:	afa30030 	sw	v1,48(sp)
20000914:	8c420000 	lw	v0,0(v0)
20000918:	afa20028 	sw	v0,40(sp)
2000091c:	afa00020 	sw	zero,32(sp)
20000920:	8fa20050 	lw	v0,80(sp)
20000924:	80420000 	lb	v0,0(v0)
20000928:	8fa30050 	lw	v1,80(sp)
2000092c:	24630001 	addiu	v1,v1,1
20000930:	afa30050 	sw	v1,80(sp)
20000934:	2442ff9d 	addiu	v0,v0,-99
20000938:	2c430016 	sltiu	v1,v0,22
2000093c:	106000aa 	beqz	v1,20000be8 <tty_printf+0x3c0>
20000940:	00000000 	nop
20000944:	0800025c 	j	20000970 <tty_printf+0x148>
20000948:	00000000 	nop
2000094c:	8fa20050 	lw	v0,80(sp)
20000950:	80420000 	lb	v0,0(v0)
20000954:	1440ffc0 	bnez	v0,20000858 <tty_printf+0x30>
20000958:	00000000 	nop
2000095c:	00001021 	move	v0,zero
20000960:	8fbf004c 	lw	ra,76(sp)
20000964:	27bd0050 	addiu	sp,sp,80
20000968:	03e00008 	jr	ra
2000096c:	00000000 	nop
20000970:	00021880 	sll	v1,v0,0x2
20000974:	3c023100 	lui	v0,0x3100
20000978:	2442004c 	addiu	v0,v0,76
2000097c:	00621021 	addu	v0,v1,v0
20000980:	8c420000 	lw	v0,0(v0)
20000984:	00400008 	jr	v0
20000988:	00000000 	nop
2000098c:	24020001 	li	v0,1
20000990:	afa20020 	sw	v0,32(sp)
20000994:	8fa20028 	lw	v0,40(sp)
20000998:	00021600 	sll	v0,v0,0x18
2000099c:	00021603 	sra	v0,v0,0x18
200009a0:	a3a20034 	sb	v0,52(sp)
200009a4:	27a20034 	addiu	v0,sp,52
200009a8:	afa20024 	sw	v0,36(sp)
200009ac:	080002fc 	j	20000bf0 <tty_printf+0x3c8>
200009b0:	00000000 	nop
200009b4:	8fa20028 	lw	v0,40(sp)
200009b8:	0441000d 	bgez	v0,200009f0 <tty_printf+0x1c8>
200009bc:	00000000 	nop
200009c0:	8fa20028 	lw	v0,40(sp)
200009c4:	00021023 	negu	v0,v0
200009c8:	afa20028 	sw	v0,40(sp)
200009cc:	3c023100 	lui	v0,0x3100
200009d0:	24420044 	addiu	v0,v0,68
200009d4:	afa00010 	sw	zero,16(sp)
200009d8:	24040002 	li	a0,2
200009dc:	00402821 	move	a1,v0
200009e0:	24060001 	li	a2,1
200009e4:	00003821 	move	a3,zero
200009e8:	0c000000 	jal	20000000 <sys_call>
200009ec:	00000000 	nop
200009f0:	afa0001c 	sw	zero,28(sp)
200009f4:	080002a4 	j	20000a90 <tty_printf+0x268>
200009f8:	00000000 	nop
200009fc:	24030009 	li	v1,9
20000a00:	8fa2001c 	lw	v0,28(sp)
20000a04:	00622023 	subu	a0,v1,v0
20000a08:	8fa30028 	lw	v1,40(sp)
20000a0c:	3c026666 	lui	v0,0x6666
20000a10:	34426667 	ori	v0,v0,0x6667
20000a14:	00620018 	mult	v1,v0
20000a18:	00001010 	mfhi	v0
20000a1c:	00022883 	sra	a1,v0,0x2
20000a20:	000317c3 	sra	v0,v1,0x1f
20000a24:	00a21023 	subu	v0,a1,v0
20000a28:	00021040 	sll	v0,v0,0x1
20000a2c:	00022880 	sll	a1,v0,0x2
20000a30:	00451021 	addu	v0,v0,a1
20000a34:	00621023 	subu	v0,v1,v0
20000a38:	3c033100 	lui	v1,0x3100
20000a3c:	246300a4 	addiu	v1,v1,164
20000a40:	00431021 	addu	v0,v0,v1
20000a44:	80430000 	lb	v1,0(v0)
20000a48:	27a20018 	addiu	v0,sp,24
20000a4c:	00441021 	addu	v0,v0,a0
20000a50:	a043001c 	sb	v1,28(v0)
20000a54:	8fa20028 	lw	v0,40(sp)
20000a58:	3c036666 	lui	v1,0x6666
20000a5c:	34636667 	ori	v1,v1,0x6667
20000a60:	00430018 	mult	v0,v1
20000a64:	00001810 	mfhi	v1
20000a68:	00031883 	sra	v1,v1,0x2
20000a6c:	000217c3 	sra	v0,v0,0x1f
20000a70:	00621023 	subu	v0,v1,v0
20000a74:	afa20028 	sw	v0,40(sp)
20000a78:	8fa20028 	lw	v0,40(sp)
20000a7c:	1040000a 	beqz	v0,20000aa8 <tty_printf+0x280>
20000a80:	00000000 	nop
20000a84:	8fa2001c 	lw	v0,28(sp)
20000a88:	24420001 	addiu	v0,v0,1
20000a8c:	afa2001c 	sw	v0,28(sp)
20000a90:	8fa2001c 	lw	v0,28(sp)
20000a94:	2c42000a 	sltiu	v0,v0,10
20000a98:	1440ffd8 	bnez	v0,200009fc <tty_printf+0x1d4>
20000a9c:	00000000 	nop
20000aa0:	080002ab 	j	20000aac <tty_printf+0x284>
20000aa4:	00000000 	nop
20000aa8:	00000000 	nop
20000aac:	8fa2001c 	lw	v0,28(sp)
20000ab0:	24420001 	addiu	v0,v0,1
20000ab4:	afa20020 	sw	v0,32(sp)
20000ab8:	24030009 	li	v1,9
20000abc:	8fa2001c 	lw	v0,28(sp)
20000ac0:	00621023 	subu	v0,v1,v0
20000ac4:	27a30034 	addiu	v1,sp,52
20000ac8:	00621021 	addu	v0,v1,v0
20000acc:	afa20024 	sw	v0,36(sp)
20000ad0:	080002fc 	j	20000bf0 <tty_printf+0x3c8>
20000ad4:	00000000 	nop
20000ad8:	3c023100 	lui	v0,0x3100
20000adc:	24420048 	addiu	v0,v0,72
20000ae0:	afa00010 	sw	zero,16(sp)
20000ae4:	24040002 	li	a0,2
20000ae8:	00402821 	move	a1,v0
20000aec:	24060002 	li	a2,2
20000af0:	00003821 	move	a3,zero
20000af4:	0c000000 	jal	20000000 <sys_call>
20000af8:	00000000 	nop
20000afc:	afa0001c 	sw	zero,28(sp)
20000b00:	080002d7 	j	20000b5c <tty_printf+0x334>
20000b04:	00000000 	nop
20000b08:	24030007 	li	v1,7
20000b0c:	8fa2001c 	lw	v0,28(sp)
20000b10:	00621023 	subu	v0,v1,v0
20000b14:	8fa30028 	lw	v1,40(sp)
20000b18:	3064000f 	andi	a0,v1,0xf
20000b1c:	3c033100 	lui	v1,0x3100
20000b20:	246300a4 	addiu	v1,v1,164
20000b24:	00831821 	addu	v1,a0,v1
20000b28:	80630000 	lb	v1,0(v1)
20000b2c:	27a40018 	addiu	a0,sp,24
20000b30:	00821021 	addu	v0,a0,v0
20000b34:	a043001c 	sb	v1,28(v0)
20000b38:	8fa20028 	lw	v0,40(sp)
20000b3c:	00021102 	srl	v0,v0,0x4
20000b40:	afa20028 	sw	v0,40(sp)
20000b44:	8fa20028 	lw	v0,40(sp)
20000b48:	1040000a 	beqz	v0,20000b74 <tty_printf+0x34c>
20000b4c:	00000000 	nop
20000b50:	8fa2001c 	lw	v0,28(sp)
20000b54:	24420001 	addiu	v0,v0,1
20000b58:	afa2001c 	sw	v0,28(sp)
20000b5c:	8fa2001c 	lw	v0,28(sp)
20000b60:	2c420008 	sltiu	v0,v0,8
20000b64:	1440ffe8 	bnez	v0,20000b08 <tty_printf+0x2e0>
20000b68:	00000000 	nop
20000b6c:	080002de 	j	20000b78 <tty_printf+0x350>
20000b70:	00000000 	nop
20000b74:	00000000 	nop
20000b78:	8fa2001c 	lw	v0,28(sp)
20000b7c:	24420001 	addiu	v0,v0,1
20000b80:	afa20020 	sw	v0,32(sp)
20000b84:	24030007 	li	v1,7
20000b88:	8fa2001c 	lw	v0,28(sp)
20000b8c:	00621023 	subu	v0,v1,v0
20000b90:	27a30034 	addiu	v1,sp,52
20000b94:	00621021 	addu	v0,v1,v0
20000b98:	afa20024 	sw	v0,36(sp)
20000b9c:	080002fc 	j	20000bf0 <tty_printf+0x3c8>
20000ba0:	00000000 	nop
20000ba4:	8fa20028 	lw	v0,40(sp)
20000ba8:	afa20018 	sw	v0,24(sp)
20000bac:	080002f0 	j	20000bc0 <tty_printf+0x398>
20000bb0:	00000000 	nop
20000bb4:	8fa20020 	lw	v0,32(sp)
20000bb8:	24420001 	addiu	v0,v0,1
20000bbc:	afa20020 	sw	v0,32(sp)
20000bc0:	8fa30018 	lw	v1,24(sp)
20000bc4:	8fa20020 	lw	v0,32(sp)
20000bc8:	00621021 	addu	v0,v1,v0
20000bcc:	80420000 	lb	v0,0(v0)
20000bd0:	1440fff8 	bnez	v0,20000bb4 <tty_printf+0x38c>
20000bd4:	00000000 	nop
20000bd8:	8fa20028 	lw	v0,40(sp)
20000bdc:	afa20024 	sw	v0,36(sp)
20000be0:	080002fc 	j	20000bf0 <tty_printf+0x3c8>
20000be4:	00000000 	nop
20000be8:	08000214 	j	20000850 <tty_printf+0x28>
20000bec:	00000000 	nop
20000bf0:	8fa30024 	lw	v1,36(sp)
20000bf4:	8fa20020 	lw	v0,32(sp)
20000bf8:	afa00010 	sw	zero,16(sp)
20000bfc:	24040002 	li	a0,2
20000c00:	00602821 	move	a1,v1
20000c04:	00403021 	move	a2,v0
20000c08:	00003821 	move	a3,zero
20000c0c:	0c000000 	jal	20000000 <sys_call>
20000c10:	00000000 	nop
20000c14:	08000214 	j	20000850 <tty_printf+0x28>
20000c18:	00000000 	nop

20000c1c <timer_set_mode>:
20000c1c:	27bdffe0 	addiu	sp,sp,-32
20000c20:	afbf001c 	sw	ra,28(sp)
20000c24:	afa40020 	sw	a0,32(sp)
20000c28:	afa50024 	sw	a1,36(sp)
20000c2c:	afa00010 	sw	zero,16(sp)
20000c30:	24040004 	li	a0,4
20000c34:	8fa50020 	lw	a1,32(sp)
20000c38:	24060001 	li	a2,1
20000c3c:	8fa70024 	lw	a3,36(sp)
20000c40:	0c000000 	jal	20000000 <sys_call>
20000c44:	00000000 	nop
20000c48:	8fbf001c 	lw	ra,28(sp)
20000c4c:	27bd0020 	addiu	sp,sp,32
20000c50:	03e00008 	jr	ra
20000c54:	00000000 	nop

20000c58 <timer_set_period>:
20000c58:	27bdffe0 	addiu	sp,sp,-32
20000c5c:	afbf001c 	sw	ra,28(sp)
20000c60:	afa40020 	sw	a0,32(sp)
20000c64:	afa50024 	sw	a1,36(sp)
20000c68:	afa00010 	sw	zero,16(sp)
20000c6c:	24040004 	li	a0,4
20000c70:	8fa50020 	lw	a1,32(sp)
20000c74:	24060002 	li	a2,2
20000c78:	8fa70024 	lw	a3,36(sp)
20000c7c:	0c000000 	jal	20000000 <sys_call>
20000c80:	00000000 	nop
20000c84:	8fbf001c 	lw	ra,28(sp)
20000c88:	27bd0020 	addiu	sp,sp,32
20000c8c:	03e00008 	jr	ra
20000c90:	00000000 	nop

20000c94 <timer_reset_irq>:
20000c94:	27bdffe0 	addiu	sp,sp,-32
20000c98:	afbf001c 	sw	ra,28(sp)
20000c9c:	afa40020 	sw	a0,32(sp)
20000ca0:	afa00010 	sw	zero,16(sp)
20000ca4:	24040004 	li	a0,4
20000ca8:	8fa50020 	lw	a1,32(sp)
20000cac:	24060003 	li	a2,3
20000cb0:	00003821 	move	a3,zero
20000cb4:	0c000000 	jal	20000000 <sys_call>
20000cb8:	00000000 	nop
20000cbc:	8fbf001c 	lw	ra,28(sp)
20000cc0:	27bd0020 	addiu	sp,sp,32
20000cc4:	03e00008 	jr	ra
20000cc8:	00000000 	nop

20000ccc <timer_get_time>:
20000ccc:	27bdffe0 	addiu	sp,sp,-32
20000cd0:	afbf001c 	sw	ra,28(sp)
20000cd4:	afa40020 	sw	a0,32(sp)
20000cd8:	afa50024 	sw	a1,36(sp)
20000cdc:	8fa20024 	lw	v0,36(sp)
20000ce0:	afa00010 	sw	zero,16(sp)
20000ce4:	24040005 	li	a0,5
20000ce8:	8fa50020 	lw	a1,32(sp)
20000cec:	00003021 	move	a2,zero
20000cf0:	00403821 	move	a3,v0
20000cf4:	0c000000 	jal	20000000 <sys_call>
20000cf8:	00000000 	nop
20000cfc:	8fbf001c 	lw	ra,28(sp)
20000d00:	27bd0020 	addiu	sp,sp,32
20000d04:	03e00008 	jr	ra
20000d08:	00000000 	nop

20000d0c <gcd_set_opa>:
20000d0c:	27bdffe0 	addiu	sp,sp,-32
20000d10:	afbf001c 	sw	ra,28(sp)
20000d14:	afa40020 	sw	a0,32(sp)
20000d18:	afa00010 	sw	zero,16(sp)
20000d1c:	24040006 	li	a0,6
20000d20:	00002821 	move	a1,zero
20000d24:	8fa60020 	lw	a2,32(sp)
20000d28:	00003821 	move	a3,zero
20000d2c:	0c000000 	jal	20000000 <sys_call>
20000d30:	00000000 	nop
20000d34:	8fbf001c 	lw	ra,28(sp)
20000d38:	27bd0020 	addiu	sp,sp,32
20000d3c:	03e00008 	jr	ra
20000d40:	00000000 	nop

20000d44 <gcd_set_opb>:
20000d44:	27bdffe0 	addiu	sp,sp,-32
20000d48:	afbf001c 	sw	ra,28(sp)
20000d4c:	afa40020 	sw	a0,32(sp)
20000d50:	afa00010 	sw	zero,16(sp)
20000d54:	24040006 	li	a0,6
20000d58:	24050001 	li	a1,1
20000d5c:	8fa60020 	lw	a2,32(sp)
20000d60:	00003821 	move	a3,zero
20000d64:	0c000000 	jal	20000000 <sys_call>
20000d68:	00000000 	nop
20000d6c:	8fbf001c 	lw	ra,28(sp)
20000d70:	27bd0020 	addiu	sp,sp,32
20000d74:	03e00008 	jr	ra
20000d78:	00000000 	nop

20000d7c <gcd_start>:
20000d7c:	27bdffe0 	addiu	sp,sp,-32
20000d80:	afbf001c 	sw	ra,28(sp)
20000d84:	afa40020 	sw	a0,32(sp)
20000d88:	afa00010 	sw	zero,16(sp)
20000d8c:	24040006 	li	a0,6
20000d90:	24050002 	li	a1,2
20000d94:	00003021 	move	a2,zero
20000d98:	00003821 	move	a3,zero
20000d9c:	0c000000 	jal	20000000 <sys_call>
20000da0:	00000000 	nop
20000da4:	8fbf001c 	lw	ra,28(sp)
20000da8:	27bd0020 	addiu	sp,sp,32
20000dac:	03e00008 	jr	ra
20000db0:	00000000 	nop

20000db4 <gcd_get_status>:
20000db4:	27bdffe0 	addiu	sp,sp,-32
20000db8:	afbf001c 	sw	ra,28(sp)
20000dbc:	afa40020 	sw	a0,32(sp)
20000dc0:	8fa20020 	lw	v0,32(sp)
20000dc4:	afa00010 	sw	zero,16(sp)
20000dc8:	24040007 	li	a0,7
20000dcc:	24050003 	li	a1,3
20000dd0:	00403021 	move	a2,v0
20000dd4:	00003821 	move	a3,zero
20000dd8:	0c000000 	jal	20000000 <sys_call>
20000ddc:	00000000 	nop
20000de0:	8fbf001c 	lw	ra,28(sp)
20000de4:	27bd0020 	addiu	sp,sp,32
20000de8:	03e00008 	jr	ra
20000dec:	00000000 	nop

20000df0 <gcd_get_result>:
20000df0:	27bdffe0 	addiu	sp,sp,-32
20000df4:	afbf001c 	sw	ra,28(sp)
20000df8:	afa40020 	sw	a0,32(sp)
20000dfc:	8fa20020 	lw	v0,32(sp)
20000e00:	afa00010 	sw	zero,16(sp)
20000e04:	24040007 	li	a0,7
20000e08:	00002821 	move	a1,zero
20000e0c:	00403021 	move	a2,v0
20000e10:	00003821 	move	a3,zero
20000e14:	0c000000 	jal	20000000 <sys_call>
20000e18:	00000000 	nop
20000e1c:	8fbf001c 	lw	ra,28(sp)
20000e20:	27bd0020 	addiu	sp,sp,32
20000e24:	03e00008 	jr	ra
20000e28:	00000000 	nop

20000e2c <icu_set_mask>:
20000e2c:	27bdffe0 	addiu	sp,sp,-32
20000e30:	afbf001c 	sw	ra,28(sp)
20000e34:	afa40020 	sw	a0,32(sp)
20000e38:	afa00010 	sw	zero,16(sp)
20000e3c:	24040008 	li	a0,8
20000e40:	24050002 	li	a1,2
20000e44:	8fa60020 	lw	a2,32(sp)
20000e48:	00003821 	move	a3,zero
20000e4c:	0c000000 	jal	20000000 <sys_call>
20000e50:	00000000 	nop
20000e54:	8fbf001c 	lw	ra,28(sp)
20000e58:	27bd0020 	addiu	sp,sp,32
20000e5c:	03e00008 	jr	ra
20000e60:	00000000 	nop

20000e64 <icu_clear_mask>:
20000e64:	27bdffe0 	addiu	sp,sp,-32
20000e68:	afbf001c 	sw	ra,28(sp)
20000e6c:	afa40020 	sw	a0,32(sp)
20000e70:	afa00010 	sw	zero,16(sp)
20000e74:	24040008 	li	a0,8
20000e78:	24050003 	li	a1,3
20000e7c:	8fa60020 	lw	a2,32(sp)
20000e80:	00003821 	move	a3,zero
20000e84:	0c000000 	jal	20000000 <sys_call>
20000e88:	00000000 	nop
20000e8c:	8fbf001c 	lw	ra,28(sp)
20000e90:	27bd0020 	addiu	sp,sp,32
20000e94:	03e00008 	jr	ra
20000e98:	00000000 	nop

20000e9c <icu_get_mask>:
20000e9c:	27bdffe0 	addiu	sp,sp,-32
20000ea0:	afbf001c 	sw	ra,28(sp)
20000ea4:	afa40020 	sw	a0,32(sp)
20000ea8:	8fa20020 	lw	v0,32(sp)
20000eac:	afa00010 	sw	zero,16(sp)
20000eb0:	24040009 	li	a0,9
20000eb4:	24050001 	li	a1,1
20000eb8:	00403021 	move	a2,v0
20000ebc:	00003821 	move	a3,zero
20000ec0:	0c000000 	jal	20000000 <sys_call>
20000ec4:	00000000 	nop
20000ec8:	8fbf001c 	lw	ra,28(sp)
20000ecc:	27bd0020 	addiu	sp,sp,32
20000ed0:	03e00008 	jr	ra
20000ed4:	00000000 	nop

20000ed8 <icu_get_irqs>:
20000ed8:	27bdffe0 	addiu	sp,sp,-32
20000edc:	afbf001c 	sw	ra,28(sp)
20000ee0:	afa40020 	sw	a0,32(sp)
20000ee4:	8fa20020 	lw	v0,32(sp)
20000ee8:	afa00010 	sw	zero,16(sp)
20000eec:	24040009 	li	a0,9
20000ef0:	00002821 	move	a1,zero
20000ef4:	00403021 	move	a2,v0
20000ef8:	00003821 	move	a3,zero
20000efc:	0c000000 	jal	20000000 <sys_call>
20000f00:	00000000 	nop
20000f04:	8fbf001c 	lw	ra,28(sp)
20000f08:	27bd0020 	addiu	sp,sp,32
20000f0c:	03e00008 	jr	ra
20000f10:	00000000 	nop

20000f14 <icu_get_index>:
20000f14:	27bdffe0 	addiu	sp,sp,-32
20000f18:	afbf001c 	sw	ra,28(sp)
20000f1c:	afa40020 	sw	a0,32(sp)
20000f20:	8fa20020 	lw	v0,32(sp)
20000f24:	afa00010 	sw	zero,16(sp)
20000f28:	24040009 	li	a0,9
20000f2c:	24050004 	li	a1,4
20000f30:	00403021 	move	a2,v0
20000f34:	00003821 	move	a3,zero
20000f38:	0c000000 	jal	20000000 <sys_call>
20000f3c:	00000000 	nop
20000f40:	8fbf001c 	lw	ra,28(sp)
20000f44:	27bd0020 	addiu	sp,sp,32
20000f48:	03e00008 	jr	ra
20000f4c:	00000000 	nop

20000f50 <lock_acquire>:
20000f50:	27bdffe0 	addiu	sp,sp,-32
20000f54:	afbf001c 	sw	ra,28(sp)
20000f58:	afa40020 	sw	a0,32(sp)
20000f5c:	afa00010 	sw	zero,16(sp)
20000f60:	2404000d 	li	a0,13
20000f64:	8fa50020 	lw	a1,32(sp)
20000f68:	00003021 	move	a2,zero
20000f6c:	00003821 	move	a3,zero
20000f70:	0c000000 	jal	20000000 <sys_call>
20000f74:	00000000 	nop
20000f78:	8fbf001c 	lw	ra,28(sp)
20000f7c:	27bd0020 	addiu	sp,sp,32
20000f80:	03e00008 	jr	ra
20000f84:	00000000 	nop

20000f88 <lock_release>:
20000f88:	27bdffe0 	addiu	sp,sp,-32
20000f8c:	afbf001c 	sw	ra,28(sp)
20000f90:	afa40020 	sw	a0,32(sp)
20000f94:	afa00010 	sw	zero,16(sp)
20000f98:	2404000c 	li	a0,12
20000f9c:	8fa50020 	lw	a1,32(sp)
20000fa0:	00003021 	move	a2,zero
20000fa4:	00003821 	move	a3,zero
20000fa8:	0c000000 	jal	20000000 <sys_call>
20000fac:	00000000 	nop
20000fb0:	8fbf001c 	lw	ra,28(sp)
20000fb4:	27bd0020 	addiu	sp,sp,32
20000fb8:	03e00008 	jr	ra
20000fbc:	00000000 	nop

20000fc0 <ioc_write>:
20000fc0:	27bdffe0 	addiu	sp,sp,-32
20000fc4:	afbf001c 	sw	ra,28(sp)
20000fc8:	afa40020 	sw	a0,32(sp)
20000fcc:	afa50024 	sw	a1,36(sp)
20000fd0:	afa60028 	sw	a2,40(sp)
20000fd4:	8fa50020 	lw	a1,32(sp)
20000fd8:	8fa30024 	lw	v1,36(sp)
20000fdc:	8fa20028 	lw	v0,40(sp)
20000fe0:	afa00010 	sw	zero,16(sp)
20000fe4:	24040015 	li	a0,21
20000fe8:	00603021 	move	a2,v1
20000fec:	00403821 	move	a3,v0
20000ff0:	0c000000 	jal	20000000 <sys_call>
20000ff4:	00000000 	nop
20000ff8:	8fbf001c 	lw	ra,28(sp)
20000ffc:	27bd0020 	addiu	sp,sp,32
20001000:	03e00008 	jr	ra
20001004:	00000000 	nop

20001008 <ioc_read>:
20001008:	27bdffe0 	addiu	sp,sp,-32
2000100c:	afbf001c 	sw	ra,28(sp)
20001010:	afa40020 	sw	a0,32(sp)
20001014:	afa50024 	sw	a1,36(sp)
20001018:	afa60028 	sw	a2,40(sp)
2000101c:	8fa50020 	lw	a1,32(sp)
20001020:	8fa30024 	lw	v1,36(sp)
20001024:	8fa20028 	lw	v0,40(sp)
20001028:	afa00010 	sw	zero,16(sp)
2000102c:	24040016 	li	a0,22
20001030:	00603021 	move	a2,v1
20001034:	00403821 	move	a3,v0
20001038:	0c000000 	jal	20000000 <sys_call>
2000103c:	00000000 	nop
20001040:	8fbf001c 	lw	ra,28(sp)
20001044:	27bd0020 	addiu	sp,sp,32
20001048:	03e00008 	jr	ra
2000104c:	00000000 	nop

20001050 <ioc_completed>:
20001050:	27bdffe0 	addiu	sp,sp,-32
20001054:	afbf001c 	sw	ra,28(sp)
20001058:	afa00010 	sw	zero,16(sp)
2000105c:	24040017 	li	a0,23
20001060:	00002821 	move	a1,zero
20001064:	00003021 	move	a2,zero
20001068:	00003821 	move	a3,zero
2000106c:	0c000000 	jal	20000000 <sys_call>
20001070:	00000000 	nop
20001074:	8fbf001c 	lw	ra,28(sp)
20001078:	27bd0020 	addiu	sp,sp,32
2000107c:	03e00008 	jr	ra
20001080:	00000000 	nop

20001084 <fb_sync_write>:
20001084:	27bdffe0 	addiu	sp,sp,-32
20001088:	afbf001c 	sw	ra,28(sp)
2000108c:	afa40020 	sw	a0,32(sp)
20001090:	afa50024 	sw	a1,36(sp)
20001094:	afa60028 	sw	a2,40(sp)
20001098:	8fa50020 	lw	a1,32(sp)
2000109c:	8fa30024 	lw	v1,36(sp)
200010a0:	8fa20028 	lw	v0,40(sp)
200010a4:	afa00010 	sw	zero,16(sp)
200010a8:	24040010 	li	a0,16
200010ac:	00603021 	move	a2,v1
200010b0:	00403821 	move	a3,v0
200010b4:	0c000000 	jal	20000000 <sys_call>
200010b8:	00000000 	nop
200010bc:	8fbf001c 	lw	ra,28(sp)
200010c0:	27bd0020 	addiu	sp,sp,32
200010c4:	03e00008 	jr	ra
200010c8:	00000000 	nop

200010cc <fb_sync_read>:
200010cc:	27bdffe0 	addiu	sp,sp,-32
200010d0:	afbf001c 	sw	ra,28(sp)
200010d4:	afa40020 	sw	a0,32(sp)
200010d8:	afa50024 	sw	a1,36(sp)
200010dc:	afa60028 	sw	a2,40(sp)
200010e0:	8fa50020 	lw	a1,32(sp)
200010e4:	8fa30024 	lw	v1,36(sp)
200010e8:	8fa20028 	lw	v0,40(sp)
200010ec:	afa00010 	sw	zero,16(sp)
200010f0:	24040011 	li	a0,17
200010f4:	00603021 	move	a2,v1
200010f8:	00403821 	move	a3,v0
200010fc:	0c000000 	jal	20000000 <sys_call>
20001100:	00000000 	nop
20001104:	8fbf001c 	lw	ra,28(sp)
20001108:	27bd0020 	addiu	sp,sp,32
2000110c:	03e00008 	jr	ra
20001110:	00000000 	nop

20001114 <fb_write>:
20001114:	27bdffe0 	addiu	sp,sp,-32
20001118:	afbf001c 	sw	ra,28(sp)
2000111c:	afa40020 	sw	a0,32(sp)
20001120:	afa50024 	sw	a1,36(sp)
20001124:	afa60028 	sw	a2,40(sp)
20001128:	8fa50020 	lw	a1,32(sp)
2000112c:	8fa30024 	lw	v1,36(sp)
20001130:	8fa20028 	lw	v0,40(sp)
20001134:	afa00010 	sw	zero,16(sp)
20001138:	24040012 	li	a0,18
2000113c:	00603021 	move	a2,v1
20001140:	00403821 	move	a3,v0
20001144:	0c000000 	jal	20000000 <sys_call>
20001148:	00000000 	nop
2000114c:	8fbf001c 	lw	ra,28(sp)
20001150:	27bd0020 	addiu	sp,sp,32
20001154:	03e00008 	jr	ra
20001158:	00000000 	nop

2000115c <fb_read>:
2000115c:	27bdffe0 	addiu	sp,sp,-32
20001160:	afbf001c 	sw	ra,28(sp)
20001164:	afa40020 	sw	a0,32(sp)
20001168:	afa50024 	sw	a1,36(sp)
2000116c:	afa60028 	sw	a2,40(sp)
20001170:	8fa50020 	lw	a1,32(sp)
20001174:	8fa30024 	lw	v1,36(sp)
20001178:	8fa20028 	lw	v0,40(sp)
2000117c:	afa00010 	sw	zero,16(sp)
20001180:	24040013 	li	a0,19
20001184:	00603021 	move	a2,v1
20001188:	00403821 	move	a3,v0
2000118c:	0c000000 	jal	20000000 <sys_call>
20001190:	00000000 	nop
20001194:	8fbf001c 	lw	ra,28(sp)
20001198:	27bd0020 	addiu	sp,sp,32
2000119c:	03e00008 	jr	ra
200011a0:	00000000 	nop

200011a4 <fb_completed>:
200011a4:	27bdffe0 	addiu	sp,sp,-32
200011a8:	afbf001c 	sw	ra,28(sp)
200011ac:	afa00010 	sw	zero,16(sp)
200011b0:	24040014 	li	a0,20
200011b4:	00002821 	move	a1,zero
200011b8:	00003021 	move	a2,zero
200011bc:	00003821 	move	a3,zero
200011c0:	0c000000 	jal	20000000 <sys_call>
200011c4:	00000000 	nop
200011c8:	8fbf001c 	lw	ra,28(sp)
200011cc:	27bd0020 	addiu	sp,sp,32
200011d0:	03e00008 	jr	ra
200011d4:	00000000 	nop

200011d8 <load>:
200011d8:	27bdffe0 	addiu	sp,sp,-32
200011dc:	afbf001c 	sw	ra,28(sp)
200011e0:	afa00010 	sw	zero,16(sp)
200011e4:	0c00000f 	jal	2000003c <procid>
200011e8:	00000000 	nop
200011ec:	3c033100 	lui	v1,0x3100
200011f0:	246400b8 	addiu	a0,v1,184
200011f4:	00402821 	move	a1,v0
200011f8:	0c00020a 	jal	20000828 <tty_printf>
200011fc:	00000000 	nop
20001200:	080004b7 	j	200012dc <load+0x104>
20001204:	00000000 	nop
20001208:	8f82fff8 	lw	v0,-8(gp)
2000120c:	1040fffe 	beqz	v0,20001208 <load+0x30>
20001210:	00000000 	nop
20001214:	0c00001c 	jal	20000070 <proctime>
20001218:	00000000 	nop
2000121c:	3c033100 	lui	v1,0x3100
20001220:	246400d8 	addiu	a0,v1,216
20001224:	8fa50010 	lw	a1,16(sp)
20001228:	00403021 	move	a2,v0
2000122c:	0c00020a 	jal	20000828 <tty_printf>
20001230:	00000000 	nop
20001234:	8fa20010 	lw	v0,16(sp)
20001238:	00021380 	sll	v0,v0,0xe
2000123c:	04410002 	bgez	v0,20001248 <load+0x70>
20001240:	00000000 	nop
20001244:	244201ff 	addiu	v0,v0,511
20001248:	00021243 	sra	v0,v0,0x9
2000124c:	00402021 	move	a0,v0
20001250:	3c023100 	lui	v0,0x3100
20001254:	24454298 	addiu	a1,v0,17048
20001258:	24060020 	li	a2,32
2000125c:	0c000402 	jal	20001008 <ioc_read>
20001260:	00000000 	nop
20001264:	10400007 	beqz	v0,20001284 <load+0xac>
20001268:	00000000 	nop
2000126c:	3c023100 	lui	v0,0x3100
20001270:	2444010c 	addiu	a0,v0,268
20001274:	0c00020a 	jal	20000828 <tty_printf>
20001278:	00000000 	nop
2000127c:	0c000029 	jal	200000a4 <exit>
20001280:	00000000 	nop
20001284:	0c000414 	jal	20001050 <ioc_completed>
20001288:	00000000 	nop
2000128c:	10400007 	beqz	v0,200012ac <load+0xd4>
20001290:	00000000 	nop
20001294:	3c023100 	lui	v0,0x3100
20001298:	24440120 	addiu	a0,v0,288
2000129c:	0c00020a 	jal	20000828 <tty_printf>
200012a0:	00000000 	nop
200012a4:	0c000029 	jal	200000a4 <exit>
200012a8:	00000000 	nop
200012ac:	af80fff8 	sw	zero,-8(gp)
200012b0:	0c00001c 	jal	20000070 <proctime>
200012b4:	00000000 	nop
200012b8:	3c033100 	lui	v1,0x3100
200012bc:	24640138 	addiu	a0,v1,312
200012c0:	8fa50010 	lw	a1,16(sp)
200012c4:	00403021 	move	a2,v0
200012c8:	0c00020a 	jal	20000828 <tty_printf>
200012cc:	00000000 	nop
200012d0:	8fa20010 	lw	v0,16(sp)
200012d4:	24420001 	addiu	v0,v0,1
200012d8:	afa20010 	sw	v0,16(sp)
200012dc:	8fa20010 	lw	v0,16(sp)
200012e0:	28420005 	slti	v0,v0,5
200012e4:	1440ffc8 	bnez	v0,20001208 <load+0x30>
200012e8:	00000000 	nop
200012ec:	0c000029 	jal	200000a4 <exit>
200012f0:	00000000 	nop
200012f4:	8fbf001c 	lw	ra,28(sp)
200012f8:	27bd0020 	addiu	sp,sp,32
200012fc:	03e00008 	jr	ra
20001300:	00000000 	nop

20001304 <transpose>:
20001304:	27bdffd8 	addiu	sp,sp,-40
20001308:	afbf0024 	sw	ra,36(sp)
2000130c:	afa00010 	sw	zero,16(sp)
20001310:	0c00000f 	jal	2000003c <procid>
20001314:	00000000 	nop
20001318:	3c033100 	lui	v1,0x3100
2000131c:	246400b8 	addiu	a0,v1,184
20001320:	00402821 	move	a1,v0
20001324:	0c00020a 	jal	20000828 <tty_printf>
20001328:	00000000 	nop
2000132c:	0800050e 	j	20001438 <transpose+0x134>
20001330:	00000000 	nop
20001334:	8f83fff8 	lw	v1,-8(gp)
20001338:	24020001 	li	v0,1
2000133c:	1062fffd 	beq	v1,v0,20001334 <transpose+0x30>
20001340:	00000000 	nop
20001344:	8f82fffc 	lw	v0,-4(gp)
20001348:	1040fffa 	beqz	v0,20001334 <transpose+0x30>
2000134c:	00000000 	nop
20001350:	0c00001c 	jal	20000070 <proctime>
20001354:	00000000 	nop
20001358:	3c033100 	lui	v1,0x3100
2000135c:	2464016c 	addiu	a0,v1,364
20001360:	8fa50010 	lw	a1,16(sp)
20001364:	00403021 	move	a2,v0
20001368:	0c00020a 	jal	20000828 <tty_printf>
2000136c:	00000000 	nop
20001370:	afa00018 	sw	zero,24(sp)
20001374:	080004fc 	j	200013f0 <transpose+0xec>
20001378:	00000000 	nop
2000137c:	afa00014 	sw	zero,20(sp)
20001380:	080004f5 	j	200013d4 <transpose+0xd0>
20001384:	00000000 	nop
20001388:	8fa50018 	lw	a1,24(sp)
2000138c:	8fa40014 	lw	a0,20(sp)
20001390:	8fa60014 	lw	a2,20(sp)
20001394:	8fa30018 	lw	v1,24(sp)
20001398:	3c023100 	lui	v0,0x3100
2000139c:	000631c0 	sll	a2,a2,0x7
200013a0:	00c31821 	addu	v1,a2,v1
200013a4:	24424298 	addiu	v0,v0,17048
200013a8:	00621021 	addu	v0,v1,v0
200013ac:	90430000 	lbu	v1,0(v0)
200013b0:	3c023100 	lui	v0,0x3100
200013b4:	000529c0 	sll	a1,a1,0x7
200013b8:	00a42021 	addu	a0,a1,a0
200013bc:	24420298 	addiu	v0,v0,664
200013c0:	00821021 	addu	v0,a0,v0
200013c4:	a0430000 	sb	v1,0(v0)
200013c8:	8fa20014 	lw	v0,20(sp)
200013cc:	24420001 	addiu	v0,v0,1
200013d0:	afa20014 	sw	v0,20(sp)
200013d4:	8fa20014 	lw	v0,20(sp)
200013d8:	28420080 	slti	v0,v0,128
200013dc:	1440ffea 	bnez	v0,20001388 <transpose+0x84>
200013e0:	00000000 	nop
200013e4:	8fa20018 	lw	v0,24(sp)
200013e8:	24420001 	addiu	v0,v0,1
200013ec:	afa20018 	sw	v0,24(sp)
200013f0:	8fa20018 	lw	v0,24(sp)
200013f4:	28420080 	slti	v0,v0,128
200013f8:	1440ffe0 	bnez	v0,2000137c <transpose+0x78>
200013fc:	00000000 	nop
20001400:	24020001 	li	v0,1
20001404:	af82fff8 	sw	v0,-8(gp)
20001408:	af80fffc 	sw	zero,-4(gp)
2000140c:	0c00001c 	jal	20000070 <proctime>
20001410:	00000000 	nop
20001414:	3c033100 	lui	v1,0x3100
20001418:	246401a4 	addiu	a0,v1,420
2000141c:	8fa50010 	lw	a1,16(sp)
20001420:	00403021 	move	a2,v0
20001424:	0c00020a 	jal	20000828 <tty_printf>
20001428:	00000000 	nop
2000142c:	8fa20010 	lw	v0,16(sp)
20001430:	24420001 	addiu	v0,v0,1
20001434:	afa20010 	sw	v0,16(sp)
20001438:	8fa20010 	lw	v0,16(sp)
2000143c:	28420005 	slti	v0,v0,5
20001440:	1440ffbc 	bnez	v0,20001334 <transpose+0x30>
20001444:	00000000 	nop
20001448:	0c000029 	jal	200000a4 <exit>
2000144c:	00000000 	nop
20001450:	8fbf0024 	lw	ra,36(sp)
20001454:	27bd0028 	addiu	sp,sp,40
20001458:	03e00008 	jr	ra
2000145c:	00000000 	nop

20001460 <display>:
20001460:	27bdffe0 	addiu	sp,sp,-32
20001464:	afbf001c 	sw	ra,28(sp)
20001468:	afa00010 	sw	zero,16(sp)
2000146c:	0c00000f 	jal	2000003c <procid>
20001470:	00000000 	nop
20001474:	3c033100 	lui	v1,0x3100
20001478:	246400b8 	addiu	a0,v1,184
2000147c:	00402821 	move	a1,v0
20001480:	0c00020a 	jal	20000828 <tty_printf>
20001484:	00000000 	nop
20001488:	0800055b 	j	2000156c <display+0x10c>
2000148c:	00000000 	nop
20001490:	8f83fffc 	lw	v1,-4(gp)
20001494:	24020001 	li	v0,1
20001498:	1062fffd 	beq	v1,v0,20001490 <display+0x30>
2000149c:	00000000 	nop
200014a0:	0c00001c 	jal	20000070 <proctime>
200014a4:	00000000 	nop
200014a8:	3c033100 	lui	v1,0x3100
200014ac:	246401e0 	addiu	a0,v1,480
200014b0:	8fa50010 	lw	a1,16(sp)
200014b4:	00403021 	move	a2,v0
200014b8:	0c00020a 	jal	20000828 <tty_printf>
200014bc:	00000000 	nop
200014c0:	00002021 	move	a0,zero
200014c4:	3c023100 	lui	v0,0x3100
200014c8:	24450298 	addiu	a1,v0,664
200014cc:	24064000 	li	a2,16384
200014d0:	0c000445 	jal	20001114 <fb_write>
200014d4:	00000000 	nop
200014d8:	10400009 	beqz	v0,20001500 <display+0xa0>
200014dc:	00000000 	nop
200014e0:	3c023100 	lui	v0,0x3100
200014e4:	24440214 	addiu	a0,v0,532
200014e8:	0c00020a 	jal	20000828 <tty_printf>
200014ec:	00000000 	nop
200014f0:	0c000029 	jal	200000a4 <exit>
200014f4:	00000000 	nop
200014f8:	08000544 	j	20001510 <display+0xb0>
200014fc:	00000000 	nop
20001500:	3c023100 	lui	v0,0x3100
20001504:	2444022c 	addiu	a0,v0,556
20001508:	0c00020a 	jal	20000828 <tty_printf>
2000150c:	00000000 	nop
20001510:	0c000469 	jal	200011a4 <fb_completed>
20001514:	00000000 	nop
20001518:	10400007 	beqz	v0,20001538 <display+0xd8>
2000151c:	00000000 	nop
20001520:	3c023100 	lui	v0,0x3100
20001524:	24440248 	addiu	a0,v0,584
20001528:	0c00020a 	jal	20000828 <tty_printf>
2000152c:	00000000 	nop
20001530:	0c000029 	jal	200000a4 <exit>
20001534:	00000000 	nop
20001538:	24020001 	li	v0,1
2000153c:	af82fffc 	sw	v0,-4(gp)
20001540:	0c00001c 	jal	20000070 <proctime>
20001544:	00000000 	nop
20001548:	3c033100 	lui	v1,0x3100
2000154c:	2464025c 	addiu	a0,v1,604
20001550:	8fa50010 	lw	a1,16(sp)
20001554:	00403021 	move	a2,v0
20001558:	0c00020a 	jal	20000828 <tty_printf>
2000155c:	00000000 	nop
20001560:	8fa20010 	lw	v0,16(sp)
20001564:	24420001 	addiu	v0,v0,1
20001568:	afa20010 	sw	v0,16(sp)
2000156c:	8fa20010 	lw	v0,16(sp)
20001570:	28420005 	slti	v0,v0,5
20001574:	1440ffc6 	bnez	v0,20001490 <display+0x30>
20001578:	00000000 	nop
2000157c:	0c000029 	jal	200000a4 <exit>
20001580:	00000000 	nop
20001584:	8fbf001c 	lw	ra,28(sp)
20001588:	27bd0020 	addiu	sp,sp,32
2000158c:	03e00008 	jr	ra
20001590:	00000000 	nop

Disassembly of section seg_reset:

bfc00000 <reset>:
bfc00000:	3c1b0400 	lui	k1,0x400
bfc00004:	277b0000 	addiu	k1,k1,0
bfc00008:	401a7801 	mfc0	k0,$15,1
bfc0000c:	334a0007 	andi	t2,k0,0x7
bfc00010:	001a5f00 	sll	t3,k0,0x1c
bfc00014:	036bd821 	addu	k1,k1,t3
bfc00018:	3c1a0001 	lui	k0,0x1
bfc0001c:	037ae821 	addu	sp,k1,k0
bfc00020:	3c1a8000 	lui	k0,0x8000
bfc00024:	275a03e8 	addiu	k0,k0,1000
bfc00028:	3c1b8000 	lui	k1,0x8000
bfc0002c:	277b1c68 	addiu	k1,k1,7272
bfc00030:	af5b0000 	sw	k1,0(k0)
bfc00034:	3c1b8000 	lui	k1,0x8000
bfc00038:	277b1d10 	addiu	k1,k1,7440
bfc0003c:	af5b0004 	sw	k1,4(k0)
bfc00040:	3c1b8000 	lui	k1,0x8000
bfc00044:	277b1c40 	addiu	k1,k1,7232
bfc00048:	af5b0008 	sw	k1,8(k0)
bfc0004c:	3c1b8000 	lui	k1,0x8000
bfc00050:	277b1c14 	addiu	k1,k1,7188
bfc00054:	af5b000c 	sw	k1,12(k0)
bfc00058:	3c1b8600 	lui	k1,0x8600
bfc0005c:	277b0000 	addiu	k1,k1,0
bfc00060:	036bd821 	addu	k1,k1,t3
bfc00064:	241a000f 	li	k0,15
bfc00068:	af7a0008 	sw	k0,8(k1)
bfc0006c:	3c1abfc0 	lui	k0,0xbfc0
bfc00070:	275a0098 	addiu	k0,k0,152
bfc00074:	000ad880 	sll	k1,t2,0x2
bfc00078:	035bd021 	addu	k0,k0,k1
bfc0007c:	8f5b0000 	lw	k1,0(k0)
bfc00080:	409b7000 	mtc0	k1,c0_epc
bfc00084:	3c1c3100 	lui	gp,0x3100
bfc00088:	279c0298 	addiu	gp,gp,664
bfc0008c:	341aff13 	li	k0,0xff13
bfc00090:	409a6000 	mtc0	k0,c0_status
bfc00094:	42000018 	eret

bfc00098 <tab_main>:
bfc00098:	200011d8 	addi	zero,zero,4568
bfc0009c:	20001304 	addi	zero,zero,4868
bfc000a0:	20001460 	addi	zero,zero,5216
bfc000a4:	200000a4 	addi	zero,zero,164
bfc000a8:	200000a4 	addi	zero,zero,164
bfc000ac:	200000a4 	addi	zero,zero,164
bfc000b0:	200000a4 	addi	zero,zero,164
bfc000b4:	200000a4 	addi	zero,zero,164

Disassembly of section seg_data:

31000000 <HexaTab.1151-0xa4>:
31000000:	33323130 	andi	s2,t9,0x3130
31000004:	37363534 	ori	s6,t9,0x3534
31000008:	00003938 	0x3938
3100000c:	33323130 	andi	s2,t9,0x3130
31000010:	37363534 	ori	s6,t9,0x3534
31000014:	42413938 	c0	0x413938
31000018:	00004443 	sra	t0,zero,0x11
3100001c:	21210a0a 	addi	at,t1,2570
31000020:	45202021 	0x45202021
31000024:	20746978 	addi	s4,v1,27000
31000028:	6f725020 	0x6f725020
3100002c:	73736563 	0x73736563
31000030:	2020726f 	addi	zero,at,29295
31000034:	20202020 	addi	zero,at,8224
31000038:	20202020 	addi	zero,at,8224
3100003c:	0a212121 	j	38848484 <buf_in+0x78441ec>
31000040:	00000000 	nop
31000044:	0000002d 	0x2d
31000048:	00007830 	tge	zero,zero,0x1e0
3100004c:	2000098c 	addi	zero,zero,2444
31000050:	200009b4 	addi	zero,zero,2484
31000054:	20000be8 	addi	zero,zero,3048
31000058:	20000be8 	addi	zero,zero,3048
3100005c:	20000be8 	addi	zero,zero,3048
31000060:	20000be8 	addi	zero,zero,3048
31000064:	20000be8 	addi	zero,zero,3048
31000068:	20000be8 	addi	zero,zero,3048
3100006c:	20000be8 	addi	zero,zero,3048
31000070:	20000be8 	addi	zero,zero,3048
31000074:	20000be8 	addi	zero,zero,3048
31000078:	20000be8 	addi	zero,zero,3048
3100007c:	20000be8 	addi	zero,zero,3048
31000080:	20000be8 	addi	zero,zero,3048
31000084:	20000be8 	addi	zero,zero,3048
31000088:	20000be8 	addi	zero,zero,3048
3100008c:	20000ba4 	addi	zero,zero,2980
31000090:	20000be8 	addi	zero,zero,3048
31000094:	200009f0 	addi	zero,zero,2544
31000098:	20000be8 	addi	zero,zero,3048
3100009c:	20000be8 	addi	zero,zero,3048
310000a0:	20000ad8 	addi	zero,zero,2776

310000a4 <HexaTab.1151>:
310000a4:	33323130 	andi	s2,t9,0x3130
310000a8:	37363534 	ori	s6,t9,0x3534
310000ac:	42413938 	c0	0x413938
310000b0:	46454443 	c1	0x454443
310000b4:	00000000 	nop
310000b8:	21212120 	addi	at,t1,8480
310000bc:	72502020 	clz	a0 or s0,s2
310000c0:	7365636f 	0x7365636f
310000c4:	20726f73 	addi	s2,v1,28531
310000c8:	72206425 	0x72206425
310000cc:	696e6e75 	0x696e6e75
310000d0:	2120676e 	addi	zero,t1,26478
310000d4:	000a2121 	0xa2121
310000d8:	2a2a200a 	slti	t2,s1,8202
310000dc:	7453202a 	jalx	314c80a8 <buf_in+0x4c3e10>
310000e0:	69747261 	0x69747261
310000e4:	6c20676e 	0x6c20676e
310000e8:	2064616f 	addi	a0,v1,24943
310000ec:	20726f66 	addi	s2,v1,28518
310000f0:	67616d69 	0x67616d69
310000f4:	64252065 	0x64252065
310000f8:	2a2a2a20 	slti	t2,s1,10784
310000fc:	20746120 	addi	s4,v1,24864
31000100:	6c637963 	0x6c637963
31000104:	64252065 	0x64252065
31000108:	00000a20 	0xa20
3100010c:	65686365 	0x65686365
31000110:	6f692063 	0x6f692063
31000114:	65725f63 	0x65725f63
31000118:	0a206461 	j	38819184 <buf_in+0x7814eec>
3100011c:	00000000 	nop
31000120:	65686365 	0x65686365
31000124:	6f692063 	0x6f692063
31000128:	6f635f63 	0x6f635f63
3100012c:	656c706d 	0x656c706d
31000130:	0a646574 	j	399195d0 <buf_in+0x8915338>
31000134:	00000000 	nop
31000138:	2a2a2a20 	slti	t2,s1,10784
3100013c:	6d6f4320 	0x6d6f4320
31000140:	74656c70 	jalx	3195b1c0 <buf_in+0x956f28>
31000144:	20676e69 	addi	a3,v1,28265
31000148:	64616f6c 	0x64616f6c
3100014c:	726f6620 	0x726f6620
31000150:	616d6920 	0x616d6920
31000154:	25206567 	addiu	zero,t1,25959
31000158:	2a2a2064 	slti	t2,s1,8292
3100015c:	7461202a 	jalx	318480a8 <buf_in+0x843e10>
31000160:	63796320 	0x63796320
31000164:	2520656c 	addiu	zero,t1,25964
31000168:	000a2064 	0xa2064
3100016c:	2a2a200a 	slti	t2,s1,8202
31000170:	7453202a 	jalx	314c80a8 <buf_in+0x4c3e10>
31000174:	69747261 	0x69747261
31000178:	7420676e 	jalx	30819db8 <display+0x10818958>
3100017c:	736e6172 	0x736e6172
31000180:	65736f70 	0x65736f70
31000184:	726f6620 	0x726f6620
31000188:	616d6920 	0x616d6920
3100018c:	25206567 	addiu	zero,t1,25959
31000190:	2a2a2064 	slti	t2,s1,8292
31000194:	7461202a 	jalx	318480a8 <buf_in+0x843e10>
31000198:	63796320 	0x63796320
3100019c:	2520656c 	addiu	zero,t1,25964
310001a0:	000a2064 	0xa2064
310001a4:	2a2a2a20 	slti	t2,s1,10784
310001a8:	6d6f4320 	0x6d6f4320
310001ac:	74656c70 	jalx	3195b1c0 <buf_in+0x956f28>
310001b0:	20676e69 	addi	a3,v1,28265
310001b4:	6e617274 	0x6e617274
310001b8:	736f7073 	0x736f7073
310001bc:	6f662065 	0x6f662065
310001c0:	6d692072 	0x6d692072
310001c4:	20656761 	addi	a1,v1,26465
310001c8:	2a206425 	slti	zero,s1,25637
310001cc:	61202a2a 	0x61202a2a
310001d0:	79632074 	0x79632074
310001d4:	20656c63 	addi	a1,v1,27747
310001d8:	0a206425 	j	38819094 <buf_in+0x7814dfc>
310001dc:	00000000 	nop
310001e0:	2a2a200a 	slti	t2,s1,8202
310001e4:	7473202a 	jalx	31cc80a8 <buf_in+0xcc3e10>
310001e8:	69747261 	0x69747261
310001ec:	6420676e 	0x6420676e
310001f0:	6c707369 	0x6c707369
310001f4:	66207961 	0x66207961
310001f8:	6920726f 	0x6920726f
310001fc:	6567616d 	0x6567616d
31000200:	20642520 	addi	a0,v1,9504
31000204:	63207461 	0x63207461
31000208:	656c6379 	0x656c6379
3100020c:	0a642520 	j	39909480 <buf_in+0x89051e8>
31000210:	00000000 	nop
31000214:	65686365 	0x65686365
31000218:	62662063 	0x62662063
3100021c:	6e79735f 	0x6e79735f
31000220:	72775f63 	0x72775f63
31000224:	0a657469 	j	3995d1a4 <buf_in+0x8958f0c>
31000228:	00000000 	nop
3100022c:	202a2a2a 	addi	t2,at,10794
31000230:	63637573 	0x63637573
31000234:	20737365 	addi	s3,v1,29541
31000238:	775f6266 	jalx	3d7d8998 <buf_in+0xc7d4700>
3100023c:	65746972 	0x65746972
31000240:	2a2a2a20 	slti	t2,s1,10784
31000244:	0000000a 	movz	zero,zero,zero
31000248:	65686365 	0x65686365
3100024c:	62662063 	0x62662063
31000250:	6d6f635f 	0x6d6f635f
31000254:	74656c70 	jalx	3195b1c0 <buf_in+0x956f28>
31000258:	000a6465 	0xa6465
3100025c:	2a2a2a20 	slti	t2,s1,10784
31000260:	6d6f6320 	0x6d6f6320
31000264:	74656c70 	jalx	3195b1c0 <buf_in+0x956f28>
31000268:	20676e69 	addi	a3,v1,28265
3100026c:	70736964 	0x70736964
31000270:	2079616c 	addi	t9,v1,24940
31000274:	20726f66 	addi	s2,v1,28518
31000278:	67616d69 	0x67616d69
3100027c:	64252065 	0x64252065
31000280:	20746120 	addi	s4,v1,24864
31000284:	6c637963 	0x6c637963
31000288:	64252065 	0x64252065
3100028c:	0000000a 	movz	zero,zero,zero

31000290 <buf_in_empty>:
31000290:	00000001 	movf	zero,zero,$fcc0

31000294 <buf_out_empty>:
31000294:	00000001 	movf	zero,zero,$fcc0

31000298 <_gp>:
	...

31004298 <buf_in>:
	...

Disassembly of section .reginfo:

00000000 <.reginfo>:
   0:	3c000c00 	lui	zero,0xc00
	...
  14:	31000298 	andi	zero,t0,0x298

Disassembly of section .pdr:

00000000 <.pdr>:
   0:	bfc00000 	cache	0x0,0(s8)
	...
  20:	80000180 	lb	zero,384(zero)
	...
  40:	800008e8 	lb	zero,2280(zero)
	...
  54:	00000010 	mfhi	zero
  58:	0000001d 	0x1d
  5c:	0000001f 	0x1f
  60:	800009e4 	lb	zero,2532(zero)
	...
  74:	00000008 	jr	zero
  78:	0000001d 	0x1d
  7c:	0000001f 	0x1f
  80:	80000a00 	lb	zero,2560(zero)
	...
  94:	00000008 	jr	zero
  98:	0000001d 	0x1d
  9c:	0000001f 	0x1f
  a0:	80000a18 	lb	zero,2584(zero)
	...
  b4:	00000008 	jr	zero
  b8:	0000001d 	0x1d
  bc:	0000001f 	0x1f
  c0:	80000a3c 	lb	zero,2620(zero)
	...
  d4:	00000008 	jr	zero
  d8:	0000001d 	0x1d
  dc:	0000001f 	0x1f
  e0:	80000a60 	lb	zero,2656(zero)
	...
  f4:	00000008 	jr	zero
  f8:	0000001d 	0x1d
  fc:	0000001f 	0x1f
 100:	80000ad0 	lb	zero,2768(zero)
	...
 114:	00000010 	mfhi	zero
 118:	0000001d 	0x1d
 11c:	0000001f 	0x1f
 120:	80000bdc 	lb	zero,3036(zero)
	...
 134:	00000018 	mult	zero,zero
 138:	0000001d 	0x1d
 13c:	0000001f 	0x1f
 140:	80000cb4 	lb	zero,3252(zero)
	...
 154:	00000008 	jr	zero
 158:	0000001d 	0x1d
 15c:	0000001f 	0x1f
 160:	80000d40 	lb	zero,3392(zero)
	...
 174:	00000008 	jr	zero
 178:	0000001d 	0x1d
 17c:	0000001f 	0x1f
 180:	80000dd0 	lb	zero,3536(zero)
 184:	80000000 	lb	zero,0(zero)
 188:	fffffffc 	sdc3	$31,-4(ra)
	...
 194:	00000038 	0x38
 198:	0000001d 	0x1d
 19c:	0000001f 	0x1f
 1a0:	80000f18 	lb	zero,3864(zero)
 1a4:	80000000 	lb	zero,0(zero)
 1a8:	fffffffc 	sdc3	$31,-4(ra)
	...
 1b4:	00000030 	tge	zero,zero
 1b8:	0000001d 	0x1d
 1bc:	0000001f 	0x1f
 1c0:	80001058 	lb	zero,4184(zero)
 1c4:	80000000 	lb	zero,0(zero)
 1c8:	fffffffc 	sdc3	$31,-4(ra)
	...
 1d4:	00000030 	tge	zero,zero
 1d8:	0000001d 	0x1d
 1dc:	0000001f 	0x1f
 1e0:	80001180 	lb	zero,4480(zero)
 1e4:	80000000 	lb	zero,0(zero)
 1e8:	fffffffc 	sdc3	$31,-4(ra)
	...
 1f4:	00000048 	0x48
 1f8:	0000001d 	0x1d
 1fc:	0000001f 	0x1f
 200:	80001240 	lb	zero,4672(zero)
 204:	80000000 	lb	zero,0(zero)
 208:	fffffffc 	sdc3	$31,-4(ra)
	...
 214:	00000020 	add	zero,zero,zero
 218:	0000001d 	0x1d
 21c:	0000001f 	0x1f
 220:	800012d8 	lb	zero,4824(zero)
 224:	80000000 	lb	zero,0(zero)
 228:	fffffffc 	sdc3	$31,-4(ra)
	...
 234:	00000020 	add	zero,zero,zero
 238:	0000001d 	0x1d
 23c:	0000001f 	0x1f
 240:	80001374 	lb	zero,4980(zero)
	...
 254:	00000008 	jr	zero
 258:	0000001d 	0x1d
 25c:	0000001f 	0x1f
 260:	800013d0 	lb	zero,5072(zero)
	...
 274:	00000008 	jr	zero
 278:	0000001d 	0x1d
 27c:	0000001f 	0x1f
 280:	80001430 	lb	zero,5168(zero)
	...
 294:	00000008 	jr	zero
 298:	0000001d 	0x1d
 29c:	0000001f 	0x1f
 2a0:	80001494 	lb	zero,5268(zero)
 2a4:	80000000 	lb	zero,0(zero)
 2a8:	fffffffc 	sdc3	$31,-4(ra)
	...
 2b4:	00000028 	0x28
 2b8:	0000001d 	0x1d
 2bc:	0000001f 	0x1f
 2c0:	80001544 	lb	zero,5444(zero)
 2c4:	80000000 	lb	zero,0(zero)
 2c8:	fffffffc 	sdc3	$31,-4(ra)
	...
 2d4:	00000028 	0x28
 2d8:	0000001d 	0x1d
 2dc:	0000001f 	0x1f
 2e0:	80001670 	lb	zero,5744(zero)
 2e4:	80000000 	lb	zero,0(zero)
 2e8:	fffffffc 	sdc3	$31,-4(ra)
	...
 2f4:	00000028 	0x28
 2f8:	0000001d 	0x1d
 2fc:	0000001f 	0x1f
 300:	800017b4 	lb	zero,6068(zero)
	...
 318:	0000001d 	0x1d
 31c:	0000001f 	0x1f
 320:	80001810 	lb	zero,6160(zero)
	...
 334:	00000010 	mfhi	zero
 338:	0000001d 	0x1d
 33c:	0000001f 	0x1f
 340:	800018d0 	lb	zero,6352(zero)
	...
 354:	00000010 	mfhi	zero
 358:	0000001d 	0x1d
 35c:	0000001f 	0x1f
 360:	80001998 	lb	zero,6552(zero)
 364:	80000000 	lb	zero,0(zero)
 368:	fffffffc 	sdc3	$31,-4(ra)
	...
 374:	00000028 	0x28
 378:	0000001d 	0x1d
 37c:	0000001f 	0x1f
 380:	80001aac 	lb	zero,6828(zero)
 384:	80000000 	lb	zero,0(zero)
 388:	fffffffc 	sdc3	$31,-4(ra)
	...
 394:	00000028 	0x28
 398:	0000001d 	0x1d
 39c:	0000001f 	0x1f
 3a0:	80001bcc 	lb	zero,7116(zero)
	...
 3b8:	0000001d 	0x1d
 3bc:	0000001f 	0x1f
 3c0:	20000000 	addi	zero,zero,0
 3c4:	80000000 	lb	zero,0(zero)
 3c8:	fffffffc 	sdc3	$31,-4(ra)
	...
 3d4:	00000008 	jr	zero
 3d8:	0000001d 	0x1d
 3dc:	0000001f 	0x1f
 3e0:	2000003c 	addi	zero,zero,60
 3e4:	80000000 	lb	zero,0(zero)
 3e8:	fffffffc 	sdc3	$31,-4(ra)
	...
 3f4:	00000020 	add	zero,zero,zero
 3f8:	0000001d 	0x1d
 3fc:	0000001f 	0x1f
 400:	20000070 	addi	zero,zero,112
 404:	80000000 	lb	zero,0(zero)
 408:	fffffffc 	sdc3	$31,-4(ra)
	...
 414:	00000020 	add	zero,zero,zero
 418:	0000001d 	0x1d
 41c:	0000001f 	0x1f
 420:	200000a4 	addi	zero,zero,164
 424:	80000000 	lb	zero,0(zero)
 428:	fffffffc 	sdc3	$31,-4(ra)
	...
 434:	00000028 	0x28
 438:	0000001d 	0x1d
 43c:	0000001f 	0x1f
 440:	200000e4 	addi	zero,zero,228
 444:	80000000 	lb	zero,0(zero)
 448:	fffffffc 	sdc3	$31,-4(ra)
	...
 454:	00000028 	0x28
 458:	0000001d 	0x1d
 45c:	0000001f 	0x1f
 460:	20000160 	addi	zero,zero,352
 464:	80000000 	lb	zero,0(zero)
 468:	fffffffc 	sdc3	$31,-4(ra)
	...
 474:	00000020 	add	zero,zero,zero
 478:	0000001d 	0x1d
 47c:	0000001f 	0x1f
 480:	200001a0 	addi	zero,zero,416
 484:	80000000 	lb	zero,0(zero)
 488:	fffffffc 	sdc3	$31,-4(ra)
	...
 494:	00000028 	0x28
 498:	0000001d 	0x1d
 49c:	0000001f 	0x1f
 4a0:	2000020c 	addi	zero,zero,524
 4a4:	80000000 	lb	zero,0(zero)
 4a8:	fffffffc 	sdc3	$31,-4(ra)
	...
 4b4:	00000030 	tge	zero,zero
 4b8:	0000001d 	0x1d
 4bc:	0000001f 	0x1f
 4c0:	200002f4 	addi	zero,zero,756
 4c4:	80000000 	lb	zero,0(zero)
 4c8:	fffffffc 	sdc3	$31,-4(ra)
	...
 4d4:	00000028 	0x28
 4d8:	0000001d 	0x1d
 4dc:	0000001f 	0x1f
 4e0:	20000378 	addi	zero,zero,888
 4e4:	80000000 	lb	zero,0(zero)
 4e8:	fffffffc 	sdc3	$31,-4(ra)
	...
 4f4:	00000028 	0x28
 4f8:	0000001d 	0x1d
 4fc:	0000001f 	0x1f
 500:	200003fc 	addi	zero,zero,1020
 504:	80000000 	lb	zero,0(zero)
 508:	fffffffc 	sdc3	$31,-4(ra)
	...
 514:	00000030 	tge	zero,zero
 518:	0000001d 	0x1d
 51c:	0000001f 	0x1f
 520:	20000528 	addi	zero,zero,1320
 524:	80000000 	lb	zero,0(zero)
 528:	fffffffc 	sdc3	$31,-4(ra)
	...
 534:	00000060 	0x60
 538:	0000001d 	0x1d
 53c:	0000001f 	0x1f
 540:	20000828 	addi	zero,zero,2088
 544:	80000000 	lb	zero,0(zero)
 548:	fffffffc 	sdc3	$31,-4(ra)
	...
 554:	00000050 	0x50
 558:	0000001d 	0x1d
 55c:	0000001f 	0x1f
 560:	20000c1c 	addi	zero,zero,3100
 564:	80000000 	lb	zero,0(zero)
 568:	fffffffc 	sdc3	$31,-4(ra)
	...
 574:	00000020 	add	zero,zero,zero
 578:	0000001d 	0x1d
 57c:	0000001f 	0x1f
 580:	20000c58 	addi	zero,zero,3160
 584:	80000000 	lb	zero,0(zero)
 588:	fffffffc 	sdc3	$31,-4(ra)
	...
 594:	00000020 	add	zero,zero,zero
 598:	0000001d 	0x1d
 59c:	0000001f 	0x1f
 5a0:	20000c94 	addi	zero,zero,3220
 5a4:	80000000 	lb	zero,0(zero)
 5a8:	fffffffc 	sdc3	$31,-4(ra)
	...
 5b4:	00000020 	add	zero,zero,zero
 5b8:	0000001d 	0x1d
 5bc:	0000001f 	0x1f
 5c0:	20000ccc 	addi	zero,zero,3276
 5c4:	80000000 	lb	zero,0(zero)
 5c8:	fffffffc 	sdc3	$31,-4(ra)
	...
 5d4:	00000020 	add	zero,zero,zero
 5d8:	0000001d 	0x1d
 5dc:	0000001f 	0x1f
 5e0:	20000d0c 	addi	zero,zero,3340
 5e4:	80000000 	lb	zero,0(zero)
 5e8:	fffffffc 	sdc3	$31,-4(ra)
	...
 5f4:	00000020 	add	zero,zero,zero
 5f8:	0000001d 	0x1d
 5fc:	0000001f 	0x1f
 600:	20000d44 	addi	zero,zero,3396
 604:	80000000 	lb	zero,0(zero)
 608:	fffffffc 	sdc3	$31,-4(ra)
	...
 614:	00000020 	add	zero,zero,zero
 618:	0000001d 	0x1d
 61c:	0000001f 	0x1f
 620:	20000d7c 	addi	zero,zero,3452
 624:	80000000 	lb	zero,0(zero)
 628:	fffffffc 	sdc3	$31,-4(ra)
	...
 634:	00000020 	add	zero,zero,zero
 638:	0000001d 	0x1d
 63c:	0000001f 	0x1f
 640:	20000db4 	addi	zero,zero,3508
 644:	80000000 	lb	zero,0(zero)
 648:	fffffffc 	sdc3	$31,-4(ra)
	...
 654:	00000020 	add	zero,zero,zero
 658:	0000001d 	0x1d
 65c:	0000001f 	0x1f
 660:	20000df0 	addi	zero,zero,3568
 664:	80000000 	lb	zero,0(zero)
 668:	fffffffc 	sdc3	$31,-4(ra)
	...
 674:	00000020 	add	zero,zero,zero
 678:	0000001d 	0x1d
 67c:	0000001f 	0x1f
 680:	20000e2c 	addi	zero,zero,3628
 684:	80000000 	lb	zero,0(zero)
 688:	fffffffc 	sdc3	$31,-4(ra)
	...
 694:	00000020 	add	zero,zero,zero
 698:	0000001d 	0x1d
 69c:	0000001f 	0x1f
 6a0:	20000e64 	addi	zero,zero,3684
 6a4:	80000000 	lb	zero,0(zero)
 6a8:	fffffffc 	sdc3	$31,-4(ra)
	...
 6b4:	00000020 	add	zero,zero,zero
 6b8:	0000001d 	0x1d
 6bc:	0000001f 	0x1f
 6c0:	20000e9c 	addi	zero,zero,3740
 6c4:	80000000 	lb	zero,0(zero)
 6c8:	fffffffc 	sdc3	$31,-4(ra)
	...
 6d4:	00000020 	add	zero,zero,zero
 6d8:	0000001d 	0x1d
 6dc:	0000001f 	0x1f
 6e0:	20000ed8 	addi	zero,zero,3800
 6e4:	80000000 	lb	zero,0(zero)
 6e8:	fffffffc 	sdc3	$31,-4(ra)
	...
 6f4:	00000020 	add	zero,zero,zero
 6f8:	0000001d 	0x1d
 6fc:	0000001f 	0x1f
 700:	20000f14 	addi	zero,zero,3860
 704:	80000000 	lb	zero,0(zero)
 708:	fffffffc 	sdc3	$31,-4(ra)
	...
 714:	00000020 	add	zero,zero,zero
 718:	0000001d 	0x1d
 71c:	0000001f 	0x1f
 720:	20000f50 	addi	zero,zero,3920
 724:	80000000 	lb	zero,0(zero)
 728:	fffffffc 	sdc3	$31,-4(ra)
	...
 734:	00000020 	add	zero,zero,zero
 738:	0000001d 	0x1d
 73c:	0000001f 	0x1f
 740:	20000f88 	addi	zero,zero,3976
 744:	80000000 	lb	zero,0(zero)
 748:	fffffffc 	sdc3	$31,-4(ra)
	...
 754:	00000020 	add	zero,zero,zero
 758:	0000001d 	0x1d
 75c:	0000001f 	0x1f
 760:	20000fc0 	addi	zero,zero,4032
 764:	80000000 	lb	zero,0(zero)
 768:	fffffffc 	sdc3	$31,-4(ra)
	...
 774:	00000020 	add	zero,zero,zero
 778:	0000001d 	0x1d
 77c:	0000001f 	0x1f
 780:	20001008 	addi	zero,zero,4104
 784:	80000000 	lb	zero,0(zero)
 788:	fffffffc 	sdc3	$31,-4(ra)
	...
 794:	00000020 	add	zero,zero,zero
 798:	0000001d 	0x1d
 79c:	0000001f 	0x1f
 7a0:	20001050 	addi	zero,zero,4176
 7a4:	80000000 	lb	zero,0(zero)
 7a8:	fffffffc 	sdc3	$31,-4(ra)
	...
 7b4:	00000020 	add	zero,zero,zero
 7b8:	0000001d 	0x1d
 7bc:	0000001f 	0x1f
 7c0:	20001084 	addi	zero,zero,4228
 7c4:	80000000 	lb	zero,0(zero)
 7c8:	fffffffc 	sdc3	$31,-4(ra)
	...
 7d4:	00000020 	add	zero,zero,zero
 7d8:	0000001d 	0x1d
 7dc:	0000001f 	0x1f
 7e0:	200010cc 	addi	zero,zero,4300
 7e4:	80000000 	lb	zero,0(zero)
 7e8:	fffffffc 	sdc3	$31,-4(ra)
	...
 7f4:	00000020 	add	zero,zero,zero
 7f8:	0000001d 	0x1d
 7fc:	0000001f 	0x1f
 800:	20001114 	addi	zero,zero,4372
 804:	80000000 	lb	zero,0(zero)
 808:	fffffffc 	sdc3	$31,-4(ra)
	...
 814:	00000020 	add	zero,zero,zero
 818:	0000001d 	0x1d
 81c:	0000001f 	0x1f
 820:	2000115c 	addi	zero,zero,4444
 824:	80000000 	lb	zero,0(zero)
 828:	fffffffc 	sdc3	$31,-4(ra)
	...
 834:	00000020 	add	zero,zero,zero
 838:	0000001d 	0x1d
 83c:	0000001f 	0x1f
 840:	200011a4 	addi	zero,zero,4516
 844:	80000000 	lb	zero,0(zero)
 848:	fffffffc 	sdc3	$31,-4(ra)
	...
 854:	00000020 	add	zero,zero,zero
 858:	0000001d 	0x1d
 85c:	0000001f 	0x1f
 860:	200011d8 	addi	zero,zero,4568
 864:	80000000 	lb	zero,0(zero)
 868:	fffffffc 	sdc3	$31,-4(ra)
	...
 874:	00000020 	add	zero,zero,zero
 878:	0000001d 	0x1d
 87c:	0000001f 	0x1f
 880:	20001304 	addi	zero,zero,4868
 884:	80000000 	lb	zero,0(zero)
 888:	fffffffc 	sdc3	$31,-4(ra)
	...
 894:	00000028 	0x28
 898:	0000001d 	0x1d
 89c:	0000001f 	0x1f
 8a0:	20001460 	addi	zero,zero,5216
 8a4:	80000000 	lb	zero,0(zero)
 8a8:	fffffffc 	sdc3	$31,-4(ra)
	...
 8b4:	00000020 	add	zero,zero,zero
 8b8:	0000001d 	0x1d
 8bc:	0000001f 	0x1f

Disassembly of section .comment:

00000000 <.comment>:
   0:	3a434347 	xori	v1,s2,0x4347
   4:	4e472820 	c3	0x472820
   8:	34202955 	ori	zero,at,0x2955
   c:	322e342e 	andi	t6,s1,0x342e
	...

Disassembly of section .gnu.attributes:

00000000 <.gnu.attributes>:
   0:	00000f41 	0xf41
   4:	756e6700 	jalx	5b99c00 <seg_stack_base+0x1b99c00>
   8:	00070100 	sll	zero,a3,0x4
   c:	01040000 	0x1040000

Disassembly of section .debug_abbrev:

00000000 <.debug_abbrev>:
   0:	25011101 	addiu	at,t0,4353
   4:	030b130e 	0x30b130e
   8:	5201110e 	beql	s0,at,4444 <NB_PROCS+0x4440>
   c:	10065501 	beq	zero,a2,15414 <NB_PROCS+0x15410>
  10:	02000006 	srlv	zero,zero,s0
  14:	0e030104 	jal	80c0410 <seg_stack_base+0x40c0410>
  18:	0b3a0b0b 	j	ce82c2c <seg_stack_base+0x8e82c2c>
  1c:	13010b3b 	beq	t8,at,2d0c <NB_PROCS+0x2d08>
  20:	28030000 	slti	v1,zero,0
  24:	1c0e0300 	0x1c0e0300
  28:	0400000d 	bltz	zero,60 <NB_PROCS+0x5c>
  2c:	0e030016 	jal	80c0058 <seg_stack_base+0x40c0058>
  30:	0b3b0b3a 	j	cec2ce8 <seg_stack_base+0x8ec2ce8>
  34:	00001349 	0x1349
  38:	0b002405 	j	c009014 <seg_stack_base+0x8009014>
  3c:	030b3e0b 	0x30b3e0b
  40:	0600000e 	bltz	s0,7c <NB_PROCS+0x78>
  44:	0e03012e 	jal	80c04b8 <seg_stack_base+0x40c04b8>
  48:	0b3b0b3a 	j	cec2ce8 <seg_stack_base+0x8ec2ce8>
  4c:	13490c27 	beq	k0,t1,30ec <NB_PROCS+0x30e8>
  50:	01120111 	0x1120111
  54:	13010640 	beq	t8,at,1958 <NB_PROCS+0x1954>
  58:	05070000 	0x5070000
  5c:	3a0e0300 	xori	t6,s0,0x300
  60:	490b3b0b 	bc2tl	$cc2,ec90 <NB_PROCS+0xec8c>
  64:	000a0213 	0xa0213
  68:	00340800 	0x340800
  6c:	0b3a0803 	j	ce8200c <seg_stack_base+0x8e8200c>
  70:	13490b3b 	beq	k0,t1,2d60 <NB_PROCS+0x2d5c>
  74:	00000a02 	srl	at,zero,0x8
  78:	03003409 	jalr.hb	a2,t8
  7c:	3b0b3a0e 	xori	t3,t8,0x3a0e
  80:	0213490b 	0x213490b
  84:	0a00000a 	j	8000028 <seg_stack_base+0x4000028>
  88:	0b0b000f 	j	c2c003c <seg_stack_base+0x82c003c>
  8c:	0f0b0000 	jal	c2c0000 <seg_stack_base+0x82c0000>
  90:	490b0b00 	bc2tl	$cc2,2c94 <NB_PROCS+0x2c90>
  94:	0c000013 	jal	4c <NB_PROCS+0x48>
  98:	00000026 	xor	zero,zero,zero
  9c:	4900260d 	bc2f	98d4 <NB_PROCS+0x98d0>
  a0:	0e000013 	jal	800004c <seg_stack_base+0x400004c>
  a4:	0c3f012e 	jal	fc04b8 <NB_PROCS+0xfc04b4>
  a8:	0b3a0e03 	j	ce8380c <seg_stack_base+0x8e8380c>
  ac:	13490b3b 	beq	k0,t1,2d9c <NB_PROCS+0x2d98>
  b0:	01120111 	0x1120111
  b4:	13010640 	beq	t8,at,19b8 <NB_PROCS+0x19b4>
  b8:	240f0000 	li	t7,0
  bc:	3e0b0b00 	0x3e0b0b00
  c0:	0008030b 	0x8030b
  c4:	012e1000 	0x12e1000
  c8:	0e030c3f 	jal	80c30fc <seg_stack_base+0x40c30fc>
  cc:	0b3b0b3a 	j	cec2ce8 <seg_stack_base+0x8ec2ce8>
  d0:	01120111 	0x1120111
  d4:	13010640 	beq	t8,at,19d8 <NB_PROCS+0x19d4>
  d8:	2e110000 	sltiu	s1,s0,0
  dc:	030c3f01 	0x30c3f01
  e0:	3b0b3a0e 	xori	t3,t8,0x3a0e
  e4:	110c270b 	beq	t0,t4,9d14 <NB_PROCS+0x9d10>
  e8:	40011201 	0x40011201
  ec:	00130106 	0x130106
  f0:	00051200 	sll	v0,a1,0x8
  f4:	0b3a0803 	j	ce8200c <seg_stack_base+0x8e8200c>
  f8:	13490b3b 	beq	k0,t1,2de8 <NB_PROCS+0x2de4>
  fc:	00000a02 	srl	at,zero,0x8
 100:	49010113 	bc2t	550 <NB_PROCS+0x54c>
 104:	00130113 	0x130113
 108:	00211400 	0x211400
 10c:	0b2f1349 	j	cbc4d24 <seg_stack_base+0x8bc4d24>
 110:	24150000 	li	s5,0
 114:	3e0b0b00 	0x3e0b0b00
 118:	1600000b 	bnez	s0,148 <NB_PROCS+0x144>
 11c:	0c3f012e 	jal	fc04b8 <NB_PROCS+0xfc04b4>
 120:	0b3a0e03 	j	ce8380c <seg_stack_base+0x8e8380c>
 124:	0c270b3b 	jal	9c2cec <NB_PROCS+0x9c2ce8>
 128:	01111349 	0x1111349
 12c:	06400112 	bltz	s2,578 <NB_PROCS+0x574>
 130:	00001301 	0x1301
 134:	49003517 	bc2f	d594 <NB_PROCS+0xd590>
 138:	18000013 	blez	zero,188 <NB_PROCS+0x184>
 13c:	0e030034 	jal	80c00d0 <seg_stack_base+0x40c00d0>
 140:	053b0b3a 	0x53b0b3a
 144:	0a021349 	j	8084d24 <seg_stack_base+0x4084d24>
 148:	2e190000 	sltiu	t9,s0,0
 14c:	030c3f01 	0x30c3f01
 150:	3b0b3a0e 	xori	t3,t8,0x3a0e
 154:	490c2705 	bc2f	$cc3,9d6c <NB_PROCS+0x9d68>
 158:	12011113 	beq	s0,at,45a8 <NB_PROCS+0x45a4>
 15c:	01064001 	0x1064001
 160:	1a000013 	blez	s0,1b0 <NB_PROCS+0x1ac>
 164:	0e030005 	jal	80c0014 <seg_stack_base+0x40c0014>
 168:	053b0b3a 	0x53b0b3a
 16c:	0a021349 	j	8084d24 <seg_stack_base+0x4084d24>
 170:	2e1b0000 	sltiu	k1,s0,0
 174:	030c3f01 	0x30c3f01
 178:	3b0b3a0e 	xori	t3,t8,0x3a0e
 17c:	11134905 	beq	t0,s3,12594 <NB_PROCS+0x12590>
 180:	40011201 	0x40011201
 184:	00130106 	0x130106
 188:	00341c00 	0x341c00
 18c:	0b3a0803 	j	ce8200c <seg_stack_base+0x8e8200c>
 190:	1349053b 	beq	k0,t1,1680 <NB_PROCS+0x167c>
 194:	00000a02 	srl	at,zero,0x8
 198:	0300051d 	0x300051d
 19c:	3b0b3a08 	xori	t3,t8,0x3a08
 1a0:	02134905 	0x2134905
 1a4:	1e00000a 	bgtz	s0,1d0 <NB_PROCS+0x1cc>
 1a8:	0c3f002e 	jal	fc00b8 <NB_PROCS+0xfc00b4>
 1ac:	0b3a0e03 	j	ce8380c <seg_stack_base+0x8e8380c>
 1b0:	1349053b 	beq	k0,t1,16a0 <NB_PROCS+0x169c>
 1b4:	01120111 	0x1120111
 1b8:	00000a40 	sll	at,zero,0x9
 1bc:	0300131f 	0x300131f
 1c0:	000c3c0e 	0xc3c0e
 1c4:	00212000 	0x212000
 1c8:	34210000 	ori	at,at,0x0
 1cc:	3a0e0300 	xori	t6,s0,0x300
 1d0:	490b3b0b 	bc2tl	$cc2,ee00 <NB_PROCS+0xedfc>
 1d4:	3c0c3f13 	lui	t4,0x3f13
 1d8:	2200000c 	addi	zero,s0,12
 1dc:	0e030034 	jal	80c00d0 <seg_stack_base+0x40c00d0>
 1e0:	0b3b0b3a 	j	cec2ce8 <seg_stack_base+0x8ec2ce8>
 1e4:	0c3f1349 	jal	fc4d24 <NB_PROCS+0xfc4d20>
 1e8:	00000a02 	srl	at,zero,0x8
 1ec:	01110100 	0x1110100
 1f0:	0b130e25 	j	c4c3894 <seg_stack_base+0x84c3894>
 1f4:	01110e03 	0x1110e03
 1f8:	06100112 	bltzal	s0,644 <NB_PROCS+0x640>
 1fc:	16020000 	bne	s0,v0,200 <NB_PROCS+0x1fc>
 200:	3a0e0300 	xori	t6,s0,0x300
 204:	490b3b0b 	bc2tl	$cc2,ee34 <NB_PROCS+0xee30>
 208:	03000013 	mtlo	t8
 20c:	0b0b000f 	j	c2c003c <seg_stack_base+0x82c003c>
 210:	00000e03 	sra	at,zero,0x18
 214:	0b002404 	j	c009010 <seg_stack_base+0x8009010>
 218:	030b3e0b 	0x30b3e0b
 21c:	0500000e 	bltz	t0,258 <NB_PROCS+0x254>
 220:	0e030104 	jal	80c0410 <seg_stack_base+0x40c0410>
 224:	0b3a0b0b 	j	ce82c2c <seg_stack_base+0x8e82c2c>
 228:	13010b3b 	beq	t8,at,2f18 <NB_PROCS+0x2f14>
 22c:	28060000 	slti	a2,zero,0
 230:	1c0e0300 	0x1c0e0300
 234:	0700000d 	bltz	t8,26c <NB_PROCS+0x268>
 238:	0c3f012e 	jal	fc04b8 <NB_PROCS+0xfc04b4>
 23c:	0b3a0e03 	j	ce8380c <seg_stack_base+0x8e8380c>
 240:	0c270b3b 	jal	9c2cec <NB_PROCS+0x9c2ce8>
 244:	01111349 	0x1111349
 248:	06400112 	bltz	s2,694 <NB_PROCS+0x690>
 24c:	00001301 	0x1301
 250:	03000508 	0x3000508
 254:	3b0b3a0e 	xori	t3,t8,0x3a0e
 258:	0213490b 	0x213490b
 25c:	0900000a 	j	4000028 <seg_stack_base+0x28>
 260:	0e030034 	jal	80c00d0 <seg_stack_base+0x40c00d0>
 264:	0b3b0b3a 	j	cec2ce8 <seg_stack_base+0x8ec2ce8>
 268:	0a021349 	j	8084d24 <seg_stack_base+0x4084d24>
 26c:	240a0000 	li	t2,0
 270:	3e0b0b00 	0x3e0b0b00
 274:	0008030b 	0x8030b
 278:	002e0b00 	0x2e0b00
 27c:	0e030c3f 	jal	80c30fc <seg_stack_base+0x40c30fc>
 280:	0b3b0b3a 	j	cec2ce8 <seg_stack_base+0x8ec2ce8>
 284:	01111349 	0x1111349
 288:	06400112 	bltz	s2,6d4 <NB_PROCS+0x6d0>
 28c:	2e0c0000 	sltiu	t4,s0,0
 290:	030c3f01 	0x30c3f01
 294:	3b0b3a0e 	xori	t3,t8,0x3a0e
 298:	1113490b 	beq	t0,s3,126c8 <NB_PROCS+0x126c4>
 29c:	40011201 	0x40011201
 2a0:	00130106 	0x130106
 2a4:	00340d00 	0x340d00
 2a8:	0b3a0803 	j	ce8200c <seg_stack_base+0x8e8200c>
 2ac:	13490b3b 	beq	k0,t1,2f9c <NB_PROCS+0x2f98>
 2b0:	00000a02 	srl	at,zero,0x8
 2b4:	0b000f0e 	j	c003c38 <seg_stack_base+0x8003c38>
 2b8:	0013490b 	0x13490b
 2bc:	00050f00 	sll	at,a1,0x1c
 2c0:	0b3a0803 	j	ce8200c <seg_stack_base+0x8e8200c>
 2c4:	13490b3b 	beq	k0,t1,2fb4 <NB_PROCS+0x2fb0>
 2c8:	00000a02 	srl	at,zero,0x8
 2cc:	49010110 	bc2t	710 <NB_PROCS+0x70c>
 2d0:	00130113 	0x130113
 2d4:	00211100 	0x211100
 2d8:	0b2f1349 	j	cbc4d24 <seg_stack_base+0x8bc4d24>
 2dc:	24120000 	li	s2,0
 2e0:	3e0b0b00 	0x3e0b0b00
 2e4:	1300000b 	beqz	t8,314 <NB_PROCS+0x310>
 2e8:	0c3f012e 	jal	fc04b8 <NB_PROCS+0xfc04b4>
 2ec:	0b3a0e03 	j	ce8380c <seg_stack_base+0x8e8380c>
 2f0:	0c27053b 	jal	9c14ec <NB_PROCS+0x9c14e8>
 2f4:	01111349 	0x1111349
 2f8:	06400112 	bltz	s2,744 <NB_PROCS+0x740>
 2fc:	00001301 	0x1301
 300:	03000514 	0x3000514
 304:	3b0b3a0e 	xori	t3,t8,0x3a0e
 308:	02134905 	0x2134905
 30c:	1500000a 	bnez	t0,338 <NB_PROCS+0x334>
 310:	08030034 	j	c00d0 <NB_PROCS+0xc00cc>
 314:	053b0b3a 	0x53b0b3a
 318:	0a021349 	j	8084d24 <seg_stack_base+0x4084d24>
 31c:	34160000 	li	s6,0x0
 320:	3a0e0300 	xori	t6,s0,0x300
 324:	49053b0b 	bc2t	$cc1,ef54 <NB_PROCS+0xef50>
 328:	000a0213 	0xa0213
 32c:	00181700 	sll	v0,t8,0x1c
 330:	0a180000 	j	8600000 <seg_stack_base+0x4600000>
 334:	3a0e0300 	xori	t6,s0,0x300
 338:	11053b0b 	beq	t0,a1,ef68 <NB_PROCS+0xef64>
 33c:	19000001 	blez	t0,344 <NB_PROCS+0x340>
 340:	0111010b 	0x111010b
 344:	13010112 	beq	t8,at,790 <NB_PROCS+0x78c>
 348:	0b1a0000 	j	c680000 <seg_stack_base+0x8680000>
 34c:	00065501 	0x65501
 350:	010b1b00 	0x10b1b00
 354:	01120111 	0x1120111
 358:	261c0000 	addiu	gp,s0,0
 35c:	00134900 	sll	t1,s3,0x4
 360:	00051d00 	sll	v1,a1,0x14
 364:	0b3a0803 	j	ce8200c <seg_stack_base+0x8e8200c>
 368:	1349053b 	beq	k0,t1,1858 <NB_PROCS+0x1854>
 36c:	00000a02 	srl	at,zero,0x8
 370:	0b000f1e 	j	c003c78 <seg_stack_base+0x8003c78>
 374:	1f00000b 	bgtz	t8,3a4 <NB_PROCS+0x3a0>
 378:	0c3f002e 	jal	fc00b8 <NB_PROCS+0xfc00b4>
 37c:	0b3a0e03 	j	ce8380c <seg_stack_base+0x8e8380c>
 380:	1349053b 	beq	k0,t1,1870 <NB_PROCS+0x186c>
 384:	01120111 	0x1120111
 388:	00000640 	sll	zero,zero,0x19
 38c:	01110100 	0x1110100
 390:	0b130e25 	j	c4c3894 <seg_stack_base+0x84c3894>
 394:	0e1b0e03 	jal	86c380c <seg_stack_base+0x46c380c>
 398:	01120111 	0x1120111
 39c:	00000610 	0x610
 3a0:	0b002402 	j	c009008 <seg_stack_base+0x8009008>
 3a4:	030b3e0b 	0x30b3e0b
 3a8:	0300000e 	0x300000e
 3ac:	0c3f012e 	jal	fc04b8 <NB_PROCS+0xfc04b4>
 3b0:	0b3a0e03 	j	ce8380c <seg_stack_base+0x8e8380c>
 3b4:	01110b3b 	0x1110b3b
 3b8:	06400112 	bltz	s2,804 <NB_PROCS+0x800>
 3bc:	00001301 	0x1301
 3c0:	03003404 	0x3003404
 3c4:	3b0b3a0e 	xori	t3,t8,0x3a0e
 3c8:	0213490b 	0x213490b
 3cc:	0500000a 	bltz	t0,3f8 <NB_PROCS+0x3f4>
 3d0:	0b0b0024 	j	c2c0090 <seg_stack_base+0x82c0090>
 3d4:	08030b3e 	j	c2cf8 <NB_PROCS+0xc2cf4>
 3d8:	34060000 	li	a2,0x0
 3dc:	3a080300 	xori	t0,s0,0x300
 3e0:	490b3b0b 	bc2tl	$cc2,f010 <NB_PROCS+0xf00c>
 3e4:	000a0213 	0xa0213
 3e8:	00340700 	0x340700
 3ec:	0b3a0e03 	j	ce8380c <seg_stack_base+0x8e8380c>
 3f0:	13490b3b 	beq	k0,t1,30e0 <NB_PROCS+0x30dc>
 3f4:	0a020c3f 	j	80830fc <seg_stack_base+0x40830fc>
 3f8:	35080000 	ori	t0,t0,0x0
 3fc:	00134900 	sll	t1,s3,0x4
 400:	01010900 	0x1010900
 404:	13011349 	beq	t8,at,512c <NB_PROCS+0x5128>
 408:	210a0000 	addi	t2,t0,0
 40c:	2f134900 	sltiu	s3,t8,18688
 410:	0b00000b 	j	c00002c <seg_stack_base+0x800002c>
 414:	0b0b0024 	j	c2c0090 <seg_stack_base+0x82c0090>
 418:	00000b3e 	0xb3e
	...

Disassembly of section .debug_info:

00000000 <.debug_info>:
       0:	00000d47 	0xd47
       4:	00000002 	srl	zero,zero,0x0
       8:	01040000 	0x1040000
       c:	000005bd 	0x5bd
      10:	00018e01 	0x18e01
	...
      24:	03050200 	0x3050200
      28:	02040000 	0x2040000
      2c:	00005004 	sllv	t2,zero,zero
      30:	05480300 	tgei	t2,768
      34:	03000000 	0x3000000
      38:	0000024e 	0x24e
      3c:	01490301 	0x1490301
      40:	03020000 	0x3020000
      44:	000005d3 	0x5d3
      48:	046b0303 	tltiu	v1,771
      4c:	00040000 	sll	zero,a0,0x0
      50:	0001ea02 	srl	sp,at,0x8
      54:	0c020400 	jal	81000 <NB_PROCS+0x80ffc>
      58:	00000075 	0x75
      5c:	0001fa03 	sra	ra,at,0x8
      60:	01030000 	0x1030000
      64:	01000005 	0x1000005
      68:	0000de03 	sra	k1,zero,0x18
      6c:	ed030200 	swc3	$3,512(t0)
      70:	03000000 	0x3000000
      74:	03450200 	0x3450200
      78:	03040000 	0x3040000
      7c:	0000a004 	sllv	s4,zero,zero
      80:	05500300 	bltzal	t2,c84 <NB_PROCS+0xc80>
      84:	03000000 	0x3000000
      88:	00000634 	teq	zero,zero,0x18
      8c:	038b0301 	0x38b0301
      90:	03020000 	0x3020000
      94:	000005dd 	0x5dd
      98:	03f50303 	0x3f50303
      9c:	00040000 	sll	zero,a0,0x0
      a0:	0005ec02 	srl	sp,a1,0x10
      a4:	1e040400 	0x1e040400
      a8:	000000dd 	0xdd
      ac:	0002d403 	sra	k0,v0,0x10
      b0:	a8030000 	swl	v1,0(zero)
      b4:	01000003 	0x1000003
      b8:	0002b703 	sra	s6,v0,0x1c
      bc:	98030200 	lwr	v1,512(zero)
      c0:	03000003 	0x3000003
      c4:	00052503 	sra	a0,a1,0x14
      c8:	00030400 	sll	zero,v1,0x10
      cc:	05000004 	bltz	t0,e0 <NB_PROCS+0xdc>
      d0:	00058e03 	sra	s1,a1,0x18
      d4:	c4030600 	lwc1	$f3,1536(zero)
      d8:	07000004 	bltz	t8,ec <NB_PROCS+0xe8>
      dc:	028d0200 	0x28d0200
      e0:	04040000 	0x4040000
      e4:	0000fc29 	0xfc29
      e8:	00080300 	sll	zero,t0,0xc
      ec:	03000000 	0x3000000
      f0:	0000055c 	0x55c
      f4:	008a0301 	0x8a0301
      f8:	00020000 	sll	zero,v0,0x0
      fc:	00010902 	srl	at,at,0x4
     100:	2f040400 	sltiu	a0,t8,1024
     104:	00000133 	tltu	zero,zero,0x4
     108:	0000bf03 	sra	s7,zero,0x1c
     10c:	11030000 	beq	t0,v1,110 <NB_PROCS+0x10c>
     110:	01000002 	0x1000002
     114:	00005703 	sra	t2,zero,0x1c
     118:	10030200 	beq	zero,v1,91c <NB_PROCS+0x918>
     11c:	03000006 	srlv	zero,zero,t8
     120:	00048503 	sra	s0,a0,0x14
     124:	d1030400 	0xd1030400
     128:	05000001 	bltz	t0,130 <NB_PROCS+0x12c>
     12c:	00033203 	sra	a2,v1,0x8
     130:	04000600 	bltz	zero,1934 <NB_PROCS+0x1930>
     134:	0000007d 	0x7d
     138:	013e1e05 	0x13e1e05
     13c:	04050000 	0x4050000
     140:	00037e07 	0x37e07
     144:	00d10600 	0xd10600
     148:	5a010000 	0x5a010000
     14c:	0001c401 	0x1c401
     150:	0008e800 	sll	sp,t0,0x0
     154:	0009e480 	sll	gp,t1,0x12
     158:	00000080 	sll	zero,zero,0x2
     15c:	0001c400 	sll	t8,at,0x10
     160:	056e0700 	tnei	t3,1792
     164:	5a010000 	0x5a010000
     168:	000001c4 	0x1c4
     16c:	07009102 	bltz	t8,fffe4578 <tab_main+0x403e44e0>
     170:	00000520 	0x520
     174:	01c65a01 	0x1c65a01
     178:	91020000 	lbu	v0,0(t0)
     17c:	023c0704 	0x23c0704
     180:	5a010000 	0x5a010000
     184:	0000013e 	0x13e
     188:	08089102 	j	224408 <NB_PROCS+0x224404>
     18c:	00747364 	0x747364
     190:	01cd5c01 	0x1cd5c01
     194:	91020000 	lbu	v0,0(t0)
     198:	7273087c 	0x7273087c
     19c:	5d010063 	0x5d010063
     1a0:	000001d3 	0x1d3
     1a4:	09789102 	j	5e24408 <seg_stack_base+0x1e24408>
     1a8:	00000539 	0x539
     1ac:	01de6401 	0x1de6401
     1b0:	91020000 	lbu	v0,0(t0)
     1b4:	02a80974 	teq	s5,t0,0x25
     1b8:	65010000 	0x65010000
     1bc:	000001de 	0x1de
     1c0:	00709102 	0x709102
     1c4:	040b040a 	tltiu	zero,1034
     1c8:	000001cc 	syscall	0x7
     1cc:	3e040b0c 	0x3e040b0c
     1d0:	0b000001 	j	c000004 <seg_stack_base+0x8000004>
     1d4:	0001d904 	0x1d904
     1d8:	013e0d00 	0x13e0d00
     1dc:	040b0000 	tltiu	zero,0
     1e0:	000001e4 	0x1e4
     1e4:	24080105 	li	t0,261
     1e8:	0e000003 	jal	800000c <seg_stack_base+0x400000c>
     1ec:	00000001 	movf	zero,zero,$fcc0
     1f0:	16710100 	bne	s3,s1,5f4 <NB_PROCS+0x5f0>
     1f4:	e4000002 	swc1	$f0,2(zero)
     1f8:	00800009 	jalr	zero,a0
     1fc:	1f80000a 	bgtz	gp,228 <NB_PROCS+0x224>
     200:	16000000 	bnez	s0,204 <NB_PROCS+0x200>
     204:	08000002 	j	8 <NB_PROCS+0x4>
     208:	00746572 	tlt	v1,s4,0x195
     20c:	02167301 	0x2167301
     210:	91020000 	lbu	v0,0(t0)
     214:	040f0078 	0x40f0078
     218:	746e6905 	jalx	1b9a414 <NB_PROCS+0x1b9a410>
     21c:	dc010e00 	ldc3	$1,3584(zero)
     220:	01000004 	sllv	zero,zero,t0
     224:	0002167b 	0x2167b
     228:	000a0000 	sll	zero,t2,0x0
     22c:	000a1880 	sll	v1,t2,0x2
     230:	00003e80 	sll	a3,zero,0x1a
     234:	00024800 	sll	t1,v0,0x0
     238:	65720800 	0x65720800
     23c:	7d010074 	0x7d010074
     240:	00000216 	0x216
     244:	00789102 	0x789102
     248:	06070110 	0x6070110
     24c:	85010000 	lh	at,0(t0)
     250:	80000a18 	lb	zero,2584(zero)
     254:	80000a3c 	lb	zero,2620(zero)
     258:	0000005d 	0x5d
     25c:	0000026f 	0x26f
     260:	706d7408 	0x706d7408
     264:	16870100 	bne	s4,a3,668 <NB_PROCS+0x664>
     268:	02000002 	0x2000002
     26c:	10007891 	b	1e4b4 <NB_PROCS+0x1e4b0>
     270:	00035a01 	0x35a01
     274:	3c900100 	0x3c900100
     278:	6080000a 	0x6080000a
     27c:	7c80000a 	0x7c80000a
     280:	96000000 	lhu	zero,0(s0)
     284:	08000002 	j	8 <NB_PROCS+0x4>
     288:	00706d74 	teq	v1,s0,0x1b5
     28c:	02169201 	0x2169201
     290:	91020000 	lbu	v0,0(t0)
     294:	01110078 	0x1110078
     298:	00000276 	tne	zero,zero,0x9
     29c:	60019c01 	0x60019c01
     2a0:	d080000a 	0xd080000a
     2a4:	9b80000a 	lwr	zero,10(gp)
     2a8:	e6000000 	swc1	$f0,0(s0)
     2ac:	07000002 	bltz	t8,2b8 <NB_PROCS+0x2b4>
     2b0:	00000849 	0x849
     2b4:	01c69c01 	0x1c69c01
     2b8:	91020000 	lbu	v0,0(t0)
     2bc:	023c0700 	0x23c0700
     2c0:	9c010000 	0x9c010000
     2c4:	00000133 	tltu	zero,zero,0x4
     2c8:	08049102 	j	124408 <NB_PROCS+0x124404>
     2cc:	9e010069 	0x9e010069
     2d0:	00000133 	tltu	zero,zero,0x4
     2d4:	097c9102 	j	5f24408 <seg_stack_base+0x1f24408>
     2d8:	00000230 	tge	zero,zero,0x8
     2dc:	01339f01 	0x1339f01
     2e0:	91020000 	lbu	v0,0(t0)
     2e4:	01110078 	0x1110078
     2e8:	00000127 	0x127
     2ec:	d001b101 	0xd001b101
     2f0:	dc80000a 	ldc3	$0,10(a0)
     2f4:	ba80000b 	swr	zero,11(s4)
     2f8:	36000000 	ori	zero,s0,0x0
     2fc:	12000003 	beqz	s0,30c <NB_PROCS+0x308>
     300:	006c6176 	tne	v1,t4,0x185
     304:	013eb101 	0x13eb101
     308:	91020000 	lbu	v0,0(t0)
     30c:	75621200 	jalx	5884800 <seg_stack_base+0x1884800>
     310:	b1010066 	0xb1010066
     314:	00000336 	tne	zero,zero,0xc
     318:	09049102 	j	4124408 <seg_stack_base+0x124408>
     31c:	000005a0 	0x5a0
     320:	0356b301 	0x356b301
     324:	91020000 	lbu	v0,0(t0)
     328:	00690874 	teq	v1,t1,0x21
     32c:	013eb401 	0x13eb401
     330:	91020000 	lbu	v0,0(t0)
     334:	040b0070 	tltiu	zero,112
     338:	0000033c 	0x33c
     33c:	2d060105 	sltiu	a2,t0,261
     340:	13000003 	beqz	t8,350 <NB_PROCS+0x34c>
     344:	0000033c 	0x33c
     348:	00000353 	0x353
     34c:	00035314 	0x35314
     350:	15000a00 	bnez	t0,2b54 <NB_PROCS+0x2b50>
     354:	430d0704 	c0	0x10d0704
     358:	11000003 	beqz	t0,368 <NB_PROCS+0x364>
     35c:	00053e01 	0x53e01
     360:	01c00100 	0x1c00100
     364:	80000bdc 	lb	zero,3036(zero)
     368:	80000cb4 	lb	zero,3252(zero)
     36c:	000000d9 	0xd9
     370:	000003ab 	0x3ab
     374:	6c617612 	0x6c617612
     378:	16c00100 	bnez	s6,77c <NB_PROCS+0x778>
     37c:	02000002 	0x2000002
     380:	62120091 	0x62120091
     384:	01006675 	0x1006675
     388:	000336c0 	sll	a2,v1,0x1b
     38c:	04910200 	bgezal	a0,b90 <NB_PROCS+0xb8c>
     390:	0005a709 	0x5a709
     394:	bbc20100 	swr	v0,256(s8)
     398:	02000003 	0x2000003
     39c:	69086c91 	0x69086c91
     3a0:	3ec30100 	0x3ec30100
     3a4:	02000001 	movf	zero,s0,$fcc0
     3a8:	13006891 	beqz	t8,1a5f0 <NB_PROCS+0x1a5ec>
     3ac:	0000033c 	0x33c
     3b0:	000003bb 	0x3bb
     3b4:	00035314 	0x35314
     3b8:	0d000e00 	jal	4003800 <seg_stack_base+0x3800>
     3bc:	000003ab 	0x3ab
     3c0:	02230116 	0x2230116
     3c4:	ce010000 	pref	0x1,0(s0)
     3c8:	00021601 	0x21601
     3cc:	000cb400 	sll	s6,t4,0x10
     3d0:	000d4080 	sll	t0,t5,0x2
     3d4:	0000f880 	sll	ra,zero,0x2
     3d8:	00042400 	sll	a0,a0,0x10
     3dc:	03e00700 	0x3e00700
     3e0:	ce010000 	pref	0x1,0(s0)
     3e4:	00000216 	0x216
     3e8:	07009102 	bltz	t8,fffe47f4 <tab_main+0x403e475c>
     3ec:	0000009d 	0x9d
     3f0:	0216ce01 	0x216ce01
     3f4:	91020000 	lbu	v0,0(t0)
     3f8:	01210704 	0x1210704
     3fc:	ce010000 	pref	0x1,0(s0)
     400:	00000216 	0x216
     404:	09089102 	j	4224408 <seg_stack_base+0x224408>
     408:	00000023 	negu	zero,zero
     40c:	0424d001 	0x424d001
     410:	91020000 	lbu	v0,0(t0)
     414:	616d087c 	0x616d087c
     418:	d1010078 	0xd1010078
     41c:	00000216 	0x216
     420:	00789102 	0x789102
     424:	042a040b 	tlti	at,1035
     428:	16170000 	bne	s0,s7,42c <NB_PROCS+0x428>
     42c:	16000002 	bnez	s0,438 <NB_PROCS+0x434>
     430:	0004b801 	movf	s7,zero,$fcc1
     434:	01de0100 	0x1de0100
     438:	00000216 	0x216
     43c:	80000d40 	lb	zero,3392(zero)
     440:	80000dd0 	lb	zero,3536(zero)
     444:	00000117 	0x117
     448:	00000493 	0x493
     44c:	0003e007 	srav	gp,v1,zero
     450:	16de0100 	bne	s6,s8,854 <NB_PROCS+0x850>
     454:	02000002 	0x2000002
     458:	9d070091 	0x9d070091
     45c:	01000000 	0x1000000
     460:	000216de 	0x216de
     464:	04910200 	bgezal	a0,c68 <NB_PROCS+0xc64>
     468:	00084907 	0x84907
     46c:	93de0100 	lbu	s8,256(s8)
     470:	02000004 	sllv	zero,zero,s0
     474:	23090891 	addi	t1,t8,2193
     478:	01000000 	0x1000000
     47c:	000424e0 	0x424e0
     480:	7c910200 	0x7c910200
     484:	78616d08 	0x78616d08
     488:	16e10100 	bne	s7,at,88c <NB_PROCS+0x888>
     48c:	02000002 	0x2000002
     490:	0b007891 	j	c01e244 <seg_stack_base+0x801e244>
     494:	00021604 	0x21604
     498:	83011600 	lb	at,5632(t8)
     49c:	01000001 	movf	zero,t0,$fcc0
     4a0:	021601f9 	0x21601f9
     4a4:	0dd00000 	jal	7400000 <seg_stack_base+0x3400000>
     4a8:	0f188000 	jal	c620000 <seg_stack_base+0x8620000>
     4ac:	01368000 	0x1368000
     4b0:	05350000 	0x5350000
     4b4:	49070000 	bc2tl	$cc1,4b8 <NB_PROCS+0x4b4>
     4b8:	01000008 	jr	t0
     4bc:	000336f9 	0x336f9
     4c0:	00910200 	0x910200
     4c4:	0002fe07 	0x2fe07
     4c8:	16f90100 	bne	s7,t9,8cc <NB_PROCS+0x8c8>
     4cc:	02000002 	0x2000002
     4d0:	51090491 	beql	t0,t1,1718 <NB_PROCS+0x1714>
     4d4:	01000004 	sllv	zero,zero,t0
     4d8:	000216fb 	0x216fb
     4dc:	70910200 	0x70910200
     4e0:	0001c609 	0x1c609
     4e4:	16fc0100 	bne	s7,gp,8e8 <NB_PROCS+0x8e4>
     4e8:	02000002 	0x2000002
     4ec:	56096c91 	bnel	s0,t1,1b734 <NB_PROCS+0x1b730>
     4f0:	01000002 	0x1000002
     4f4:	000216fd 	0x216fd
     4f8:	68910200 	0x68910200
     4fc:	00041809 	0x41809
     500:	16fe0100 	bne	s7,s8,904 <NB_PROCS+0x900>
     504:	02000002 	0x2000002
     508:	69086491 	0x69086491
     50c:	16ff0100 	bne	s7,ra,910 <NB_PROCS+0x90c>
     510:	02000002 	0x2000002
     514:	ec186091 	swc3	$24,24721(zero)
     518:	01000003 	0x1000003
     51c:	02160100 	0x2160100
     520:	91020000 	lbu	v0,0(t0)
     524:	003c185c 	0x3c185c
     528:	01010000 	0x1010000
     52c:	00033601 	0x33601
     530:	58910200 	0x58910200
     534:	3f011900 	0x3f011900
     538:	01000006 	srlv	zero,zero,t0
     53c:	16010121 	bne	s0,at,9c4 <NB_PROCS+0x9c0>
     540:	18000002 	blez	zero,54c <NB_PROCS+0x548>
     544:	5880000f 	blezl	a0,584 <NB_PROCS+0x580>
     548:	55800010 	bnezl	t4,58c <NB_PROCS+0x588>
     54c:	bd000001 	cache	0x0,1(t0)
     550:	1a000005 	blez	s0,568 <NB_PROCS+0x564>
     554:	00000849 	0x849
     558:	36012101 	ori	at,s0,0x2101
     55c:	02000003 	0x2000003
     560:	fe1a0091 	sdc3	$26,145(s0)
     564:	01000002 	0x1000002
     568:	02160121 	0x2160121
     56c:	91020000 	lbu	v0,0(t0)
     570:	04511804 	bgezal	v0,6584 <NB_PROCS+0x6580>
     574:	23010000 	addi	at,t8,0
     578:	00021601 	0x21601
     57c:	70910200 	0x70910200
     580:	0001c618 	0x1c618
     584:	01240100 	0x1240100
     588:	00000216 	0x216
     58c:	186c9102 	0x186c9102
     590:	00000256 	0x256
     594:	16012501 	bne	s0,at,999c <NB_PROCS+0x9998>
     598:	02000002 	0x2000002
     59c:	18186891 	0x18186891
     5a0:	01000004 	sllv	zero,zero,t0
     5a4:	02160126 	0x2160126
     5a8:	91020000 	lbu	v0,0(t0)
     5ac:	02ad1864 	0x2ad1864
     5b0:	27010000 	addiu	at,t8,0
     5b4:	00021601 	0x21601
     5b8:	60910200 	0x60910200
     5bc:	d6011900 	ldc1	$f1,6400(s0)
     5c0:	01000003 	0x1000003
     5c4:	16010141 	bne	s0,at,acc <NB_PROCS+0xac8>
     5c8:	58000002 	blezl	zero,5d4 <NB_PROCS+0x5d0>
     5cc:	80800010 	lb	zero,16(a0)
     5d0:	74800011 	jalx	2000044 <NB_PROCS+0x2000040>
     5d4:	45000001 	bc1f	5dc <NB_PROCS+0x5d8>
     5d8:	1a000006 	blez	s0,5f4 <NB_PROCS+0x5f0>
     5dc:	00000849 	0x849
     5e0:	36014101 	ori	at,s0,0x4101
     5e4:	02000003 	0x2000003
     5e8:	fe1a0091 	sdc3	$26,145(s0)
     5ec:	01000002 	0x1000002
     5f0:	02160141 	0x2160141
     5f4:	91020000 	lbu	v0,0(t0)
     5f8:	04511804 	bgezal	v0,660c <NB_PROCS+0x6608>
     5fc:	43010000 	c0	0x1010000
     600:	00021601 	0x21601
     604:	70910200 	0x70910200
     608:	0001c618 	0x1c618
     60c:	01440100 	0x1440100
     610:	00000216 	0x216
     614:	186c9102 	0x186c9102
     618:	00000256 	0x256
     61c:	16014501 	bne	s0,at,11a24 <NB_PROCS+0x11a20>
     620:	02000002 	0x2000002
     624:	18186891 	0x18186891
     628:	01000004 	sllv	zero,zero,t0
     62c:	02160146 	0x2160146
     630:	91020000 	lbu	v0,0(t0)
     634:	003c1864 	0x3c1864
     638:	47010000 	c1	0x1010000
     63c:	00033601 	0x33601
     640:	60910200 	0x60910200
     644:	ac011b00 	sw	at,6912(zero)
     648:	01000000 	0x1000000
     64c:	0216015f 	0x216015f
     650:	11800000 	beqz	t4,654 <NB_PROCS+0x650>
     654:	12408000 	beqz	s2,fffe0658 <tab_main+0x403e05c0>
     658:	01938000 	0x1938000
     65c:	06810000 	bgez	s4,660 <NB_PROCS+0x65c>
     660:	621c0000 	0x621c0000
     664:	01006675 	0x1006675
     668:	06810161 	bgez	s4,bf0 <NB_PROCS+0xbec>
     66c:	91020000 	lbu	v0,0(t0)
     670:	69701c4c 	0x69701c4c
     674:	62010064 	0x62010064
     678:	00021601 	0x21601
     67c:	48910200 	0x48910200
     680:	033c1300 	0x33c1300
     684:	06910000 	bgezal	s4,688 <NB_PROCS+0x684>
     688:	53140000 	beql	t8,s4,68c <NB_PROCS+0x688>
     68c:	24000003 	li	zero,3
     690:	60011900 	0x60011900
     694:	01000002 	0x1000002
     698:	16010173 	bne	s0,at,c68 <NB_PROCS+0xc64>
     69c:	40000002 	mfc0	zero,$0,2
     6a0:	d8800012 	ldc2	$0,18(a0)
     6a4:	b3800012 	0xb3800012
     6a8:	ec000001 	swc3	$0,1(zero)
     6ac:	1a000006 	blez	s0,6c8 <NB_PROCS+0x6c4>
     6b0:	0000009d 	0x9d
     6b4:	16017301 	bne	s0,at,1d2bc <NB_PROCS+0x1d2b8>
     6b8:	02000002 	0x2000002
     6bc:	211a0091 	addi	k0,t0,145
     6c0:	01000001 	movf	zero,t0,$fcc0
     6c4:	02160173 	tltu	s0,s6,0x5
     6c8:	91020000 	lbu	v0,0(t0)
     6cc:	03181804 	sllv	v1,t8,t8
     6d0:	75010000 	jalx	4040000 <seg_stack_base+0x40000>
     6d4:	00042401 	0x42401
     6d8:	74910200 	jalx	2440800 <NB_PROCS+0x24407fc>
     6dc:	00043918 	0x43918
     6e0:	01760100 	0x1760100
     6e4:	00000216 	0x216
     6e8:	00709102 	0x709102
     6ec:	05c90119 	tgeiu	t6,281
     6f0:	83010000 	lb	at,0(t8)
     6f4:	02160101 	0x2160101
     6f8:	12d80000 	beq	s6,t8,6fc <NB_PROCS+0x6f8>
     6fc:	13748000 	beq	k1,s4,fffe0700 <tab_main+0x403e0668>
     700:	01d28000 	0x1d28000
     704:	07470000 	0x7470000
     708:	9d1a0000 	0x9d1a0000
     70c:	01000000 	0x1000000
     710:	02160183 	0x2160183
     714:	91020000 	lbu	v0,0(t0)
     718:	08491a00 	j	1246800 <NB_PROCS+0x12467fc>
     71c:	83010000 	lb	at,0(t8)
     720:	00049301 	0x49301
     724:	04910200 	bgezal	a0,f28 <NB_PROCS+0xf24>
     728:	00031818 	0x31818
     72c:	01850100 	0x1850100
     730:	00000424 	0x424
     734:	18749102 	0x18749102
     738:	00000439 	0x439
     73c:	16018601 	bne	s0,at,fffe1f44 <tab_main+0x403e1eac>
     740:	02000002 	0x2000002
     744:	19007091 	blez	t0,1c98c <NB_PROCS+0x1c988>
     748:	00042201 	0x42201
     74c:	01920100 	0x1920100
     750:	00021601 	0x21601
     754:	00137400 	sll	t6,s3,0x10
     758:	0013d080 	sll	k0,s3,0x2
     75c:	0001f180 	sll	s8,at,0x6
     760:	00079300 	sll	s2,a3,0xc
     764:	009d1a00 	0x9d1a00
     768:	92010000 	lbu	at,0(s0)
     76c:	00021601 	0x21601
     770:	00910200 	0x910200
     774:	0001211a 	0x1211a
     778:	01920100 	0x1920100
     77c:	00000216 	0x216
     780:	18049102 	0x18049102
     784:	0000013d 	0x13d
     788:	24019401 	li	at,-27647
     78c:	02000004 	sllv	zero,zero,s0
     790:	19007891 	blez	t0,1e9d8 <NB_PROCS+0x1e9d4>
     794:	0002ca01 	0x2ca01
     798:	019f0100 	0x19f0100
     79c:	00021601 	0x21601
     7a0:	0013d000 	sll	k0,s3,0x0
     7a4:	00143080 	sll	a2,s4,0x2
     7a8:	00021080 	sll	v0,v0,0x2
     7ac:	0007df00 	sll	k1,a3,0x1c
     7b0:	009d1a00 	0x9d1a00
     7b4:	9f010000 	0x9f010000
     7b8:	00021601 	0x21601
     7bc:	00910200 	0x910200
     7c0:	0008491a 	0x8491a
     7c4:	01a00100 	0x1a00100
     7c8:	00000493 	0x493
     7cc:	18049102 	0x18049102
     7d0:	0000013d 	0x13d
     7d4:	2401a201 	li	at,-24063
     7d8:	02000004 	sllv	zero,zero,s0
     7dc:	19007891 	blez	t0,1ea24 <NB_PROCS+0x1ea20>
     7e0:	00049d01 	0x49d01
     7e4:	01ad0100 	0x1ad0100
     7e8:	00021601 	0x21601
     7ec:	00143000 	sll	a2,s4,0x0
     7f0:	00149480 	sll	s2,s4,0x12
     7f4:	00022f80 	sll	a1,v0,0x1e
     7f8:	00082b00 	sll	a1,t0,0xc
     7fc:	04461a00 	0x4461a00
     800:	ad010000 	sw	at,0(t0)
     804:	00021601 	0x21601
     808:	00910200 	0x910200
     80c:	00017518 	0x17518
     810:	01b00100 	0x1b00100
     814:	00000424 	0x424
     818:	1c7c9102 	0x1c7c9102
     81c:	0078616d 	0x78616d
     820:	1601b101 	bne	s0,at,fffecc28 <tab_main+0x403ecb90>
     824:	02000002 	0x2000002
     828:	19007891 	blez	t0,1ea70 <NB_PROCS+0x1ea6c>
     82c:	00007101 	0x7101
     830:	01c20100 	0x1c20100
     834:	00021601 	0x21601
     838:	00149400 	sll	s2,s4,0x10
     83c:	00154480 	sll	t0,s5,0x12
     840:	00024e80 	sll	t1,v0,0x1a
     844:	00089300 	sll	s2,t0,0xc
     848:	04461a00 	0x4461a00
     84c:	c2010000 	ll	at,0(s0)
     850:	00021601 	0x21601
     854:	00910200 	0x910200
     858:	00017518 	0x17518
     85c:	01c40100 	0x1c40100
     860:	00000424 	0x424
     864:	1c749102 	0x1c749102
     868:	0078616d 	0x78616d
     86c:	1601c501 	bne	s0,at,ffff1c74 <tab_main+0x403f1bdc>
     870:	02000002 	0x2000002
     874:	d8187091 	ldc2	$24,28817(zero)
     878:	01000000 	0x1000000
     87c:	021601c6 	0x21601c6
     880:	91020000 	lbu	v0,0(t0)
     884:	00691c6c 	0x691c6c
     888:	1601c701 	bne	s0,at,ffff2490 <tab_main+0x403f23f8>
     88c:	02000002 	0x2000002
     890:	19006891 	blez	t0,1aad8 <NB_PROCS+0x1aad4>
     894:	00026b01 	0x26b01
     898:	01f00100 	0x1f00100
     89c:	00021601 	0x21601
     8a0:	00154400 	sll	t0,s5,0x10
     8a4:	00167080 	sll	t6,s6,0x2
     8a8:	00026d80 	sll	t5,v0,0x16
     8ac:	00091900 	sll	v1,t1,0x4
     8b0:	626c1d00 	0x626c1d00
     8b4:	f0010061 	0xf0010061
     8b8:	00013301 	0x13301
     8bc:	00910200 	0x910200
     8c0:	0008491a 	0x8491a
     8c4:	01f00100 	0x1f00100
     8c8:	000001c4 	0x1c4
     8cc:	1a049102 	0x1a049102
     8d0:	0000050d 	break	0x0,0x14
     8d4:	3301f001 	andi	at,t8,0xf001
     8d8:	02000001 	movf	zero,s0,$fcc0
     8dc:	2d180891 	sltiu	t8,t0,2193
     8e0:	01000004 	sllv	zero,zero,t0
     8e4:	042401f2 	0x42401f2
     8e8:	91020000 	lbu	v0,0(t0)
     8ec:	00d81874 	teq	a2,t8,0x61
     8f0:	f3010000 	0xf3010000
     8f4:	00021601 	0x21601
     8f8:	70910200 	0x70910200
     8fc:	0100691c 	0x100691c
     900:	021601f4 	teq	s0,s6,0x7
     904:	91020000 	lbu	v0,0(t0)
     908:	0031186c 	0x31186c
     90c:	f7010000 	sdc1	$f1,0(t8)
     910:	00013301 	0x13301
     914:	68910200 	0x68910200
     918:	cc011900 	pref	0x1,6400(zero)
     91c:	01000003 	0x1000003
     920:	16010218 	bne	s0,at,1184 <NB_PROCS+0x1180>
     924:	70000002 	mul	zero,zero,zero
     928:	b4800016 	0xb4800016
     92c:	8c800017 	lw	zero,23(a0)
     930:	9f000002 	0x9f000002
     934:	1d000009 	bgtz	t0,95c <NB_PROCS+0x958>
     938:	0061626c 	0x61626c
     93c:	33021801 	andi	v0,t8,0x1801
     940:	02000001 	movf	zero,s0,$fcc0
     944:	491a0091 	bc2fl	$cc6,b8c <NB_PROCS+0xb88>
     948:	01000008 	jr	t0
     94c:	01c40218 	0x1c40218
     950:	91020000 	lbu	v0,0(t0)
     954:	050d1a04 	0x50d1a04
     958:	18010000 	0x18010000
     95c:	00013302 	srl	a2,at,0xc
     960:	08910200 	j	2440800 <NB_PROCS+0x24407fc>
     964:	00042d18 	0x42d18
     968:	021a0100 	0x21a0100
     96c:	00000424 	0x424
     970:	18749102 	0x18749102
     974:	000000d8 	0xd8
     978:	16021b01 	bne	s0,v0,7580 <NB_PROCS+0x757c>
     97c:	02000002 	0x2000002
     980:	691c7091 	0x691c7091
     984:	021c0100 	0x21c0100
     988:	00000216 	0x216
     98c:	186c9102 	0x186c9102
     990:	00000031 	tgeu	zero,zero
     994:	33021f01 	andi	v0,t8,0x1f01
     998:	02000001 	movf	zero,s0,$fcc0
     99c:	1e006891 	bgtz	s0,1abe4 <NB_PROCS+0x1abe0>
     9a0:	00045c01 	0x45c01
     9a4:	02410100 	0x2410100
     9a8:	00000216 	0x216
     9ac:	800017b4 	lb	zero,6068(zero)
     9b0:	80001810 	lb	zero,6160(zero)
     9b4:	01196d01 	0x1196d01
     9b8:	00000365 	0x365
     9bc:	01025801 	0x1025801
     9c0:	00000216 	0x216
     9c4:	80001810 	lb	zero,6160(zero)
     9c8:	800018d0 	lb	zero,6352(zero)
     9cc:	000002ab 	0x2ab
     9d0:	00000a2b 	0xa2b
     9d4:	0002a11a 	0x2a11a
     9d8:	02580100 	0x2580100
     9dc:	00000133 	tltu	zero,zero,0x4
     9e0:	1a009102 	blez	s0,fffe4dec <tab_main+0x403e4d54>
     9e4:	00000849 	0x849
     9e8:	c4025801 	lwc1	$f2,22529(zero)
     9ec:	02000001 	movf	zero,s0,$fcc0
     9f0:	fe1a0491 	sdc3	$26,1169(s0)
     9f4:	01000002 	0x1000002
     9f8:	01330258 	0x1330258
     9fc:	91020000 	lbu	v0,0(t0)
     a00:	62661c08 	0x62661c08
     a04:	025a0100 	0x25a0100
     a08:	00000a2b 	0xa2b
     a0c:	1c789102 	0x1c789102
     a10:	01006275 	0x1006275
     a14:	0336025b 	0x336025b
     a18:	91020000 	lbu	v0,0(t0)
     a1c:	00691c74 	teq	v1,t1,0x71
     a20:	33025c01 	andi	v0,t8,0x5c01
     a24:	02000001 	movf	zero,s0,$fcc0
     a28:	0b007091 	j	c01c244 <seg_stack_base+0x801c244>
     a2c:	000a3104 	0xa3104
     a30:	033c1700 	0x33c1700
     a34:	01190000 	0x1190000
     a38:	000004aa 	0x4aa
     a3c:	01026d01 	0x1026d01
     a40:	00000216 	0x216
     a44:	800018d0 	lb	zero,6352(zero)
     a48:	80001998 	lb	zero,6552(zero)
     a4c:	000002ca 	0x2ca
     a50:	00000aab 	0xaab
     a54:	0002a11a 	0x2a11a
     a58:	026d0100 	0x26d0100
     a5c:	00000133 	tltu	zero,zero,0x4
     a60:	1a009102 	blez	s0,fffe4e6c <tab_main+0x403e4dd4>
     a64:	00000849 	0x849
     a68:	c4026d01 	lwc1	$f2,27905(zero)
     a6c:	02000001 	movf	zero,s0,$fcc0
     a70:	fe1a0491 	sdc3	$26,1169(s0)
     a74:	01000002 	0x1000002
     a78:	0133026d 	0x133026d
     a7c:	91020000 	lbu	v0,0(t0)
     a80:	62661c08 	0x62661c08
     a84:	026f0100 	0x26f0100
     a88:	00000a2b 	0xa2b
     a8c:	1c789102 	0x1c789102
     a90:	01006275 	0x1006275
     a94:	03360270 	tge	t9,s6,0x9
     a98:	91020000 	lbu	v0,0(t0)
     a9c:	00691c74 	teq	v1,t1,0x71
     aa0:	33027101 	andi	v0,t8,0x7101
     aa4:	02000001 	movf	zero,s0,$fcc0
     aa8:	19007091 	blez	t0,1ccf0 <NB_PROCS+0x1ccec>
     aac:	0003c201 	0x3c201
     ab0:	028c0100 	0x28c0100
     ab4:	00021601 	0x21601
     ab8:	00199800 	sll	s3,t9,0x0
     abc:	001aac80 	sll	s5,k0,0x12
     ac0:	0002e980 	sll	sp,v0,0x6
     ac4:	000b3000 	sll	a2,t3,0x0
     ac8:	02a11a00 	0x2a11a00
     acc:	8c010000 	lw	at,0(zero)
     ad0:	00013302 	srl	a2,at,0xc
     ad4:	00910200 	0x910200
     ad8:	0008491a 	0x8491a
     adc:	028c0100 	0x28c0100
     ae0:	000001c4 	0x1c4
     ae4:	1a049102 	0x1a049102
     ae8:	000002fe 	0x2fe
     aec:	33028c01 	andi	v0,t8,0x8c01
     af0:	02000001 	movf	zero,s0,$fcc0
     af4:	661c0891 	0x661c0891
     af8:	8e010062 	lw	at,98(s0)
     afc:	000a2b02 	srl	a1,t2,0xc
     b00:	74910200 	jalx	2440800 <NB_PROCS+0x24407fc>
     b04:	616d641c 	0x616d641c
     b08:	028f0100 	0x28f0100
     b0c:	00000424 	0x424
     b10:	18709102 	0x18709102
     b14:	000000d8 	0xd8
     b18:	16029001 	bne	s0,v0,fffe4b20 <tab_main+0x403e4a88>
     b1c:	02000002 	0x2000002
     b20:	691c6c91 	0x691c6c91
     b24:	02910100 	0x2910100
     b28:	00000216 	0x216
     b2c:	00689102 	0x689102
     b30:	02e80119 	0x2e80119
     b34:	b1010000 	0xb1010000
     b38:	02160102 	0x2160102
     b3c:	1aac0000 	0x1aac0000
     b40:	1bcc8000 	0x1bcc8000
     b44:	03088000 	0x3088000
     b48:	0bb50000 	j	ed40000 <seg_stack_base+0xad40000>
     b4c:	a11a0000 	sb	k0,0(t0)
     b50:	01000002 	0x1000002
     b54:	013302b1 	tgeu	t1,s3,0xa
     b58:	91020000 	lbu	v0,0(t0)
     b5c:	08491a00 	j	1246800 <NB_PROCS+0x12467fc>
     b60:	b1010000 	0xb1010000
     b64:	0001c402 	srl	t8,at,0x10
     b68:	04910200 	bgezal	a0,136c <NB_PROCS+0x1368>
     b6c:	0002fe1a 	0x2fe1a
     b70:	02b10100 	0x2b10100
     b74:	00000133 	tltu	zero,zero,0x4
     b78:	1c089102 	0x1c089102
     b7c:	01006266 	0x1006266
     b80:	0a2b02b3 	j	8ac0acc <seg_stack_base+0x4ac0acc>
     b84:	91020000 	lbu	v0,0(t0)
     b88:	6d641c74 	0x6d641c74
     b8c:	b4010061 	0xb4010061
     b90:	00042402 	srl	a0,a0,0x10
     b94:	70910200 	0x70910200
     b98:	0000d818 	0xd818
     b9c:	02b50100 	0x2b50100
     ba0:	00000216 	0x216
     ba4:	1c6c9102 	0x1c6c9102
     ba8:	b6010069 	0xb6010069
     bac:	00021602 	srl	v0,v0,0x18
     bb0:	68910200 	0x68910200
     bb4:	03011e00 	0x3011e00
     bb8:	01000002 	0x1000002
     bbc:	021602d8 	0x21602d8
     bc0:	1bcc0000 	0x1bcc0000
     bc4:	1c148000 	0x1c148000
     bc8:	6d018000 	0x6d018000
     bcc:	0000841f 	0x841f
     bd0:	3e130100 	0x3e130100
     bd4:	dd000001 	ldc3	$0,1(t0)
     bd8:	2000000b 	addi	zero,zero,11
     bdc:	064d2100 	0x64d2100
     be0:	23050000 	addi	a1,t8,0
     be4:	00000bd2 	0xbd2
     be8:	41210101 	0x41210101
     bec:	01000002 	0x1000002
     bf0:	000bcc2c 	0xbcc2c
     bf4:	21010100 	addi	at,t0,256
     bf8:	00000048 	0x48
     bfc:	0bcc2d01 	j	f30b404 <seg_stack_base+0xb30b404>
     c00:	01010000 	0x1010000
     c04:	0004e621 	0x4e621
     c08:	cc2e0100 	pref	0xe,256(at)
     c0c:	0100000b 	movn	zero,t0,zero
     c10:	01682101 	0x1682101
     c14:	2f010000 	sltiu	at,t8,0
     c18:	00000bcc 	syscall	0x2f
     c1c:	13210101 	beq	t9,at,1024 <NB_PROCS+0x1020>
     c20:	01000005 	0x1000005
     c24:	000bcc30 	tge	zero,t3,0x330
     c28:	21010100 	addi	at,t0,256
     c2c:	00000573 	tltu	zero,zero,0x15
     c30:	0bcc3101 	j	f30c404 <seg_stack_base+0xb30c404>
     c34:	01010000 	0x1010000
     c38:	00013121 	0x13121
     c3c:	cc320100 	pref	0x12,256(at)
     c40:	0100000b 	movn	zero,t0,zero
     c44:	02f12101 	0x2f12101
     c48:	33010000 	andi	at,t8,0x0
     c4c:	00000bcc 	syscall	0x2f
     c50:	1a210101 	0x1a210101
     c54:	01000000 	0x1000000
     c58:	000bcc35 	0xbcc35
     c5c:	21010100 	addi	at,t0,256
     c60:	0000062b 	0x62b
     c64:	0bcc3601 	j	f30d804 <seg_stack_base+0xb30d804>
     c68:	01010000 	0x1010000
     c6c:	00047b21 	0x47b21
     c70:	cc370100 	pref	0x17,256(at)
     c74:	0100000b 	movn	zero,t0,zero
     c78:	03b92101 	0x3b92101
     c7c:	39010000 	xori	at,t0,0x0
     c80:	00000bcc 	syscall	0x2f
     c84:	51220101 	beql	t1,v0,108c <NB_PROCS+0x1088>
     c88:	01000001 	movf	zero,t0,$fcc0
     c8c:	00042a49 	0x42a49
     c90:	03050100 	0x3050100
     c94:	92000000 	lbu	zero,0(s0)
     c98:	0000fd22 	0xfd22
     c9c:	2a4a0100 	slti	t2,s2,256
     ca0:	01000004 	sllv	zero,zero,t0
     ca4:	00040305 	0x40305
     ca8:	74229200 	jalx	8a4800 <NB_PROCS+0x8a47fc>
     cac:	01000003 	0x1000003
     cb0:	00042a4c 	syscall	0x10a9
     cb4:	03050100 	0x3050100
     cb8:	92000008 	lbu	zero,8(s0)
     cbc:	00058222 	0x58222
     cc0:	2a4d0100 	slti	t5,s2,256
     cc4:	01000004 	sllv	zero,zero,t0
     cc8:	000c0305 	0xc0305
     ccc:	3c139200 	lui	s3,0x9200
     cd0:	de000003 	ldc3	$0,3(s0)
     cd4:	1400000c 	bnez	zero,d08 <NB_PROCS+0xd04>
     cd8:	00000353 	0x353
     cdc:	b222001f 	0xb222001f
     ce0:	01000000 	0x1000000
     ce4:	000cf04f 	0xcf04f
     ce8:	03050100 	0x3050100
     cec:	92000010 	lbu	zero,16(s0)
     cf0:	000cce17 	0xcce17
     cf4:	02161300 	0x2161300
     cf8:	0d050000 	jal	4140000 <seg_stack_base+0x140000>
     cfc:	53140000 	beql	t8,s4,d00 <NB_PROCS+0xcfc>
     d00:	1f000003 	bgtz	t8,d10 <NB_PROCS+0xd0c>
     d04:	04f32200 	bgezall	a3,9508 <NB_PROCS+0x9504>
     d08:	50010000 	beql	zero,at,d0c <NB_PROCS+0xd08>
     d0c:	00000d17 	0xd17
     d10:	30030501 	andi	v1,zero,0x501
     d14:	17920000 	bne	gp,s2,d18 <NB_PROCS+0xd14>
     d18:	00000cf5 	0xcf5
     d1c:	00015b22 	0x15b22
     d20:	2e520100 	sltiu	s2,s2,256
     d24:	0100000d 	break	0x100
     d28:	00b00305 	0xb00305
     d2c:	ce179200 	pref	0x17,-28160(s0)
     d30:	2200000c 	addi	zero,s0,12
     d34:	000005af 	0x5af
     d38:	0d455301 	jal	5154c04 <seg_stack_base+0x1154c04>
     d3c:	05010000 	bgez	t0,d40 <NB_PROCS+0xd3c>
     d40:	0000d003 	sra	k0,zero,0x0
     d44:	0cf51792 	jal	3d45e48 <NB_PROCS+0x3d45e44>
     d48:	8b000000 	lwl	zero,0(t8)
     d4c:	0200000a 	movz	zero,s0,zero
     d50:	0001ed00 	sll	sp,at,0x14
     d54:	bd010400 	cache	0x1,1024(t0)
     d58:	01000005 	0x1000005
     d5c:	0000067b 	0x67b
     d60:	20000000 	addi	zero,zero,0
     d64:	200011d8 	addi	zero,zero,4568
     d68:	0000024d 	break	0x0,0x9
     d6c:	0008f702 	srl	s8,t0,0x1c
     d70:	2c280200 	sltiu	t0,at,512
     d74:	03000000 	0x3000000
     d78:	0008a504 	0x8a504
     d7c:	08fe0200 	j	3f80800 <NB_PROCS+0x3f807fc>
     d80:	66020000 	0x66020000
     d84:	00000021 	move	zero,zero
     d88:	00007d02 	srl	t7,zero,0x14
     d8c:	48230300 	0x48230300
     d90:	04000000 	bltz	zero,d94 <NB_PROCS+0xd90>
     d94:	037e0704 	0x37e0704
     d98:	45050000 	bc1t	$fcc1,d9c <NB_PROCS+0xd98>
     d9c:	04000003 	bltz	zero,dac <NB_PROCS+0xda8>
     da0:	007a0404 	0x7a0404
     da4:	50060000 	beql	zero,a2,da8 <NB_PROCS+0xda4>
     da8:	00000005 	0x5
     dac:	00063406 	0x63406
     db0:	8b060100 	lwl	a2,256(t8)
     db4:	02000003 	0x2000003
     db8:	0005dd06 	0x5dd06
     dbc:	f5060300 	sdc1	$f6,768(t0)
     dc0:	04000003 	bltz	zero,dd0 <NB_PROCS+0xdcc>
     dc4:	07d50500 	0x7d50500
     dc8:	05040000 	0x5040000
     dcc:	0000a504 	0xa504
     dd0:	066b0600 	tltiu	s3,1536
     dd4:	06000000 	bltz	s0,dd8 <NB_PROCS+0xdd4>
     dd8:	00000673 	tltu	zero,zero,0x19
     ddc:	06610601 	bgez	s3,25e4 <NB_PROCS+0x25e0>
     de0:	06020000 	bltzl	s0,de4 <NB_PROCS+0xde0>
     de4:	000006e3 	0x6e3
     de8:	085e0603 	j	178180c <NB_PROCS+0x1781808>
     dec:	00040000 	sll	zero,a0,0x0
     df0:	0006ee05 	0x6ee05
     df4:	04060400 	0x4060400
     df8:	000000d0 	0xd0
     dfc:	00079406 	0x79406
     e00:	94060000 	lhu	a2,0(zero)
     e04:	01000008 	jr	t0
     e08:	0006d606 	0x6d606
     e0c:	9c060200 	0x9c060200
     e10:	03000007 	srav	zero,zero,t8
     e14:	00080706 	0x80706
     e18:	07000400 	bltz	t8,1e1c <NB_PROCS+0x1e18>
     e1c:	0006c001 	0x6c001
     e20:	01170100 	0x1170100
     e24:	00000175 	0x175
     e28:	20000000 	addi	zero,zero,0
     e2c:	2000003c 	addi	zero,zero,60
     e30:	00000327 	0x327
     e34:	00000175 	0x175
     e38:	00089d08 	0x89d08
     e3c:	75170100 	jalx	45c0400 <seg_stack_base+0x5c0400>
     e40:	02000001 	movf	zero,s0,$fcc0
     e44:	59080091 	0x59080091
     e48:	01000007 	srav	zero,zero,t0
     e4c:	00017518 	0x17518
     e50:	04910200 	bgezal	a0,1654 <NB_PROCS+0x1650>
     e54:	00075f08 	0x75f08
     e58:	75190100 	jalx	4640400 <seg_stack_base+0x640400>
     e5c:	02000001 	movf	zero,s0,$fcc0
     e60:	65080891 	0x65080891
     e64:	01000007 	srav	zero,zero,t0
     e68:	0001751a 	0x1751a
     e6c:	0c910200 	jal	2440800 <NB_PROCS+0x24407fc>
     e70:	00076b08 	0x76b08
     e74:	751b0100 	jalx	46c0400 <seg_stack_base+0x6c0400>
     e78:	02000001 	movf	zero,s0,$fcc0
     e7c:	3a091091 	xori	t1,s0,0x1091
     e80:	01000007 	srav	zero,zero,t0
     e84:	0001751d 	0x1751d
     e88:	09520100 	j	5480400 <seg_stack_base+0x1480400>
     e8c:	00000733 	tltu	zero,zero,0x1c
     e90:	01751e01 	0x1751e01
     e94:	54010000 	bnel	zero,at,e98 <NB_PROCS+0xe94>
     e98:	00077109 	0x77109
     e9c:	751f0100 	jalx	47c0400 <seg_stack_base+0x7c0400>
     ea0:	01000001 	movf	zero,t0,$fcc0
     ea4:	07780955 	0x7780955
     ea8:	20010000 	addi	at,zero,0
     eac:	00000175 	0x175
     eb0:	7f095601 	0x7f095601
     eb4:	01000007 	srav	zero,zero,t0
     eb8:	00017521 	0x17521
     ebc:	00570100 	0x570100
     ec0:	6905040a 	0x6905040a
     ec4:	0b00746e 	j	c01d1b8 <seg_stack_base+0x801d1b8>
     ec8:	00000101 	0x101
     ecc:	75410100 	jalx	5040400 <seg_stack_base+0x1040400>
     ed0:	3c000001 	lui	zero,0x1
     ed4:	70200000 	madd	at,zero
     ed8:	46200000 	add.d	$f0,$f0,$f0
     edc:	0b000003 	j	c00000c <seg_stack_base+0x800000c>
     ee0:	0004dd01 	0x4dd01
     ee4:	75490100 	jalx	5240400 <seg_stack_base+0x1240400>
     ee8:	70000001 	maddu	zero,zero
     eec:	a4200000 	sh	zero,0(at)
     ef0:	65200000 	0x65200000
     ef4:	0c000003 	jal	c <NB_PROCS+0x8>
     ef8:	0000ad01 	0xad01
     efc:	75510100 	jalx	5440400 <seg_stack_base+0x1440400>
     f00:	a4000001 	sh	zero,1(zero)
     f04:	e4200000 	swc1	$f0,0(at)
     f08:	84200000 	lh	zero,0(at)
     f0c:	d7000003 	ldc1	$f0,3(t8)
     f10:	09000001 	j	4000004 <seg_stack_base+0x4>
     f14:	00000451 	0x451
     f18:	01755301 	0x1755301
     f1c:	91020000 	lbu	v0,0(t0)
     f20:	010c0070 	tge	t0,t4,0x1
     f24:	000008e3 	0x8e3
     f28:	01755b01 	0x1755b01
     f2c:	00e40000 	0xe40000
     f30:	01602000 	0x1602000
     f34:	03a32000 	0x3a32000
     f38:	02000000 	0x2000000
     f3c:	780d0000 	0x780d0000
     f40:	755d0100 	jalx	5740400 <seg_stack_base+0x1740400>
     f44:	02000001 	movf	zero,s0,$fcc0
     f48:	07007091 	bltz	t8,1d190 <NB_PROCS+0x1d18c>
     f4c:	0007ab01 	0x7ab01
     f50:	016e0100 	0x16e0100
     f54:	00000175 	0x175
     f58:	20000160 	addi	zero,zero,352
     f5c:	200001a0 	addi	zero,zero,416
     f60:	000003c2 	srl	zero,zero,0xf
     f64:	0000022c 	0x22c
     f68:	0007d008 	0x7d008
     f6c:	2c6e0100 	sltiu	t6,v1,256
     f70:	02000002 	0x2000002
     f74:	04000091 	bltz	zero,11bc <NB_PROCS+0x11b8>
     f78:	032d0601 	0x32d0601
     f7c:	01070000 	0x1070000
     f80:	000007c0 	sll	zero,zero,0x1f
     f84:	75017e01 	jalx	405f804 <seg_stack_base+0x5f804>
     f88:	a0000001 	sb	zero,1(zero)
     f8c:	0c200001 	jal	800004 <NB_PROCS+0x800000>
     f90:	e1200002 	sc	zero,2(t1)
     f94:	6d000003 	0x6d000003
     f98:	08000002 	j	8 <NB_PROCS+0x4>
     f9c:	000007c9 	0x7c9
     fa0:	026d7e01 	0x26d7e01
     fa4:	91020000 	lbu	v0,0(t0)
     fa8:	02fe0900 	0x2fe0900
     fac:	80010000 	lb	at,0(zero)
     fb0:	00000175 	0x175
     fb4:	00709102 	0x709102
     fb8:	022c040e 	0x22c040e
     fbc:	01070000 	0x1070000
     fc0:	0000083b 	0x83b
     fc4:	75019101 	jalx	4064404 <seg_stack_base+0x64404>
     fc8:	0c000001 	jal	4 <NB_PROCS>
     fcc:	f4200002 	sdc1	$f0,2(at)
     fd0:	00200002 	ror	zero,zero,0x0
     fd4:	b9000004 	swr	zero,4(t0)
     fd8:	0f000002 	jal	c000008 <seg_stack_base+0x8000008>
     fdc:	006c6176 	tne	v1,t4,0x185
     fe0:	01759101 	0x1759101
     fe4:	91020000 	lbu	v0,0(t0)
     fe8:	75620d00 	jalx	5883400 <seg_stack_base+0x1883400>
     fec:	93010066 	lbu	at,102(t8)
     ff0:	000002b9 	0x2b9
     ff4:	0d6c9102 	jal	5b24408 <seg_stack_base+0x1b24408>
     ff8:	94010069 	lhu	at,105(zero)
     ffc:	00000175 	0x175
    1000:	00689102 	0x689102
    1004:	00022c10 	0x22c10
    1008:	0002c900 	sll	t9,v0,0x4
    100c:	02c91100 	0x2c91100
    1010:	00090000 	sll	zero,t1,0x0
    1014:	07070412 	0x7070412
    1018:	0008da01 	0x8da01
    101c:	01a70100 	0x1a70100
    1020:	00000175 	0x175
    1024:	200002f4 	addi	zero,zero,756
    1028:	20000378 	addi	zero,zero,888
    102c:	0000041f 	0x41f
    1030:	00000306 	0x306
    1034:	6675620f 	0x6675620f
    1038:	6da70100 	0x6da70100
    103c:	02000002 	0x2000002
    1040:	720d0091 	0x720d0091
    1044:	01007465 	0x1007465
    1048:	000175a9 	0x175a9
    104c:	70910200 	0x70910200
    1050:	ed010700 	swc3	$1,1792(t0)
    1054:	01000007 	srav	zero,zero,t0
    1058:	017501bd 	0x17501bd
    105c:	03780000 	0x3780000
    1060:	03fc2000 	0x3fc2000
    1064:	043e2000 	0x43e2000
    1068:	03400000 	0x3400000
    106c:	620f0000 	0x620f0000
    1070:	01006675 	0x1006675
    1074:	00026dbd 	0x26dbd
    1078:	00910200 	0x910200
    107c:	7465720d 	jalx	195c834 <NB_PROCS+0x195c830>
    1080:	75bf0100 	jalx	6fc0400 <seg_stack_base+0x2fc0400>
    1084:	02000001 	movf	zero,s0,$fcc0
    1088:	07007091 	bltz	t8,1d2d0 <NB_PROCS+0x1d2cc>
    108c:	00070101 	0x70101
    1090:	01da0100 	0x1da0100
    1094:	00000175 	0x175
    1098:	200003fc 	addi	zero,zero,1020
    109c:	20000528 	addi	zero,zero,1320
    10a0:	0000045d 	0x45d
    10a4:	000003a4 	0x3a4
    10a8:	6675620f 	0x6675620f
    10ac:	6dda0100 	0x6dda0100
    10b0:	02000002 	0x2000002
    10b4:	b7080091 	0xb7080091
    10b8:	01000008 	jr	t0
    10bc:	000175da 	0x175da
    10c0:	04910200 	bgezal	a0,18c4 <NB_PROCS+0x18c0>
    10c4:	7465720d 	jalx	195c834 <NB_PROCS+0x195c830>
    10c8:	75dc0100 	jalx	7700400 <seg_stack_base+0x3700400>
    10cc:	02000001 	movf	zero,s0,$fcc0
    10d0:	d0096c91 	0xd0096c91
    10d4:	01000007 	srav	zero,zero,t0
    10d8:	0003a4dd 	0x3a4dd
    10dc:	70910200 	0x70910200
    10e0:	00045609 	0x45609
    10e4:	48de0100 	0x48de0100
    10e8:	02000000 	0x2000000
    10ec:	04006891 	bltz	zero,1b334 <NB_PROCS+0x1b330>
    10f0:	03240801 	movf	at,t9,$fcc1
    10f4:	01130000 	0x1130000
    10f8:	000007fa 	0x7fa
    10fc:	01010901 	0x1010901
    1100:	00000175 	0x175
    1104:	20000528 	addi	zero,zero,1320
    1108:	20000828 	addi	zero,zero,2088
    110c:	0000047c 	0x47c
    1110:	00000460 	0x460
    1114:	00084414 	0x84414
    1118:	01090100 	0x1090100
    111c:	00000460 	0x460
    1120:	15009102 	bnez	t0,fffe552c <tab_main+0x403e5494>
    1124:	00667562 	0x667562
    1128:	66010b01 	0x66010b01
    112c:	02000004 	sllv	zero,zero,s0
    1130:	d0165491 	0xd0165491
    1134:	01000007 	srav	zero,zero,t0
    1138:	03a4010c 	syscall	0xe9004
    113c:	91020000 	lbu	v0,0(t0)
    1140:	08501674 	j	14059d0 <NB_PROCS+0x14059cc>
    1144:	0d010000 	jal	4040000 <seg_stack_base+0x40000>
    1148:	00004801 	movf	t1,zero,$fcc0
    114c:	50910200 	beql	a0,s1,1950 <NB_PROCS+0x194c>
    1150:	6c617615 	0x6c617615
    1154:	010e0100 	0x10e0100
    1158:	00000048 	0x48
    115c:	164c9102 	bne	s2,t4,fffe5568 <tab_main+0x403e54d0>
    1160:	000007e8 	0x7e8
    1164:	48010f01 	0x48010f01
    1168:	02000000 	0x2000000
    116c:	55164891 	bnel	t0,s6,133b4 <NB_PROCS+0x133b0>
    1170:	01000008 	jr	t0
    1174:	00480110 	0x480110
    1178:	91020000 	lbu	v0,0(t0)
    117c:	616d1544 	0x616d1544
    1180:	11010078 	beq	t0,at,1364 <NB_PROCS+0x1360>
    1184:	00004801 	movf	t1,zero,$fcc0
    1188:	40910200 	0x40910200
    118c:	01006915 	0x1006915
    1190:	00480112 	0x480112
    1194:	91030000 	lbu	v1,0(t0)
    1198:	72157fbc 	0x72157fbc
    119c:	01007465 	0x1007465
    11a0:	01750113 	0x1750113
    11a4:	91030000 	lbu	v1,0(t0)
    11a8:	0e007fb8 	jal	801fee0 <seg_stack_base+0x401fee0>
    11ac:	00017504 	0x17504
    11b0:	03a41000 	0x3a41000
    11b4:	04760000 	0x4760000
    11b8:	c9110000 	lwc2	$17,0(t0)
    11bc:	1f000002 	bgtz	t8,11c8 <NB_PROCS+0x11c4>
    11c0:	cf011300 	pref	0x1,4864(t8)
    11c4:	01000008 	jr	t0
    11c8:	75010167 	jalx	404059c <seg_stack_base+0x4059c>
    11cc:	28000001 	slti	zero,zero,1
    11d0:	1c200008 	bgtz	at,11f4 <NB_PROCS+0x11f0>
    11d4:	9c20000c 	0x9c20000c
    11d8:	60000004 	0x60000004
    11dc:	14000005 	bnez	zero,11f4 <NB_PROCS+0x11f0>
    11e0:	000007b4 	teq	zero,zero,0x1e
    11e4:	6d016701 	0x6d016701
    11e8:	02000002 	0x2000002
    11ec:	15170091 	bne	t0,s7,1434 <NB_PROCS+0x1430>
    11f0:	01007061 	0x1007061
    11f4:	00320169 	0x320169
    11f8:	91020000 	lbu	v0,0(t0)
    11fc:	082f1860 	j	bc6180 <NB_PROCS+0xbc617c>
    1200:	b6010000 	0xb6010000
    1204:	00085001 	movf	t2,zero,$fcc2
    1208:	09171820 	j	45c6080 <seg_stack_base+0x5c6080>
    120c:	82010000 	lb	at,0(s0)
    1210:	00090801 	movt	at,zero,$fcc2
    1214:	08581920 	j	1606480 <NB_PROCS+0x160647c>
    1218:	09082000 	j	4208000 <seg_stack_base+0x208000>
    121c:	04e52000 	0x4e52000
    1220:	69150000 	0x69150000
    1224:	016f0100 	0x16f0100
    1228:	00000048 	0x48
    122c:	005c9102 	0x5c9102
    1230:	0000f01a 	0xf01a
    1234:	61761500 	0x61761500
    1238:	8501006c 	lh	at,108(t0)
    123c:	00017501 	0x17501
    1240:	58910200 	0x58910200
    1244:	66756215 	0x66756215
    1248:	01860100 	0x1860100
    124c:	00000560 	0x560
    1250:	16649102 	bne	s3,a0,fffe565c <tab_main+0x403e55c4>
    1254:	000007bb 	0x7bb
    1258:	6d018701 	0x6d018701
    125c:	02000002 	0x2000002
    1260:	6c155491 	0x6c155491
    1264:	01006e65 	0x1006e65
    1268:	00480188 	0x480188
    126c:	91020000 	lbu	v0,0(t0)
    1270:	05a71650 	0x5a71650
    1274:	89010000 	lwl	at,0(t0)
    1278:	00058001 	movt	s0,zero,$fcc1
    127c:	a4030500 	sh	v1,1280(zero)
    1280:	15310000 	bne	t1,s1,1284 <NB_PROCS+0x1280>
    1284:	8a010069 	lwl	at,105(s0)
    1288:	00004801 	movf	t1,zero,$fcc0
    128c:	4c910200 	0x4c910200
    1290:	000ba41b 	0xba41b
    1294:	000be020 	add	gp,zero,t3
    1298:	74731520 	jalx	1cc5480 <NB_PROCS+0x1cc547c>
    129c:	b0010072 	0xb0010072
    12a0:	00026d01 	0x26d01
    12a4:	48910200 	0x48910200
    12a8:	10000000 	b	12ac <NB_PROCS+0x12a8>
    12ac:	0000022c 	0x22c
    12b0:	00000570 	tge	zero,zero,0x15
    12b4:	0002c911 	0x2c911
    12b8:	10001300 	b	5ebc <NB_PROCS+0x5eb8>
    12bc:	0000022c 	0x22c
    12c0:	00000580 	sll	zero,zero,0x16
    12c4:	0002c911 	0x2c911
    12c8:	1c001000 	bgtz	zero,52cc <NB_PROCS+0x52c8>
    12cc:	00000570 	tge	zero,zero,0x15
    12d0:	08850113 	j	214044c <NB_PROCS+0x2140448>
    12d4:	cb010000 	lwc2	$1,0(t8)
    12d8:	01750101 	0x1750101
    12dc:	0c1c0000 	jal	700000 <NB_PROCS+0x6ffffc>
    12e0:	0c582000 	jal	1608000 <NB_PROCS+0x1607ffc>
    12e4:	04bc2000 	0x4bc2000
    12e8:	05c20000 	bltzl	t6,12ec <NB_PROCS+0x12e8>
    12ec:	e0140000 	sc	s4,0(zero)
    12f0:	01000003 	0x1000003
    12f4:	017501cb 	0x17501cb
    12f8:	91020000 	lbu	v0,0(t0)
    12fc:	61761d00 	0x61761d00
    1300:	cb01006c 	lwc2	$1,108(t8)
    1304:	00017501 	0x17501
    1308:	04910200 	bgezal	a0,1b0c <NB_PROCS+0x1b08>
    130c:	06011300 	bgez	s0,5f10 <NB_PROCS+0x5f0c>
    1310:	01000009 	jalr	zero,t0
    1314:	750101d7 	jalx	404075c <seg_stack_base+0x4075c>
    1318:	58000001 	blezl	zero,1320 <NB_PROCS+0x131c>
    131c:	9420000c 	lhu	zero,12(at)
    1320:	db20000c 	ldc2	$0,12(t9)
    1324:	ff000004 	sdc3	$0,4(t8)
    1328:	14000005 	bnez	zero,1340 <NB_PROCS+0x133c>
    132c:	000003e0 	0x3e0
    1330:	7501d701 	jalx	4075c04 <seg_stack_base+0x75c04>
    1334:	02000001 	movf	zero,s0,$fcc0
    1338:	761d0091 	jalx	8740244 <seg_stack_base+0x4740244>
    133c:	01006c61 	0x1006c61
    1340:	017501d7 	0x17501d7
    1344:	91020000 	lbu	v0,0(t0)
    1348:	01130004 	sllv	zero,s3,t0
    134c:	000008bf 	0x8bf
    1350:	0101e201 	0x101e201
    1354:	00000175 	0x175
    1358:	20000c94 	addi	zero,zero,3220
    135c:	20000ccc 	addi	zero,zero,3276
    1360:	000004fa 	0x4fa
    1364:	0000062d 	0x62d
    1368:	0003e014 	0x3e014
    136c:	01e20100 	0x1e20100
    1370:	00000175 	0x175
    1374:	00009102 	srl	s2,zero,0x4
    1378:	08670113 	j	19c044c <NB_PROCS+0x19c0448>
    137c:	ed010000 	swc3	$1,0(t0)
    1380:	01750101 	0x1750101
    1384:	0ccc0000 	jal	3300000 <NB_PROCS+0x32ffffc>
    1388:	0d0c2000 	jal	4308000 <seg_stack_base+0x308000>
    138c:	05192000 	0x5192000
    1390:	066a0000 	tlti	s3,0
    1394:	e0140000 	sc	s4,0(zero)
    1398:	01000003 	0x1000003
    139c:	017501ed 	0x17501ed
    13a0:	91020000 	lbu	v0,0(t0)
    13a4:	08711400 	j	1c45000 <NB_PROCS+0x1c44ffc>
    13a8:	ed010000 	swc3	$1,0(t0)
    13ac:	00046001 	movf	t4,zero,$fcc1
    13b0:	04910200 	bgezal	a0,1bb4 <NB_PROCS+0x1bb0>
    13b4:	1b011300 	0x1b011300
    13b8:	01000007 	srav	zero,zero,t0
    13bc:	750101fc 	jalx	40407f0 <seg_stack_base+0x407f0>
    13c0:	0c000001 	jal	4 <NB_PROCS>
    13c4:	4420000d 	0x4420000d
    13c8:	3820000d 	xori	zero,at,0xd
    13cc:	98000005 	lwr	zero,5(zero)
    13d0:	1d000006 	bgtz	t0,13ec <NB_PROCS+0x13e8>
    13d4:	006c6176 	tne	v1,t4,0x185
    13d8:	7501fc01 	jalx	407f004 <seg_stack_base+0x7f004>
    13dc:	02000001 	movf	zero,s0,$fcc0
    13e0:	13000091 	beqz	t8,1628 <NB_PROCS+0x1624>
    13e4:	00072701 	0x72701
    13e8:	02070100 	0x2070100
    13ec:	00017501 	0x17501
    13f0:	000d4400 	sll	t0,t5,0x10
    13f4:	000d7c20 	0xd7c20
    13f8:	00055720 	0x55720
    13fc:	0006c600 	sll	t8,a2,0x18
    1400:	61761d00 	0x61761d00
    1404:	0701006c 	bgez	t8,15b8 <NB_PROCS+0x15b4>
    1408:	00017502 	srl	t6,at,0x14
    140c:	00910200 	0x910200
    1410:	28011300 	slti	at,zero,4864
    1414:	01000009 	jalr	zero,t0
    1418:	75010212 	jalx	4040848 <seg_stack_base+0x40848>
    141c:	7c000001 	0x7c000001
    1420:	b420000d 	0xb420000d
    1424:	7620000d 	jalx	8800034 <seg_stack_base+0x4800034>
    1428:	f4000005 	sdc1	$f0,5(zero)
    142c:	1d000006 	bgtz	t0,1448 <NB_PROCS+0x1444>
    1430:	006c6176 	tne	v1,t4,0x185
    1434:	75021201 	jalx	4084804 <seg_stack_base+0x84804>
    1438:	02000001 	movf	zero,s0,$fcc0
    143c:	13000091 	beqz	t8,1684 <NB_PROCS+0x1680>
    1440:	0006b101 	0x6b101
    1444:	021d0100 	0x21d0100
    1448:	00017501 	0x17501
    144c:	000db400 	sll	s6,t5,0x10
    1450:	000df020 	add	s8,zero,t5
    1454:	00059520 	0x59520
    1458:	00072200 	sll	a0,a3,0x8
    145c:	61761d00 	0x61761d00
    1460:	1d01006c 	0x1d01006c
    1464:	00046002 	srl	t4,a0,0x0
    1468:	00910200 	0x910200
    146c:	e8011300 	swc2	$1,4864(zero)
    1470:	01000008 	jr	t0
    1474:	75010228 	jalx	40408a0 <seg_stack_base+0x408a0>
    1478:	f0000001 	0xf0000001
    147c:	2c20000d 	sltiu	zero,at,13
    1480:	b420000e 	0xb420000e
    1484:	50000005 	beqzl	zero,149c <NB_PROCS+0x1498>
    1488:	1d000007 	bgtz	t0,14a8 <NB_PROCS+0x14a4>
    148c:	006c6176 	tne	v1,t4,0x185
    1490:	60022801 	0x60022801
    1494:	02000004 	sllv	zero,zero,s0
    1498:	13000091 	beqz	t8,16e0 <NB_PROCS+0x16dc>
    149c:	00074c01 	0x74c01
    14a0:	02370100 	0x2370100
    14a4:	00017501 	0x17501
    14a8:	000e2c00 	sll	a1,t6,0x10
    14ac:	000e6420 	0xe6420
    14b0:	0005d320 	0x5d320
    14b4:	00077e00 	sll	t7,a3,0x18
    14b8:	61761d00 	0x61761d00
    14bc:	3701006c 	ori	at,t8,0x6c
    14c0:	00017502 	srl	t6,at,0x14
    14c4:	00910200 	0x910200
    14c8:	76011300 	jalx	8044c00 <seg_stack_base+0x4044c00>
    14cc:	01000008 	jr	t0
    14d0:	75010243 	jalx	404090c <seg_stack_base+0x4090c>
    14d4:	64000001 	0x64000001
    14d8:	9c20000e 	0x9c20000e
    14dc:	f220000e 	0xf220000e
    14e0:	ac000005 	sw	zero,5(zero)
    14e4:	1d000007 	bgtz	t0,1504 <NB_PROCS+0x1500>
    14e8:	006c6176 	tne	v1,t4,0x185
    14ec:	75024301 	jalx	4090c04 <seg_stack_base+0x90c04>
    14f0:	02000001 	movf	zero,s0,$fcc0
    14f4:	13000091 	beqz	t8,173c <NB_PROCS+0x1738>
    14f8:	0006c901 	0x6c901
    14fc:	024e0100 	0x24e0100
    1500:	00017501 	0x17501
    1504:	000e9c00 	sll	s3,t6,0x10
    1508:	000ed820 	add	k1,zero,t6
    150c:	00061120 	0x61120
    1510:	0007da00 	sll	k1,a3,0x8
    1514:	08491400 	j	1245000 <NB_PROCS+0x1244ffc>
    1518:	4e010000 	c3	0x10000
    151c:	00046002 	srl	t4,a0,0x0
    1520:	00910200 	0x910200
    1524:	0e011300 	jal	8044c00 <seg_stack_base+0x4044c00>
    1528:	01000007 	srav	zero,zero,t0
    152c:	75010259 	jalx	4040964 <seg_stack_base+0x40964>
    1530:	d8000001 	ldc2	$0,1(zero)
    1534:	1420000e 	bnez	at,1570 <NB_PROCS+0x156c>
    1538:	3020000f 	andi	zero,at,0xf
    153c:	08000006 	j	18 <NB_PROCS+0x14>
    1540:	14000008 	bnez	zero,1564 <NB_PROCS+0x1560>
    1544:	00000849 	0x849
    1548:	60025901 	0x60025901
    154c:	02000004 	sllv	zero,zero,s0
    1550:	13000091 	beqz	t8,1798 <NB_PROCS+0x1794>
    1554:	00078601 	0x78601
    1558:	02650100 	0x2650100
    155c:	00017501 	0x17501
    1560:	000f1400 	sll	v0,t7,0x10
    1564:	000f5020 	add	t2,zero,t7
    1568:	00064f20 	0x64f20
    156c:	00083600 	sll	a2,t0,0x18
    1570:	08491400 	j	1245000 <NB_PROCS+0x1244ffc>
    1574:	65010000 	0x65010000
    1578:	00046002 	srl	t4,a0,0x0
    157c:	00910200 	0x910200
    1580:	22011300 	addi	at,s0,4864
    1584:	01000008 	jr	t0
    1588:	75010277 	jalx	40409dc <seg_stack_base+0x409dc>
    158c:	50000001 	beqzl	zero,1594 <NB_PROCS+0x1590>
    1590:	8820000f 	lwl	zero,15(at)
    1594:	6e20000f 	0x6e20000f
    1598:	64000006 	0x64000006
    159c:	14000008 	bnez	zero,15c0 <NB_PROCS+0x15bc>
    15a0:	00000446 	0x446
    15a4:	75027701 	jalx	409dc04 <seg_stack_base+0x9dc04>
    15a8:	02000001 	movf	zero,s0,$fcc0
    15ac:	13000091 	beqz	t8,17f4 <NB_PROCS+0x17f0>
    15b0:	00081501 	0x81501
    15b4:	02830100 	0x2830100
    15b8:	00017501 	0x17501
    15bc:	000f8800 	sll	s1,t7,0x0
    15c0:	000fc020 	add	t8,zero,t7
    15c4:	00068d20 	0x68d20
    15c8:	00089200 	sll	s2,t0,0x8
    15cc:	04461400 	0x4461400
    15d0:	83010000 	lb	at,0(t8)
    15d4:	00017502 	srl	t6,at,0x14
    15d8:	00910200 	0x910200
    15dc:	6c011300 	0x6c011300
    15e0:	01000002 	0x1000002
    15e4:	75010295 	jalx	4040a54 <seg_stack_base+0x40a54>
    15e8:	c0000001 	ll	zero,1(zero)
    15ec:	0820000f 	j	80003c <NB_PROCS+0x800038>
    15f0:	ac200010 	sw	zero,16(at)
    15f4:	de000006 	ldc3	$0,6(s0)
    15f8:	1d000008 	bgtz	t0,161c <NB_PROCS+0x1618>
    15fc:	0061626c 	0x61626c
    1600:	3d029501 	0x3d029501
    1604:	02000000 	0x2000000
    1608:	49140091 	bc2f	$cc5,1850 <NB_PROCS+0x184c>
    160c:	01000008 	jr	t0
    1610:	08de0295 	j	3780a54 <NB_PROCS+0x3780a50>
    1614:	91020000 	lbu	v0,0(t0)
    1618:	050d1404 	0x50d1404
    161c:	95010000 	lhu	at,0(t0)
    1620:	00003d02 	srl	a3,zero,0x14
    1624:	08910200 	j	2440800 <NB_PROCS+0x24407fc>
    1628:	13041e00 	beq	t8,a0,8e2c <NB_PROCS+0x8e28>
    162c:	0003cd01 	0x3cd01
    1630:	02a60100 	0x2a60100
    1634:	00017501 	0x17501
    1638:	00100800 	sll	at,s0,0x0
    163c:	00105020 	add	t2,zero,s0
    1640:	0006cb20 	0x6cb20
    1644:	00092c00 	sll	a1,t1,0x10
    1648:	626c1d00 	0x626c1d00
    164c:	a6010061 	sh	at,97(s0)
    1650:	00003d02 	srl	a3,zero,0x14
    1654:	00910200 	0x910200
    1658:	00084914 	0x84914
    165c:	02a60100 	0x2a60100
    1660:	000008de 	0x8de
    1664:	14049102 	bne	zero,a0,fffe5a70 <tab_main+0x403e59d8>
    1668:	0000050d 	break	0x0,0x14
    166c:	3d02a601 	0x3d02a601
    1670:	02000000 	0x2000000
    1674:	1f000891 	bgtz	t8,38bc <NB_PROCS+0x38b8>
    1678:	00045d01 	0x45d01
    167c:	02b40100 	0x2b40100
    1680:	00000175 	0x175
    1684:	20001050 	addi	zero,zero,4176
    1688:	20001084 	addi	zero,zero,4228
    168c:	000006ea 	0x6ea
    1690:	03660113 	0x3660113
    1694:	c5010000 	lwc1	$f1,0(t0)
    1698:	01750102 	0x1750102
    169c:	10840000 	beq	a0,a0,16a0 <NB_PROCS+0x169c>
    16a0:	10cc2000 	beq	a2,t4,96a4 <NB_PROCS+0x96a0>
    16a4:	07092000 	tgeiu	t8,8192
    16a8:	09910000 	j	6440000 <seg_stack_base+0x2440000>
    16ac:	a1140000 	sb	s4,0(t0)
    16b0:	01000002 	0x1000002
    16b4:	003d02c5 	0x3d02c5
    16b8:	91020000 	lbu	v0,0(t0)
    16bc:	08491400 	j	1245000 <NB_PROCS+0x1244ffc>
    16c0:	c5010000 	lwc1	$f1,0(t0)
    16c4:	0008de02 	srl	k1,t0,0x18
    16c8:	04910200 	bgezal	a0,1ecc <NB_PROCS+0x1ec8>
    16cc:	0002fe14 	0x2fe14
    16d0:	02c50100 	0x2c50100
    16d4:	0000003d 	0x3d
    16d8:	00089102 	srl	s2,t0,0x4
    16dc:	04ab0113 	tltiu	a1,275
    16e0:	d6010000 	ldc1	$f1,0(s0)
    16e4:	01750102 	0x1750102
    16e8:	10cc0000 	beq	a2,t4,16ec <NB_PROCS+0x16e8>
    16ec:	11142000 	beq	t0,s4,96f0 <NB_PROCS+0x96ec>
    16f0:	07282000 	tgei	t9,8192
    16f4:	09dd0000 	j	7740000 <seg_stack_base+0x3740000>
    16f8:	a1140000 	sb	s4,0(t0)
    16fc:	01000002 	0x1000002
    1700:	003d02d6 	0x3d02d6
    1704:	91020000 	lbu	v0,0(t0)
    1708:	08491400 	j	1245000 <NB_PROCS+0x1244ffc>
    170c:	d6010000 	ldc1	$f1,0(s0)
    1710:	0008de02 	srl	k1,t0,0x18
    1714:	04910200 	bgezal	a0,1f18 <NB_PROCS+0x1f14>
    1718:	0002fe14 	0x2fe14
    171c:	02d60100 	0x2d60100
    1720:	0000003d 	0x3d
    1724:	00089102 	srl	s2,t0,0x4
    1728:	03c30113 	0x3c30113
    172c:	ea010000 	swc2	$1,0(s0)
    1730:	01750102 	0x1750102
    1734:	11140000 	beq	t0,s4,1738 <NB_PROCS+0x1734>
    1738:	115c2000 	beq	t2,gp,973c <NB_PROCS+0x9738>
    173c:	07472000 	0x7472000
    1740:	0a290000 	j	8a40000 <seg_stack_base+0x4a40000>
    1744:	a1140000 	sb	s4,0(t0)
    1748:	01000002 	0x1000002
    174c:	003d02ea 	0x3d02ea
    1750:	91020000 	lbu	v0,0(t0)
    1754:	08491400 	j	1245000 <NB_PROCS+0x1244ffc>
    1758:	ea010000 	swc2	$1,0(s0)
    175c:	0008de02 	srl	k1,t0,0x18
    1760:	04910200 	bgezal	a0,1f64 <NB_PROCS+0x1f60>
    1764:	0002fe14 	0x2fe14
    1768:	02ea0100 	0x2ea0100
    176c:	0000003d 	0x3d
    1770:	00089102 	srl	s2,t0,0x4
    1774:	02e90113 	0x2e90113
    1778:	fe010000 	sdc3	$1,0(s0)
    177c:	01750102 	0x1750102
    1780:	115c0000 	beq	t2,gp,1784 <NB_PROCS+0x1780>
    1784:	11a42000 	beq	t5,a0,9788 <NB_PROCS+0x9784>
    1788:	07662000 	0x7662000
    178c:	0a750000 	j	9d40000 <seg_stack_base+0x5d40000>
    1790:	a1140000 	sb	s4,0(t0)
    1794:	01000002 	0x1000002
    1798:	003d02fe 	0x3d02fe
    179c:	91020000 	lbu	v0,0(t0)
    17a0:	08491400 	j	1245000 <NB_PROCS+0x1244ffc>
    17a4:	fe010000 	sdc3	$1,0(s0)
    17a8:	0008de02 	srl	k1,t0,0x18
    17ac:	04910200 	bgezal	a0,1fb0 <NB_PROCS+0x1fac>
    17b0:	0002fe14 	0x2fe14
    17b4:	02fe0100 	0x2fe0100
    17b8:	0000003d 	0x3d
    17bc:	00089102 	srl	s2,t0,0x4
    17c0:	0204011f 	0x204011f
    17c4:	0c010000 	jal	40000 <NB_PROCS+0x3fffc>
    17c8:	00017503 	sra	t6,at,0x14
    17cc:	0011a400 	sll	s4,s1,0x10
    17d0:	0011d820 	add	k1,zero,s1
    17d4:	00078520 	0x78520
    17d8:	012a0000 	0x12a0000
    17dc:	00020000 	sll	zero,v0,0x0
    17e0:	0000038d 	break	0x0,0xe
    17e4:	05bd0104 	0x5bd0104
    17e8:	b2010000 	0xb2010000
    17ec:	3f000009 	0x3f000009
    17f0:	d8000009 	ldc2	$0,9(zero)
    17f4:	94200011 	lhu	zero,17(at)
    17f8:	d2200015 	0xd2200015
    17fc:	02000004 	sllv	zero,zero,s0
    1800:	037e0704 	0x37e0704
    1804:	01030000 	0x1030000
    1808:	000009ad 	0x9ad
    180c:	11d81101 	beq	t6,t8,5c14 <NB_PROCS+0x5c10>
    1810:	13042000 	beq	t8,a0,9814 <NB_PROCS+0x9810>
    1814:	07a42000 	0x7a42000
    1818:	00530000 	0x530000
    181c:	d7040000 	ldc1	$f4,0(t8)
    1820:	01000009 	jalr	zero,t0
    1824:	00005313 	0x5313
    1828:	70910200 	0x70910200
    182c:	05040500 	0x5040500
    1830:	00746e69 	0x746e69
    1834:	09a30103 	j	68c040c <seg_stack_base+0x28c040c>
    1838:	30010000 	andi	at,zero,0x0
    183c:	20001304 	addi	zero,zero,4868
    1840:	20001460 	addi	zero,zero,5216
    1844:	000007c3 	sra	zero,zero,0x1f
    1848:	00000099 	0x99
    184c:	01006c06 	0x1006c06
    1850:	00005332 	tlt	zero,zero,0x14c
    1854:	70910200 	0x70910200
    1858:	01007006 	srlv	t6,zero,t0
    185c:	00005332 	tlt	zero,zero,0x14c
    1860:	6c910200 	0x6c910200
    1864:	0009d704 	0x9d704
    1868:	53330100 	beql	t9,s3,1c6c <NB_PROCS+0x1c68>
    186c:	02000000 	0x2000000
    1870:	03006891 	0x3006891
    1874:	0009b901 	0x9b901
    1878:	604e0100 	0x604e0100
    187c:	94200014 	lhu	zero,20(at)
    1880:	e2200015 	sc	zero,21(s1)
    1884:	c0000007 	ll	zero,7(zero)
    1888:	04000000 	bltz	zero,188c <NB_PROCS+0x1888>
    188c:	000009d7 	0x9d7
    1890:	00535001 	0x535001
    1894:	91020000 	lbu	v0,0(t0)
    1898:	32070070 	andi	a3,s0,0x70
    189c:	01000009 	jalr	zero,t0
    18a0:	0000d20a 	0xd20a
    18a4:	03050100 	0x3050100
    18a8:	31000290 	andi	zero,t0,0x290
    18ac:	00005308 	0x5308
    18b0:	09c10700 	j	7041c00 <seg_stack_base+0x3041c00>
    18b4:	0b010000 	j	c040000 <seg_stack_base+0x8040000>
    18b8:	000000d2 	0xd2
    18bc:	94030501 	lhu	v1,1281(zero)
    18c0:	09310002 	j	4c40008 <seg_stack_base+0xc40008>
    18c4:	00000102 	srl	zero,zero,0x4
    18c8:	000000ff 	0xff
    18cc:	0000ff0a 	0xff0a
    18d0:	ff0a7f00 	sdc3	$10,32512(t8)
    18d4:	7f000000 	0x7f000000
    18d8:	07040b00 	0x7040b00
    18dc:	24080102 	li	t0,258
    18e0:	07000003 	bltz	t8,18f0 <NB_PROCS+0x18ec>
    18e4:	000009cf 	0x9cf
    18e8:	00e90d01 	0xe90d01
    18ec:	05010000 	bgez	t0,18f0 <NB_PROCS+0x18ec>
    18f0:	00029803 	sra	s3,v0,0x0
    18f4:	09dd0731 	j	7741cc4 <seg_stack_base+0x3741cc4>
    18f8:	0e010000 	jal	8040000 <seg_stack_base+0x4040000>
    18fc:	000000e9 	0xe9
    1900:	98030501 	lwr	v1,1281(zero)
    1904:	00310042 	ror	zero,s1,0x1

Disassembly of section .debug_line:

00000000 <.debug_line>:
   0:	00000249 	0x249
   4:	00810002 	0x810002
   8:	01010000 	0x1010000
   c:	000d0efb 	0xd0efb
  10:	01010101 	0x1010101
  14:	01000000 	0x1000000
  18:	2f010000 	sltiu	at,t8,0
  1c:	72657355 	0x72657355
  20:	6c612f73 	0x6c612f73
  24:	2f6e6961 	sltiu	t6,k1,26977
  28:	75636f44 	jalx	58dbd10 <seg_stack_base+0x18dbd10>
  2c:	746e656d 	jalx	1b995b4 <NB_PROCS+0x1b995b0>
  30:	696c2f73 	0x696c2f73
  34:	636e6563 	0x636e6563
  38:	6c612f65 	0x6c612f65
  3c:	732f6f6d 	0x732f6f6d
  40:	2f74666f 	sltiu	s4,k1,26223
  44:	74656967 	jalx	195a59c <NB_PROCS+0x195a598>
  48:	72640000 	madd	s3,a0
  4c:	72657669 	0x72657669
  50:	00632e73 	tltu	v1,v1,0xb9
  54:	64000001 	0x64000001
  58:	682e616d 	0x682e616d
  5c:	00000100 	sll	zero,zero,0x4
  60:	656d6974 	0x656d6974
  64:	00682e72 	tlt	v1,t0,0xb9
  68:	62000001 	0x62000001
  6c:	6b636f6c 	0x6b636f6c
  70:	7665645f 	jalx	995917c <seg_stack_base+0x595917c>
  74:	2e656369 	sltiu	a1,s3,25449
  78:	00010068 	0x10068
  7c:	69726400 	0x69726400
  80:	73726576 	0x73726576
  84:	0100682e 	0x100682e
  88:	00000000 	nop
  8c:	08e80205 	j	3a00814 <NB_PROCS+0x3a00810>
  90:	da038000 	ldc2	$3,-32768(s0)
  94:	83f30100 	lb	s3,256(ra)
  98:	83e50883 	lb	a1,2179(ra)
  9c:	b8132802 	swr	s3,10242(zero)
  a0:	838483f7 	lb	a0,-31753(gp)
  a4:	08112802 	j	44a008 <NB_PROCS+0x44a004>
  a8:	4cc14be7 	0x4cc14be7
  ac:	4c888383 	0x4c888383
  b0:	4c884b83 	0x4c884b83
  b4:	88838383 	lwl	v1,-31869(a0)
  b8:	8383834c 	lb	v1,-31924(gp)
  bc:	0884bf89 	j	212fe24 <NB_PROCS+0x212fe20>
  c0:	49b88577 	0x49b88577
  c4:	89162402 	lwl	s6,9218(t0)
  c8:	142c02bb 	bne	at,t4,bb8 <NB_PROCS+0xbb4>
  cc:	136802bc 	beq	k1,t0,bc0 <NB_PROCS+0xbbc>
  d0:	a808ad08 	swl	t0,-21240(zero)
  d4:	bbc0b208 	swr	zero,-19960(s8)
  d8:	bc143802 	cache	0x14,14338(zero)
  dc:	08134802 	j	4d2008 <NB_PROCS+0x4d2004>
  e0:	c0b10871 	ll	s1,2161(a1)
  e4:	3002bbf6 	andi	v0,zero,0xbbf6
  e8:	08750814 	j	1d42050 <NB_PROCS+0x1d4204c>
  ec:	f6c04b75 	sdc1	$f0,19317(s6)
  f0:	143002bb 	bne	at,s0,be0 <NB_PROCS+0xbdc>
  f4:	ad087508 	sw	t0,29960(t0)
  f8:	ba11034b 	swr	s1,843(s0)
  fc:	4dbcbbf5 	0x4dbcbbf5
 100:	08e508bb 	j	39422ec <NB_PROCS+0x39422e8>
 104:	02e608ad 	0x2e608ad
 108:	08bc1428 	j	2f050a0 <NB_PROCS+0x2f0509c>
 10c:	037508af 	0x37508af
 110:	2802ba7a 	slti	v0,zero,-17798
 114:	034b5114 	0x34b5114
 118:	bbf5f20e 	swr	s5,-3570(ra)
 11c:	bbad08bd 	swr	t5,2237(sp)
 120:	ad08e508 	sw	t0,-6904(t0)
 124:	7508e608 	jalx	4239820 <seg_stack_base+0x239820>
 128:	02142c02 	0x2142c02
 12c:	75081324 	jalx	4204c90 <seg_stack_base+0x204c90>
 130:	f20d034b 	0xf20d034b
 134:	08bdbbf5 	j	2f6efd4 <NB_PROCS+0x2f6efd0>
 138:	e508bbad 	swc1	$f8,-17491(t0)
 13c:	e608ad08 	swc1	$f8,-21240(s0)
 140:	08142802 	j	50a008 <NB_PROCS+0x50a004>
 144:	be3d08e6 	cache	0x1d,2278(s1)
 148:	0883f84c 	j	20fe130 <NB_PROCS+0x20fe12c>
 14c:	8383bcad 	lb	v1,-17235(gp)
 150:	02132402 	0x2132402
 154:	e5081324 	swc1	$f8,4900(t0)
 158:	820903f4 	lb	t1,1012(s0)
 15c:	ad08bbf4 	sw	t0,-17420(t0)
 160:	02bbae08 	0x2bbae08
 164:	f94b1324 	sdc2	$11,4900(t2)
 168:	ad08bbf4 	sw	t0,-17420(t0)
 16c:	02bbae08 	0x2bbae08
 170:	f84b1328 	sdc2	$11,4904(v0)
 174:	bbae08bc 	swr	t6,2236(sp)
 178:	c14b7508 	ll	t3,29960(t2)
 17c:	bbae08bc 	swr	t6,2236(sp)
 180:	c14bad08 	ll	t3,-21240(t2)
 184:	e608bb86 	swc1	$f8,-17530(s0)
 188:	4b3d08bb 	c2	0x13d08bb
 18c:	c0ba0a03 	ll	k0,2563(a1)
 190:	bcae08bb 	cache	0xe,2235(a1)
 194:	843d084c 	lh	sp,2124(at)
 198:	08e10848 	j	3842120 <NB_PROCS+0x384211c>
 19c:	1a034bb4 	0x1a034bb4
 1a0:	bf3d08ba 	cache	0x1d,2234(t9)
 1a4:	132402f3 	beq	t9,a0,d74 <NB_PROCS+0xd70>
 1a8:	3d084108 	0x3d084108
 1ac:	28024884 	slti	v0,zero,18564
 1b0:	bd44080f 	cache	0x4,2063(t2)
 1b4:	f3f3f3bb 	0xf3f3f3bb
 1b8:	0c034bf3 	jal	d2fcc <NB_PROCS+0xd2fc8>
 1bc:	bf3d08ba 	cache	0x1d,2234(t9)
 1c0:	132402f3 	beq	t9,a0,d90 <NB_PROCS+0xd8c>
 1c4:	3d084108 	0x3d084108
 1c8:	28024884 	slti	v0,zero,18564
 1cc:	bd44080f 	cache	0x4,2063(t2)
 1d0:	f3f3f3bb 	0xf3f3f3bb
 1d4:	4b7608f4 	c2	0x17608f4
 1d8:	13ba0a03 	beq	sp,k0,29e8 <NB_PROCS+0x29e4>
 1dc:	08f64884 	j	3d92210 <NB_PROCS+0x3d9220c>
 1e0:	bbbb813d 	swr	k1,-32451(sp)
 1e4:	820f034b 	lb	t7,843(s0)
 1e8:	863d08f3 	lh	sp,2291(s1)
 1ec:	7708e508 	jalx	c239420 <seg_stack_base+0x8239420>
 1f0:	4b134c02 	c2	0x1134c02
 1f4:	f3ba0903 	0xf3ba0903
 1f8:	08863d08 	j	218f420 <NB_PROCS+0x218f41c>
 1fc:	027708e5 	0x27708e5
 200:	034b1354 	0x34b1354
 204:	3d08ba13 	0x3d08ba13
 208:	08bf3d08 	j	2fcf420 <NB_PROCS+0x2fcf41c>
 20c:	084108ad 	j	10422b4 <NB_PROCS+0x10422b0>
 210:	0848843d 	j	12210f4 <NB_PROCS+0x12210f0>
 214:	827903e8 	lb	t9,1000(s3)
 218:	3c080903 	lui	t0,0x903
 21c:	f3bbbbbd 	0xf3bbbbbd
 220:	09034bf3 	j	40d2fcc <seg_stack_base+0xd2fcc>
 224:	083d08ba 	j	f422e8 <NB_PROCS+0xf422e4>
 228:	ad08bf3d 	sw	t0,-16579(t0)
 22c:	3d084108 	0x3d084108
 230:	28024884 	slti	v0,zero,18564
 234:	bd44080f 	cache	0x4,2063(t2)
 238:	f4f3bbbb 	sdc1	$f19,-17477(a3)
 23c:	09034bbc 	j	40d2ef0 <seg_stack_base+0xd2ef0>
 240:	488413ba 	0x488413ba
 244:	83ad08f6 	lb	t5,2294(sp)
 248:	01000802 	0x1000802
 24c:	00028101 	0x28101
 250:	c9000200 	lwc2	$0,512(t0)
 254:	01000000 	0x1000000
 258:	0d0efb01 	jal	43bec04 <seg_stack_base+0x3bec04>
 25c:	01010100 	0x1010100
 260:	00000001 	movf	zero,zero,$fcc0
 264:	01000001 	movf	zero,t0,$fcc0
 268:	6573552f 	0x6573552f
 26c:	612f7372 	0x612f7372
 270:	6e69616c 	0x6e69616c
 274:	636f442f 	0x636f442f
 278:	6e656d75 	0x6e656d75
 27c:	6c2f7374 	0x6c2f7374
 280:	6e656369 	0x6e656369
 284:	612f6563 	0x612f6563
 288:	2f6f6d6c 	sltiu	t7,k1,28012
 28c:	74666f73 	jalx	199bdcc <NB_PROCS+0x199bdc8>
 290:	6569672f 	0x6569672f
 294:	552f0074 	bnel	t1,t7,468 <NB_PROCS+0x464>
 298:	73726573 	0x73726573
 29c:	616c612f 	0x616c612f
 2a0:	732f6e69 	0x732f6e69
 2a4:	632f636f 	0x632f636f
 2a8:	6f6f7463 	0x6f6f7463
 2ac:	622f736c 	0x622f736c
 2b0:	2e2f6e69 	sltiu	t7,s1,28265
 2b4:	696c2f2e 	0x696c2f2e
 2b8:	63672f62 	0x63672f62
 2bc:	696d2f63 	0x696d2f63
 2c0:	6c657370 	0x6c657370
 2c4:	6b6e752d 	0x6b6e752d
 2c8:	6e776f6e 	0x6e776f6e
 2cc:	666c652d 	0x666c652d
 2d0:	342e342f 	ori	t6,at,0x342f
 2d4:	692f322e 	0x692f322e
 2d8:	756c636e 	jalx	5b18db8 <seg_stack_base+0x1b18db8>
 2dc:	00006564 	0x6564
 2e0:	69647473 	0x69647473
 2e4:	00632e6f 	0x632e6f
 2e8:	73000001 	maddu	t8,zero
 2ec:	72616474 	0x72616474
 2f0:	00682e67 	0x682e67
 2f4:	73000002 	mul	zero,t8,zero
 2f8:	6f696474 	0x6f696474
 2fc:	0100682e 	0x100682e
 300:	69740000 	0x69740000
 304:	2e72656d 	sltiu	s2,s3,25965
 308:	00010068 	0x10068
 30c:	64636700 	0x64636700
 310:	0100682e 	0x100682e
 314:	63690000 	0x63690000
 318:	00682e75 	0x682e75
 31c:	00000001 	movf	zero,zero,$fcc0
 320:	00020500 	sll	zero,v0,0x14
 324:	03200000 	0x3200000
 328:	7508011b 	jalx	420046c <seg_stack_base+0x20046c>
 32c:	4b4b4b4b 	c2	0x14b4b4b
 330:	4a18034c 	c2	0x18034c
 334:	ad0883c1 	sw	t0,-31807(t0)
 338:	ad0883f8 	sw	t0,-31752(t0)
 33c:	08bb83f8 	j	2ee0fe0 <NB_PROCS+0x2ee0fdc>
 340:	0883f9ad 	j	20fe6b4 <NB_PROCS+0x20fe6b0>
 344:	083d08e5 	j	f42394 <NB_PROCS+0xf42390>
 348:	03750876 	tne	k1,s5,0x21
 34c:	08f3f20d 	j	3cfc834 <NB_PROCS+0x3cfc830>
 350:	f20b03e8 	0xf20b03e8
 354:	b9834bbb 	swr	v1,19387(t4)
 358:	e8087708 	swc2	$8,30472(zero)
 35c:	bdf20a03 	cache	0x12,2563(t7)
 360:	136002bb 	beqz	k1,e50 <NB_PROCS+0xe4c>
 364:	08102402 	j	409008 <NB_PROCS+0x409004>
 368:	03e808b0 	tge	ra,t0,0x22
 36c:	4bbbf20b 	c2	0x1bbf20b
 370:	16240284 	bne	s1,a0,d84 <NB_PROCS+0xd80>
 374:	28027a03 	slti	v0,zero,31235
 378:	034bc201 	0x34bc201
 37c:	4bbbf20b 	c2	0x1bbf20b
 380:	16240284 	bne	s1,a0,d94 <NB_PROCS+0xd90>
 384:	28027a03 	slti	v0,zero,31235
 388:	034bc201 	0x34bc201
 38c:	4cf5f212 	0x4cf5f212
 390:	17240284 	bne	t9,a0,da4 <NB_PROCS+0xda0>
 394:	f4142802 	sdc1	$f20,10242(zero)
 398:	153002f3 	bne	t1,s0,f68 <NB_PROCS+0xf64>
 39c:	7003ad08 	0x7003ad08
 3a0:	020b03ba 	0x20b03ba
 3a4:	09030124 	j	40c0490 <seg_stack_base+0xc0490>
 3a8:	034bf34a 	0x34bf34a
 3ac:	4bbdf214 	c2	0x1bdf214
 3b0:	4e4b4b4b 	c3	0x4b4b4b
 3b4:	16240284 	bne	s1,a0,dc8 <NB_PROCS+0xdc4>
 3b8:	f4142802 	sdc1	$f20,10242(zero)
 3bc:	3d08e608 	0x3d08e608
 3c0:	887008bb 	lwl	s0,2235(v1)
 3c4:	8680e608 	lh	zero,-6648(s4)
 3c8:	bbbbbcf4 	swr	k1,-17164(sp)
 3cc:	bcf4bdbb 	cache	0x14,-16965(a3)
 3d0:	08b6bbbb 	j	2daeeec <NB_PROCS+0x2daeee8>
 3d4:	0383bbea 	0x383bbea
 3d8:	2e03ba58 	sltiu	v1,s0,-17832
 3dc:	2c02bcba 	sltiu	v0,zero,-17222
 3e0:	7ead0813 	0x7ead0813
 3e4:	08bcea08 	j	2f3a820 <NB_PROCS+0x2f3a81c>
 3e8:	bbbbbc40 	swr	k1,-17344(sp)
 3ec:	bbea08b6 	swr	t2,2230(ra)
 3f0:	0f034b84 	jal	c0d2e10 <seg_stack_base+0x80d2e10>
 3f4:	867608f2 	lh	s6,2290(s3)
 3f8:	144c02f4 	bne	v0,t4,fcc <NB_PROCS+0xfc8>
 3fc:	162402bb 	bne	s1,a0,eec <NB_PROCS+0xee8>
 400:	bb3d08f4 	swr	sp,2292(t9)
 404:	084a0a03 	j	128280c <NB_PROCS+0x1282808>
 408:	62034e3f 	0x62034e3f
 40c:	03012c02 	0x3012c02
 410:	3f03f212 	0x3f03f212
 414:	f24d034a 	0xf24d034a
 418:	f383ae08 	0xf383ae08
 41c:	bbbb8483 	swr	k1,-31613(sp)
 420:	bb182402 	swr	t8,9218(t8)
 424:	02135802 	0x2135802
 428:	24021030 	li	v0,4144
 42c:	08bb4c14 	j	2ed3050 <NB_PROCS+0x2ed304c>
 430:	24028475 	li	v0,-31627
 434:	3002bb16 	andi	v0,zero,0xbb16
 438:	02720813 	0x2720813
 43c:	bb4c1424 	swr	t4,5156(k0)
 440:	83857508 	lb	a1,29960(gp)
 444:	84132c02 	lh	s3,11266(zero)
 448:	24028584 	li	v0,-31356
 44c:	820f0316 	lb	t7,790(s0)
 450:	f8b108f3 	sdc2	$17,2291(a1)
 454:	f7b108f3 	sdc1	$f17,2291(sp)
 458:	f8b008bb 	sdc2	$16,2235(a1)
 45c:	03e908f3 	tltu	ra,t1,0x23
 460:	08bbf209 	j	2efc824 <NB_PROCS+0x2efc820>
 464:	08bbf8b0 	j	2efe2c0 <NB_PROCS+0x2efe2bc>
 468:	08bbf8b0 	j	2efe2c0 <NB_PROCS+0x2efe2bc>
 46c:	08bbf9af 	j	2efe6bc <NB_PROCS+0x2efe6b8>
 470:	08bbf8e8 	j	2efe3a0 <NB_PROCS+0x2efe39c>
 474:	f20a03e8 	0xf20a03e8
 478:	f9b008bb 	sdc2	$16,2235(t5)
 47c:	f8b008bb 	sdc2	$16,2235(a1)
 480:	f8e808bb 	sdc2	$8,2235(a3)
 484:	f9e808bb 	sdc2	$8,2235(t7)
 488:	03e808bb 	0x3e808bb
 48c:	08bbf20d 	j	2efc834 <NB_PROCS+0x2efc830>
 490:	08bbfaaf 	j	2efeabc <NB_PROCS+0x2efeab8>
 494:	f20e03af 	0xf20e03af
 498:	24023d08 	li	v0,15624
 49c:	f20b0317 	0xf20b0317
 4a0:	24023d08 	li	v0,15624
 4a4:	0883fa17 	j	20fe85c <NB_PROCS+0x20fe858>
 4a8:	f20e03ae 	0xf20e03ae
 4ac:	24023d08 	li	v0,15624
 4b0:	f20b0317 	0xf20b0317
 4b4:	24023d08 	li	v0,15624
 4b8:	f20e0317 	0xf20e0317
 4bc:	24023d08 	li	v0,15624
 4c0:	f20e0317 	0xf20e0317
 4c4:	24023d08 	li	v0,15624
 4c8:	0883fa17 	j	20fe85c <NB_PROCS+0x20fe858>
 4cc:	001002ae 	0x1002ae
 4d0:	00850101 	0x850101
 4d4:	00020000 	sll	zero,v0,0x0
 4d8:	0000001d 	0x1d
 4dc:	0efb0101 	jal	bec0404 <seg_stack_base+0x7ec0404>
 4e0:	0101000d 	break	0x101
 4e4:	00000101 	0x101
 4e8:	00000100 	sll	zero,zero,0x4
 4ec:	616d0001 	0x616d0001
 4f0:	632e6e69 	0x632e6e69
 4f4:	00000000 	nop
 4f8:	02050000 	0x2050000
 4fc:	200011d8 	addi	zero,zero,4568
 500:	83011103 	lb	at,4355(t8)
 504:	84ae084c 	lh	t6,2124(a1)
 508:	02e508bc 	0x2e508bc
 50c:	84f31438 	lh	s3,5176(a3)
 510:	4c85f3f4 	0x4c85f3f4
 514:	6d03e508 	0x6d03e508
 518:	f21503ba 	0xf21503ba
 51c:	4c84f683 	0x4c84f683
 520:	0884ae08 	j	212b820 <NB_PROCS+0x212b81c>
 524:	bce508ae 	cache	0x5,2222(a3)
 528:	104002bc 	beqz	v0,101c <NB_PROCS+0x1018>
 52c:	b408aa08 	0xb408aa08
 530:	e5084c83 	swc1	$f8,19587(t0)
 534:	03ba6f03 	0x3ba6f03
 538:	f683f213 	sdc1	$f3,-3565(s4)
 53c:	ae084c83 	sw	t0,19587(s0)
 540:	e508f484 	swc1	$f8,-2940(t0)
 544:	f6f3e608 	sdc1	$f19,-6648(s7)
 548:	85f3f4f5 	lh	s3,-2827(t7)
 54c:	03e50884 	0x3e50884
 550:	1a03ba68 	0x1a03ba68
 554:	100283f2 	beq	zero,v0,fffe1520 <tab_main+0x403e1488>
 558:	Address 0x0000000000000558 is out of bounds.


Disassembly of section .debug_frame:

00000000 <.debug_frame>:
   0:	0000000c 	syscall
   4:	ffffffff 	sdc3	$31,-1(ra)
   8:	7c010001 	0x7c010001
   c:	001d0c1f 	0x1d0c1f
  10:	00000010 	mfhi	zero
  14:	00000000 	nop
  18:	800008e8 	lb	zero,2280(zero)
  1c:	000000fc 	0xfc
  20:	00100e44 	0x100e44
  24:	00000010 	mfhi	zero
  28:	00000000 	nop
  2c:	800009e4 	lb	zero,2532(zero)
  30:	0000001c 	0x1c
  34:	00080e44 	0x80e44
  38:	00000010 	mfhi	zero
  3c:	00000000 	nop
  40:	80000a00 	lb	zero,2560(zero)
  44:	00000018 	mult	zero,zero
  48:	00080e44 	0x80e44
  4c:	00000010 	mfhi	zero
  50:	00000000 	nop
  54:	80000a18 	lb	zero,2584(zero)
  58:	00000024 	and	zero,zero,zero
  5c:	00080e44 	0x80e44
  60:	00000010 	mfhi	zero
  64:	00000000 	nop
  68:	80000a3c 	lb	zero,2620(zero)
  6c:	00000024 	and	zero,zero,zero
  70:	00080e44 	0x80e44
  74:	00000010 	mfhi	zero
  78:	00000000 	nop
  7c:	80000a60 	lb	zero,2656(zero)
  80:	00000070 	tge	zero,zero,0x1
  84:	00080e44 	0x80e44
  88:	00000010 	mfhi	zero
  8c:	00000000 	nop
  90:	80000ad0 	lb	zero,2768(zero)
  94:	0000010c 	syscall	0x4
  98:	00100e44 	0x100e44
  9c:	00000010 	mfhi	zero
  a0:	00000000 	nop
  a4:	80000bdc 	lb	zero,3036(zero)
  a8:	000000d8 	0xd8
  ac:	00180e44 	0x180e44
  b0:	00000010 	mfhi	zero
  b4:	00000000 	nop
  b8:	80000cb4 	lb	zero,3252(zero)
  bc:	0000008c 	syscall	0x2
  c0:	00080e44 	0x80e44
  c4:	00000010 	mfhi	zero
  c8:	00000000 	nop
  cc:	80000d40 	lb	zero,3392(zero)
  d0:	00000090 	0x90
  d4:	00080e44 	0x80e44
  d8:	00000014 	0x14
  dc:	00000000 	nop
  e0:	80000dd0 	lb	zero,3536(zero)
  e4:	00000148 	0x148
  e8:	44380e44 	0x44380e44
  ec:	00011f11 	0x11f11
  f0:	00000014 	0x14
  f4:	00000000 	nop
  f8:	80000f18 	lb	zero,3864(zero)
  fc:	00000140 	sll	zero,zero,0x5
 100:	44300e44 	0x44300e44
 104:	00011f11 	0x11f11
 108:	00000014 	0x14
 10c:	00000000 	nop
 110:	80001058 	lb	zero,4184(zero)
 114:	00000128 	0x128
 118:	44300e44 	0x44300e44
 11c:	00011f11 	0x11f11
 120:	00000014 	0x14
 124:	00000000 	nop
 128:	80001180 	lb	zero,4480(zero)
 12c:	000000c0 	sll	zero,zero,0x3
 130:	44480e44 	0x44480e44
 134:	00011f11 	0x11f11
 138:	00000014 	0x14
 13c:	00000000 	nop
 140:	80001240 	lb	zero,4672(zero)
 144:	00000098 	0x98
 148:	44200e44 	0x44200e44
 14c:	00011f11 	0x11f11
 150:	00000014 	0x14
 154:	00000000 	nop
 158:	800012d8 	lb	zero,4824(zero)
 15c:	0000009c 	0x9c
 160:	44200e44 	0x44200e44
 164:	00011f11 	0x11f11
 168:	00000010 	mfhi	zero
 16c:	00000000 	nop
 170:	80001374 	lb	zero,4980(zero)
 174:	0000005c 	0x5c
 178:	00080e44 	0x80e44
 17c:	00000010 	mfhi	zero
 180:	00000000 	nop
 184:	800013d0 	lb	zero,5072(zero)
 188:	00000060 	0x60
 18c:	00080e44 	0x80e44
 190:	00000010 	mfhi	zero
 194:	00000000 	nop
 198:	80001430 	lb	zero,5168(zero)
 19c:	00000064 	0x64
 1a0:	00080e44 	0x80e44
 1a4:	00000014 	0x14
 1a8:	00000000 	nop
 1ac:	80001494 	lb	zero,5268(zero)
 1b0:	000000b0 	tge	zero,zero,0x2
 1b4:	44280e44 	0x44280e44
 1b8:	00011f11 	0x11f11
 1bc:	00000014 	0x14
 1c0:	00000000 	nop
 1c4:	80001544 	lb	zero,5444(zero)
 1c8:	0000012c 	0x12c
 1cc:	44280e44 	0x44280e44
 1d0:	00011f11 	0x11f11
 1d4:	00000014 	0x14
 1d8:	00000000 	nop
 1dc:	80001670 	lb	zero,5744(zero)
 1e0:	00000144 	0x144
 1e4:	44280e44 	0x44280e44
 1e8:	00011f11 	0x11f11
 1ec:	0000000c 	syscall
 1f0:	00000000 	nop
 1f4:	800017b4 	lb	zero,6068(zero)
 1f8:	0000005c 	0x5c
 1fc:	00000010 	mfhi	zero
 200:	00000000 	nop
 204:	80001810 	lb	zero,6160(zero)
 208:	000000c0 	sll	zero,zero,0x3
 20c:	00100e44 	0x100e44
 210:	00000010 	mfhi	zero
 214:	00000000 	nop
 218:	800018d0 	lb	zero,6352(zero)
 21c:	000000c8 	0xc8
 220:	00100e44 	0x100e44
 224:	00000014 	0x14
 228:	00000000 	nop
 22c:	80001998 	lb	zero,6552(zero)
 230:	00000114 	0x114
 234:	44280e44 	0x44280e44
 238:	00011f11 	0x11f11
 23c:	00000014 	0x14
 240:	00000000 	nop
 244:	80001aac 	lb	zero,6828(zero)
 248:	00000120 	0x120
 24c:	44280e44 	0x44280e44
 250:	00011f11 	0x11f11
 254:	0000000c 	syscall
 258:	00000000 	nop
 25c:	80001bcc 	lb	zero,7116(zero)
 260:	00000048 	0x48
 264:	0000000c 	syscall
 268:	ffffffff 	sdc3	$31,-1(ra)
 26c:	7c010001 	0x7c010001
 270:	001d0c1f 	0x1d0c1f
 274:	00000014 	0x14
 278:	00000264 	0x264
 27c:	20000000 	addi	zero,zero,0
 280:	0000003c 	0x3c
 284:	44080e44 	0x44080e44
 288:	00011f11 	0x11f11
 28c:	00000014 	0x14
 290:	00000264 	0x264
 294:	2000003c 	addi	zero,zero,60
 298:	00000034 	teq	zero,zero
 29c:	44200e44 	0x44200e44
 2a0:	00011f11 	0x11f11
 2a4:	00000014 	0x14
 2a8:	00000264 	0x264
 2ac:	20000070 	addi	zero,zero,112
 2b0:	00000034 	teq	zero,zero
 2b4:	44200e44 	0x44200e44
 2b8:	00011f11 	0x11f11
 2bc:	00000014 	0x14
 2c0:	00000264 	0x264
 2c4:	200000a4 	addi	zero,zero,164
 2c8:	00000040 	ssnop
 2cc:	44280e44 	0x44280e44
 2d0:	00011f11 	0x11f11
 2d4:	00000014 	0x14
 2d8:	00000264 	0x264
 2dc:	200000e4 	addi	zero,zero,228
 2e0:	0000007c 	0x7c
 2e4:	44280e44 	0x44280e44
 2e8:	00011f11 	0x11f11
 2ec:	00000014 	0x14
 2f0:	00000264 	0x264
 2f4:	20000160 	addi	zero,zero,352
 2f8:	00000040 	ssnop
 2fc:	44200e44 	0x44200e44
 300:	00011f11 	0x11f11
 304:	00000014 	0x14
 308:	00000264 	0x264
 30c:	200001a0 	addi	zero,zero,416
 310:	0000006c 	0x6c
 314:	44280e44 	0x44280e44
 318:	00011f11 	0x11f11
 31c:	00000014 	0x14
 320:	00000264 	0x264
 324:	2000020c 	addi	zero,zero,524
 328:	000000e8 	0xe8
 32c:	44300e44 	0x44300e44
 330:	00011f11 	0x11f11
 334:	00000014 	0x14
 338:	00000264 	0x264
 33c:	200002f4 	addi	zero,zero,756
 340:	00000084 	0x84
 344:	44280e44 	0x44280e44
 348:	00011f11 	0x11f11
 34c:	00000014 	0x14
 350:	00000264 	0x264
 354:	20000378 	addi	zero,zero,888
 358:	00000084 	0x84
 35c:	44280e44 	0x44280e44
 360:	00011f11 	0x11f11
 364:	00000014 	0x14
 368:	00000264 	0x264
 36c:	200003fc 	addi	zero,zero,1020
 370:	0000012c 	0x12c
 374:	44300e44 	0x44300e44
 378:	00011f11 	0x11f11
 37c:	00000014 	0x14
 380:	00000264 	0x264
 384:	20000528 	addi	zero,zero,1320
 388:	00000300 	sll	zero,zero,0xc
 38c:	44600e44 	0x44600e44
 390:	00011f11 	0x11f11
 394:	00000014 	0x14
 398:	00000264 	0x264
 39c:	20000828 	addi	zero,zero,2088
 3a0:	000003f4 	teq	zero,zero,0xf
 3a4:	44500e44 	0x44500e44
 3a8:	00011f11 	0x11f11
 3ac:	00000014 	0x14
 3b0:	00000264 	0x264
 3b4:	20000c1c 	addi	zero,zero,3100
 3b8:	0000003c 	0x3c
 3bc:	44200e44 	0x44200e44
 3c0:	00011f11 	0x11f11
 3c4:	00000014 	0x14
 3c8:	00000264 	0x264
 3cc:	20000c58 	addi	zero,zero,3160
 3d0:	0000003c 	0x3c
 3d4:	44200e44 	0x44200e44
 3d8:	00011f11 	0x11f11
 3dc:	00000014 	0x14
 3e0:	00000264 	0x264
 3e4:	20000c94 	addi	zero,zero,3220
 3e8:	00000038 	0x38
 3ec:	44200e44 	0x44200e44
 3f0:	00011f11 	0x11f11
 3f4:	00000014 	0x14
 3f8:	00000264 	0x264
 3fc:	20000ccc 	addi	zero,zero,3276
 400:	00000040 	ssnop
 404:	44200e44 	0x44200e44
 408:	00011f11 	0x11f11
 40c:	00000014 	0x14
 410:	00000264 	0x264
 414:	20000d0c 	addi	zero,zero,3340
 418:	00000038 	0x38
 41c:	44200e44 	0x44200e44
 420:	00011f11 	0x11f11
 424:	00000014 	0x14
 428:	00000264 	0x264
 42c:	20000d44 	addi	zero,zero,3396
 430:	00000038 	0x38
 434:	44200e44 	0x44200e44
 438:	00011f11 	0x11f11
 43c:	00000014 	0x14
 440:	00000264 	0x264
 444:	20000d7c 	addi	zero,zero,3452
 448:	00000038 	0x38
 44c:	44200e44 	0x44200e44
 450:	00011f11 	0x11f11
 454:	00000014 	0x14
 458:	00000264 	0x264
 45c:	20000db4 	addi	zero,zero,3508
 460:	0000003c 	0x3c
 464:	44200e44 	0x44200e44
 468:	00011f11 	0x11f11
 46c:	00000014 	0x14
 470:	00000264 	0x264
 474:	20000df0 	addi	zero,zero,3568
 478:	0000003c 	0x3c
 47c:	44200e44 	0x44200e44
 480:	00011f11 	0x11f11
 484:	00000014 	0x14
 488:	00000264 	0x264
 48c:	20000e2c 	addi	zero,zero,3628
 490:	00000038 	0x38
 494:	44200e44 	0x44200e44
 498:	00011f11 	0x11f11
 49c:	00000014 	0x14
 4a0:	00000264 	0x264
 4a4:	20000e64 	addi	zero,zero,3684
 4a8:	00000038 	0x38
 4ac:	44200e44 	0x44200e44
 4b0:	00011f11 	0x11f11
 4b4:	00000014 	0x14
 4b8:	00000264 	0x264
 4bc:	20000e9c 	addi	zero,zero,3740
 4c0:	0000003c 	0x3c
 4c4:	44200e44 	0x44200e44
 4c8:	00011f11 	0x11f11
 4cc:	00000014 	0x14
 4d0:	00000264 	0x264
 4d4:	20000ed8 	addi	zero,zero,3800
 4d8:	0000003c 	0x3c
 4dc:	44200e44 	0x44200e44
 4e0:	00011f11 	0x11f11
 4e4:	00000014 	0x14
 4e8:	00000264 	0x264
 4ec:	20000f14 	addi	zero,zero,3860
 4f0:	0000003c 	0x3c
 4f4:	44200e44 	0x44200e44
 4f8:	00011f11 	0x11f11
 4fc:	00000014 	0x14
 500:	00000264 	0x264
 504:	20000f50 	addi	zero,zero,3920
 508:	00000038 	0x38
 50c:	44200e44 	0x44200e44
 510:	00011f11 	0x11f11
 514:	00000014 	0x14
 518:	00000264 	0x264
 51c:	20000f88 	addi	zero,zero,3976
 520:	00000038 	0x38
 524:	44200e44 	0x44200e44
 528:	00011f11 	0x11f11
 52c:	00000014 	0x14
 530:	00000264 	0x264
 534:	20000fc0 	addi	zero,zero,4032
 538:	00000048 	0x48
 53c:	44200e44 	0x44200e44
 540:	00011f11 	0x11f11
 544:	00000014 	0x14
 548:	00000264 	0x264
 54c:	20001008 	addi	zero,zero,4104
 550:	00000048 	0x48
 554:	44200e44 	0x44200e44
 558:	00011f11 	0x11f11
 55c:	00000014 	0x14
 560:	00000264 	0x264
 564:	20001050 	addi	zero,zero,4176
 568:	00000034 	teq	zero,zero
 56c:	44200e44 	0x44200e44
 570:	00011f11 	0x11f11
 574:	00000014 	0x14
 578:	00000264 	0x264
 57c:	20001084 	addi	zero,zero,4228
 580:	00000048 	0x48
 584:	44200e44 	0x44200e44
 588:	00011f11 	0x11f11
 58c:	00000014 	0x14
 590:	00000264 	0x264
 594:	200010cc 	addi	zero,zero,4300
 598:	00000048 	0x48
 59c:	44200e44 	0x44200e44
 5a0:	00011f11 	0x11f11
 5a4:	00000014 	0x14
 5a8:	00000264 	0x264
 5ac:	20001114 	addi	zero,zero,4372
 5b0:	00000048 	0x48
 5b4:	44200e44 	0x44200e44
 5b8:	00011f11 	0x11f11
 5bc:	00000014 	0x14
 5c0:	00000264 	0x264
 5c4:	2000115c 	addi	zero,zero,4444
 5c8:	00000048 	0x48
 5cc:	44200e44 	0x44200e44
 5d0:	00011f11 	0x11f11
 5d4:	00000014 	0x14
 5d8:	00000264 	0x264
 5dc:	200011a4 	addi	zero,zero,4516
 5e0:	00000034 	teq	zero,zero
 5e4:	44200e44 	0x44200e44
 5e8:	00011f11 	0x11f11
 5ec:	0000000c 	syscall
 5f0:	ffffffff 	sdc3	$31,-1(ra)
 5f4:	7c010001 	0x7c010001
 5f8:	001d0c1f 	0x1d0c1f
 5fc:	00000014 	0x14
 600:	000005ec 	0x5ec
 604:	200011d8 	addi	zero,zero,4568
 608:	0000012c 	0x12c
 60c:	44200e44 	0x44200e44
 610:	00011f11 	0x11f11
 614:	00000014 	0x14
 618:	000005ec 	0x5ec
 61c:	20001304 	addi	zero,zero,4868
 620:	0000015c 	0x15c
 624:	44280e44 	0x44280e44
 628:	00011f11 	0x11f11
 62c:	00000014 	0x14
 630:	000005ec 	0x5ec
 634:	20001460 	addi	zero,zero,5216
 638:	00000134 	teq	zero,zero,0x4
 63c:	44200e44 	0x44200e44
 640:	00011f11 	0x11f11

Disassembly of section .debug_loc:

00000000 <.debug_loc>:
   0:	800008e8 	lb	zero,2280(zero)
   4:	800008ec 	lb	zero,2284(zero)
   8:	ec6d0001 	swc3	$13,1(v1)
   c:	e4800008 	swc1	$f0,8(a0)
  10:	02800009 	jalr	zero,s4
  14:	00108d00 	sll	s1,s0,0x14
  18:	00000000 	nop
  1c:	e4000000 	swc1	$f0,0(zero)
  20:	e8800009 	swc2	$0,9(a0)
  24:	01800009 	jalr	zero,t4
  28:	09e86d00 	j	7a1b400 <seg_stack_base+0x3a1b400>
  2c:	0a008000 	j	8020000 <seg_stack_base+0x4020000>
  30:	00028000 	sll	s0,v0,0x0
  34:	0000088d 	break	0x0,0x22
  38:	00000000 	nop
  3c:	0a000000 	j	8000000 <seg_stack_base+0x4000000>
  40:	0a048000 	j	8120000 <seg_stack_base+0x4120000>
  44:	00018000 	sll	s0,at,0x0
  48:	000a046d 	0xa046d
  4c:	000a1880 	sll	v1,t2,0x2
  50:	8d000280 	lw	zero,640(t0)
  54:	00000008 	jr	zero
  58:	00000000 	nop
  5c:	000a1800 	sll	v1,t2,0x0
  60:	000a1c80 	sll	v1,t2,0x12
  64:	6d000180 	0x6d000180
  68:	80000a1c 	lb	zero,2588(zero)
  6c:	80000a3c 	lb	zero,2620(zero)
  70:	088d0002 	j	2340008 <NB_PROCS+0x2340004>
  74:	00000000 	nop
  78:	00000000 	nop
  7c:	80000a3c 	lb	zero,2620(zero)
  80:	80000a40 	lb	zero,2624(zero)
  84:	406d0001 	0x406d0001
  88:	6080000a 	0x6080000a
  8c:	0280000a 	movz	zero,s4,zero
  90:	00088d00 	sll	s1,t0,0x14
  94:	00000000 	nop
  98:	60000000 	0x60000000
  9c:	6480000a 	0x6480000a
  a0:	0180000a 	movz	zero,t4,zero
  a4:	0a646d00 	j	991b400 <seg_stack_base+0x591b400>
  a8:	0ad08000 	j	b420000 <seg_stack_base+0x7420000>
  ac:	00028000 	sll	s0,v0,0x0
  b0:	0000088d 	break	0x0,0x22
  b4:	00000000 	nop
  b8:	0ad00000 	j	b400000 <seg_stack_base+0x7400000>
  bc:	0ad48000 	j	b520000 <seg_stack_base+0x7520000>
  c0:	00018000 	sll	s0,at,0x0
  c4:	000ad46d 	0xad46d
  c8:	000bdc80 	sll	k1,t3,0x12
  cc:	8d000280 	lw	zero,640(t0)
  d0:	00000010 	mfhi	zero
  d4:	00000000 	nop
  d8:	000bdc00 	sll	k1,t3,0x10
  dc:	000be080 	sll	gp,t3,0x2
  e0:	6d000180 	0x6d000180
  e4:	80000be0 	lb	zero,3040(zero)
  e8:	80000cb4 	lb	zero,3252(zero)
  ec:	188d0002 	0x188d0002
	...
  f8:	80000cb4 	lb	zero,3252(zero)
  fc:	80000cb8 	lb	zero,3256(zero)
 100:	b86d0001 	swr	t5,1(v1)
 104:	4080000c 	0x4080000c
 108:	0280000d 	break	0x280
 10c:	00088d00 	sll	s1,t0,0x14
 110:	00000000 	nop
 114:	40000000 	mfc0	zero,c0_index
 118:	4480000d 	0x4480000d
 11c:	0180000d 	break	0x180
 120:	0d446d00 	jal	511b400 <seg_stack_base+0x111b400>
 124:	0dd08000 	jal	7420000 <seg_stack_base+0x3420000>
 128:	00028000 	sll	s0,v0,0x0
 12c:	0000088d 	break	0x0,0x22
 130:	00000000 	nop
 134:	0dd00000 	jal	7400000 <seg_stack_base+0x3400000>
 138:	0dd48000 	jal	7520000 <seg_stack_base+0x3520000>
 13c:	00018000 	sll	s0,at,0x0
 140:	000dd46d 	0xdd46d
 144:	000f1880 	sll	v1,t7,0x2
 148:	8d000280 	lw	zero,640(t0)
 14c:	00000038 	0x38
 150:	00000000 	nop
 154:	000f1800 	sll	v1,t7,0x0
 158:	000f1c80 	sll	v1,t7,0x12
 15c:	6d000180 	0x6d000180
 160:	80000f1c 	lb	zero,3868(zero)
 164:	80001058 	lb	zero,4184(zero)
 168:	308d0002 	andi	t5,a0,0x2
	...
 174:	80001058 	lb	zero,4184(zero)
 178:	8000105c 	lb	zero,4188(zero)
 17c:	5c6d0001 	0x5c6d0001
 180:	80800010 	lb	zero,16(a0)
 184:	02800011 	mthi	s4
 188:	00308d00 	0x308d00
 18c:	00000000 	nop
 190:	80000000 	lb	zero,0(zero)
 194:	84800011 	lh	zero,17(a0)
 198:	01800011 	mthi	t4
 19c:	11846d00 	beq	t4,a0,1b5a0 <NB_PROCS+0x1b59c>
 1a0:	12408000 	beqz	s2,fffe01a4 <tab_main+0x403e010c>
 1a4:	00038000 	sll	s0,v1,0x0
 1a8:	0000c88d 	break	0x0,0x322
 1ac:	00000000 	nop
 1b0:	40000000 	mfc0	zero,c0_index
 1b4:	44800012 	0x44800012
 1b8:	01800012 	0x1800012
 1bc:	12446d00 	beq	s2,a0,1b5c0 <NB_PROCS+0x1b5bc>
 1c0:	12d88000 	beq	s6,t8,fffe01c4 <tab_main+0x403e012c>
 1c4:	00028000 	sll	s0,v0,0x0
 1c8:	0000208d 	break	0x0,0x82
 1cc:	00000000 	nop
 1d0:	12d80000 	beq	s6,t8,1d4 <NB_PROCS+0x1d0>
 1d4:	12dc8000 	beq	s6,gp,fffe01d8 <tab_main+0x403e0140>
 1d8:	00018000 	sll	s0,at,0x0
 1dc:	0012dc6d 	0x12dc6d
 1e0:	00137480 	sll	t6,s3,0x12
 1e4:	8d000280 	lw	zero,640(t0)
 1e8:	00000020 	add	zero,zero,zero
 1ec:	00000000 	nop
 1f0:	00137400 	sll	t6,s3,0x10
 1f4:	00137880 	sll	t7,s3,0x2
 1f8:	6d000180 	0x6d000180
 1fc:	80001378 	lb	zero,4984(zero)
 200:	800013d0 	lb	zero,5072(zero)
 204:	088d0002 	j	2340008 <NB_PROCS+0x2340004>
 208:	00000000 	nop
 20c:	00000000 	nop
 210:	800013d0 	lb	zero,5072(zero)
 214:	800013d4 	lb	zero,5076(zero)
 218:	d46d0001 	ldc1	$f13,1(v1)
 21c:	30800013 	andi	zero,a0,0x13
 220:	02800014 	0x2800014
 224:	00088d00 	sll	s1,t0,0x14
 228:	00000000 	nop
 22c:	30000000 	andi	zero,zero,0x0
 230:	34800014 	ori	zero,a0,0x14
 234:	01800014 	0x1800014
 238:	14346d00 	bne	at,s4,1b63c <NB_PROCS+0x1b638>
 23c:	14948000 	bne	a0,s4,fffe0240 <tab_main+0x403e01a8>
 240:	00028000 	sll	s0,v0,0x0
 244:	0000088d 	break	0x0,0x22
 248:	00000000 	nop
 24c:	14940000 	bne	a0,s4,250 <NB_PROCS+0x24c>
 250:	14988000 	bne	a0,t8,fffe0254 <tab_main+0x403e01bc>
 254:	00018000 	sll	s0,at,0x0
 258:	0014986d 	0x14986d
 25c:	00154480 	sll	t0,s5,0x12
 260:	8d000280 	lw	zero,640(t0)
 264:	00000028 	0x28
 268:	00000000 	nop
 26c:	00154400 	sll	t0,s5,0x10
 270:	00154880 	sll	t1,s5,0x2
 274:	6d000180 	0x6d000180
 278:	80001548 	lb	zero,5448(zero)
 27c:	80001670 	lb	zero,5744(zero)
 280:	288d0002 	slti	t5,a0,2
	...
 28c:	80001670 	lb	zero,5744(zero)
 290:	80001674 	lb	zero,5748(zero)
 294:	746d0001 	jalx	1b40004 <NB_PROCS+0x1b40000>
 298:	b4800016 	0xb4800016
 29c:	02800017 	0x2800017
 2a0:	00288d00 	0x288d00
 2a4:	00000000 	nop
 2a8:	10000000 	b	2ac <NB_PROCS+0x2a8>
 2ac:	14800018 	bnez	a0,310 <NB_PROCS+0x30c>
 2b0:	01800018 	mult	t4,zero
 2b4:	18146d00 	0x18146d00
 2b8:	18d08000 	0x18d08000
 2bc:	00028000 	sll	s0,v0,0x0
 2c0:	0000108d 	break	0x0,0x42
 2c4:	00000000 	nop
 2c8:	18d00000 	0x18d00000
 2cc:	18d48000 	0x18d48000
 2d0:	00018000 	sll	s0,at,0x0
 2d4:	0018d46d 	0x18d46d
 2d8:	00199880 	sll	s3,t9,0x2
 2dc:	8d000280 	lw	zero,640(t0)
 2e0:	00000010 	mfhi	zero
 2e4:	00000000 	nop
 2e8:	00199800 	sll	s3,t9,0x0
 2ec:	00199c80 	sll	s3,t9,0x12
 2f0:	6d000180 	0x6d000180
 2f4:	8000199c 	lb	zero,6556(zero)
 2f8:	80001aac 	lb	zero,6828(zero)
 2fc:	288d0002 	slti	t5,a0,2
	...
 308:	80001aac 	lb	zero,6828(zero)
 30c:	80001ab0 	lb	zero,6832(zero)
 310:	b06d0001 	0xb06d0001
 314:	cc80001a 	pref	0x0,26(a0)
 318:	0280001b 	divu	zero,s4,zero
 31c:	00288d00 	0x288d00
	...
 328:	04000000 	bltz	zero,32c <NB_PROCS+0x328>
 32c:	01000000 	0x1000000
 330:	00046d00 	sll	t5,a0,0x14
 334:	003c0000 	0x3c0000
 338:	00020000 	sll	zero,v0,0x0
 33c:	0000088d 	break	0x0,0x22
 340:	00000000 	nop
 344:	003c0000 	0x3c0000
 348:	00400000 	0x400000
 34c:	00010000 	sll	zero,at,0x0
 350:	0000406d 	0x406d
 354:	00007000 	sll	t6,zero,0x0
 358:	8d000200 	lw	zero,512(t0)
 35c:	00000020 	add	zero,zero,zero
 360:	00000000 	nop
 364:	00007000 	sll	t6,zero,0x0
 368:	00007400 	sll	t6,zero,0x10
 36c:	6d000100 	0x6d000100
 370:	00000074 	teq	zero,zero,0x1
 374:	000000a4 	0xa4
 378:	208d0002 	addi	t5,a0,2
	...
 384:	000000a4 	0xa4
 388:	000000a8 	0xa8
 38c:	a86d0001 	swl	t5,1(v1)
 390:	e4000000 	swc1	$f0,0(zero)
 394:	02000000 	0x2000000
 398:	00288d00 	0x288d00
 39c:	00000000 	nop
 3a0:	e4000000 	swc1	$f0,0(zero)
 3a4:	e8000000 	swc2	$0,0(zero)
 3a8:	01000000 	0x1000000
 3ac:	00e86d00 	0xe86d00
 3b0:	01600000 	0x1600000
 3b4:	00020000 	sll	zero,v0,0x0
 3b8:	0000288d 	break	0x0,0xa2
 3bc:	00000000 	nop
 3c0:	01600000 	0x1600000
 3c4:	01640000 	0x1640000
 3c8:	00010000 	sll	zero,at,0x0
 3cc:	0001646d 	0x1646d
 3d0:	0001a000 	sll	s4,at,0x0
 3d4:	8d000200 	lw	zero,512(t0)
 3d8:	00000020 	add	zero,zero,zero
 3dc:	00000000 	nop
 3e0:	0001a000 	sll	s4,at,0x0
 3e4:	0001a400 	sll	s4,at,0x10
 3e8:	6d000100 	0x6d000100
 3ec:	000001a4 	0x1a4
 3f0:	0000020c 	syscall	0x8
 3f4:	288d0002 	slti	t5,a0,2
	...
 400:	0000020c 	syscall	0x8
 404:	00000210 	0x210
 408:	106d0001 	beq	v1,t5,410 <NB_PROCS+0x40c>
 40c:	f4000002 	sdc1	$f0,2(zero)
 410:	02000002 	0x2000002
 414:	00308d00 	0x308d00
 418:	00000000 	nop
 41c:	f4000000 	sdc1	$f0,0(zero)
 420:	f8000002 	sdc2	$0,2(zero)
 424:	01000002 	0x1000002
 428:	02f86d00 	0x2f86d00
 42c:	03780000 	0x3780000
 430:	00020000 	sll	zero,v0,0x0
 434:	0000288d 	break	0x0,0xa2
 438:	00000000 	nop
 43c:	03780000 	0x3780000
 440:	037c0000 	0x37c0000
 444:	00010000 	sll	zero,at,0x0
 448:	00037c6d 	0x37c6d
 44c:	0003fc00 	sll	ra,v1,0x10
 450:	8d000200 	lw	zero,512(t0)
 454:	00000028 	0x28
 458:	00000000 	nop
 45c:	0003fc00 	sll	ra,v1,0x10
 460:	00040000 	sll	zero,a0,0x0
 464:	6d000100 	0x6d000100
 468:	00000400 	sll	zero,zero,0x10
 46c:	00000528 	0x528
 470:	308d0002 	andi	t5,a0,0x2
	...
 47c:	00000528 	0x528
 480:	0000052c 	0x52c
 484:	2c6d0001 	sltiu	t5,v1,1
 488:	28000005 	slti	zero,zero,5
 48c:	03000008 	jr	t8
 490:	00e08d00 	0xe08d00
	...
 49c:	00000828 	0x828
 4a0:	0000082c 	0x82c
 4a4:	2c6d0001 	sltiu	t5,v1,1
 4a8:	1c000008 	bgtz	zero,4cc <NB_PROCS+0x4c8>
 4ac:	0300000c 	syscall	0xc0000
 4b0:	00d08d00 	0xd08d00
	...
 4bc:	00000c1c 	0xc1c
 4c0:	00000c20 	0xc20
 4c4:	206d0001 	addi	t5,v1,1
 4c8:	5800000c 	blezl	zero,4fc <NB_PROCS+0x4f8>
 4cc:	0200000c 	syscall	0x80000
 4d0:	00208d00 	0x208d00
 4d4:	00000000 	nop
 4d8:	58000000 	blezl	zero,4dc <NB_PROCS+0x4d8>
 4dc:	5c00000c 	bgtzl	zero,510 <NB_PROCS+0x50c>
 4e0:	0100000c 	syscall	0x40000
 4e4:	0c5c6d00 	jal	171b400 <NB_PROCS+0x171b3fc>
 4e8:	0c940000 	jal	2500000 <NB_PROCS+0x24ffffc>
 4ec:	00020000 	sll	zero,v0,0x0
 4f0:	0000208d 	break	0x0,0x82
 4f4:	00000000 	nop
 4f8:	0c940000 	jal	2500000 <NB_PROCS+0x24ffffc>
 4fc:	0c980000 	jal	2600000 <NB_PROCS+0x25ffffc>
 500:	00010000 	sll	zero,at,0x0
 504:	000c986d 	0xc986d
 508:	000ccc00 	sll	t9,t4,0x10
 50c:	8d000200 	lw	zero,512(t0)
 510:	00000020 	add	zero,zero,zero
 514:	00000000 	nop
 518:	000ccc00 	sll	t9,t4,0x10
 51c:	000cd000 	sll	k0,t4,0x0
 520:	6d000100 	0x6d000100
 524:	00000cd0 	0xcd0
 528:	00000d0c 	syscall	0x34
 52c:	208d0002 	addi	t5,a0,2
	...
 538:	00000d0c 	syscall	0x34
 53c:	00000d10 	0xd10
 540:	106d0001 	beq	v1,t5,548 <NB_PROCS+0x544>
 544:	4400000d 	0x4400000d
 548:	0200000d 	break	0x200
 54c:	00208d00 	0x208d00
 550:	00000000 	nop
 554:	44000000 	mfc1	zero,$f0
 558:	4800000d 	0x4800000d
 55c:	0100000d 	break	0x100
 560:	0d486d00 	jal	521b400 <seg_stack_base+0x121b400>
 564:	0d7c0000 	jal	5f00000 <seg_stack_base+0x1f00000>
 568:	00020000 	sll	zero,v0,0x0
 56c:	0000208d 	break	0x0,0x82
 570:	00000000 	nop
 574:	0d7c0000 	jal	5f00000 <seg_stack_base+0x1f00000>
 578:	0d800000 	jal	6000000 <seg_stack_base+0x2000000>
 57c:	00010000 	sll	zero,at,0x0
 580:	000d806d 	0xd806d
 584:	000db400 	sll	s6,t5,0x10
 588:	8d000200 	lw	zero,512(t0)
 58c:	00000020 	add	zero,zero,zero
 590:	00000000 	nop
 594:	000db400 	sll	s6,t5,0x10
 598:	000db800 	sll	s7,t5,0x0
 59c:	6d000100 	0x6d000100
 5a0:	00000db8 	0xdb8
 5a4:	00000df0 	tge	zero,zero,0x37
 5a8:	208d0002 	addi	t5,a0,2
	...
 5b4:	00000df0 	tge	zero,zero,0x37
 5b8:	00000df4 	teq	zero,zero,0x37
 5bc:	f46d0001 	sdc1	$f13,1(v1)
 5c0:	2c00000d 	sltiu	zero,zero,13
 5c4:	0200000e 	0x200000e
 5c8:	00208d00 	0x208d00
 5cc:	00000000 	nop
 5d0:	2c000000 	sltiu	zero,zero,0
 5d4:	3000000e 	andi	zero,zero,0xe
 5d8:	0100000e 	0x100000e
 5dc:	0e306d00 	jal	8c1b400 <seg_stack_base+0x4c1b400>
 5e0:	0e640000 	jal	9900000 <seg_stack_base+0x5900000>
 5e4:	00020000 	sll	zero,v0,0x0
 5e8:	0000208d 	break	0x0,0x82
 5ec:	00000000 	nop
 5f0:	0e640000 	jal	9900000 <seg_stack_base+0x5900000>
 5f4:	0e680000 	jal	9a00000 <seg_stack_base+0x5a00000>
 5f8:	00010000 	sll	zero,at,0x0
 5fc:	000e686d 	0xe686d
 600:	000e9c00 	sll	s3,t6,0x10
 604:	8d000200 	lw	zero,512(t0)
 608:	00000020 	add	zero,zero,zero
 60c:	00000000 	nop
 610:	000e9c00 	sll	s3,t6,0x10
 614:	000ea000 	sll	s4,t6,0x0
 618:	6d000100 	0x6d000100
 61c:	00000ea0 	0xea0
 620:	00000ed8 	0xed8
 624:	208d0002 	addi	t5,a0,2
	...
 630:	00000ed8 	0xed8
 634:	00000edc 	0xedc
 638:	dc6d0001 	ldc3	$13,1(v1)
 63c:	1400000e 	bnez	zero,678 <NB_PROCS+0x674>
 640:	0200000f 	0x200000f
 644:	00208d00 	0x208d00
 648:	00000000 	nop
 64c:	14000000 	bnez	zero,650 <NB_PROCS+0x64c>
 650:	1800000f 	blez	zero,690 <NB_PROCS+0x68c>
 654:	0100000f 	0x100000f
 658:	0f186d00 	jal	c61b400 <seg_stack_base+0x861b400>
 65c:	0f500000 	jal	d400000 <seg_stack_base+0x9400000>
 660:	00020000 	sll	zero,v0,0x0
 664:	0000208d 	break	0x0,0x82
 668:	00000000 	nop
 66c:	0f500000 	jal	d400000 <seg_stack_base+0x9400000>
 670:	0f540000 	jal	d500000 <seg_stack_base+0x9500000>
 674:	00010000 	sll	zero,at,0x0
 678:	000f546d 	0xf546d
 67c:	000f8800 	sll	s1,t7,0x0
 680:	8d000200 	lw	zero,512(t0)
 684:	00000020 	add	zero,zero,zero
 688:	00000000 	nop
 68c:	000f8800 	sll	s1,t7,0x0
 690:	000f8c00 	sll	s1,t7,0x10
 694:	6d000100 	0x6d000100
 698:	00000f8c 	syscall	0x3e
 69c:	00000fc0 	sll	at,zero,0x1f
 6a0:	208d0002 	addi	t5,a0,2
	...
 6ac:	00000fc0 	sll	at,zero,0x1f
 6b0:	00000fc4 	0xfc4
 6b4:	c46d0001 	lwc1	$f13,1(v1)
 6b8:	0800000f 	j	3c <NB_PROCS+0x38>
 6bc:	02000010 	0x2000010
 6c0:	00208d00 	0x208d00
 6c4:	00000000 	nop
 6c8:	08000000 	j	0 <NB_LOCKS>
 6cc:	0c000010 	jal	40 <NB_PROCS+0x3c>
 6d0:	01000010 	0x1000010
 6d4:	100c6d00 	beq	zero,t4,1bad8 <NB_PROCS+0x1bad4>
 6d8:	10500000 	beq	v0,s0,6dc <NB_PROCS+0x6d8>
 6dc:	00020000 	sll	zero,v0,0x0
 6e0:	0000208d 	break	0x0,0x82
 6e4:	00000000 	nop
 6e8:	10500000 	beq	v0,s0,6ec <NB_PROCS+0x6e8>
 6ec:	10540000 	beq	v0,s4,6f0 <NB_PROCS+0x6ec>
 6f0:	00010000 	sll	zero,at,0x0
 6f4:	0010546d 	0x10546d
 6f8:	00108400 	sll	s0,s0,0x10
 6fc:	8d000200 	lw	zero,512(t0)
 700:	00000020 	add	zero,zero,zero
 704:	00000000 	nop
 708:	00108400 	sll	s0,s0,0x10
 70c:	00108800 	sll	s1,s0,0x0
 710:	6d000100 	0x6d000100
 714:	00001088 	0x1088
 718:	000010cc 	syscall	0x43
 71c:	208d0002 	addi	t5,a0,2
	...
 728:	000010cc 	syscall	0x43
 72c:	000010d0 	0x10d0
 730:	d06d0001 	0xd06d0001
 734:	14000010 	bnez	zero,778 <NB_PROCS+0x774>
 738:	02000011 	mthi	s0
 73c:	00208d00 	0x208d00
 740:	00000000 	nop
 744:	14000000 	bnez	zero,748 <NB_PROCS+0x744>
 748:	18000011 	blez	zero,790 <NB_PROCS+0x78c>
 74c:	01000011 	mthi	t0
 750:	11186d00 	beq	t0,t8,1bb54 <NB_PROCS+0x1bb50>
 754:	115c0000 	beq	t2,gp,758 <NB_PROCS+0x754>
 758:	00020000 	sll	zero,v0,0x0
 75c:	0000208d 	break	0x0,0x82
 760:	00000000 	nop
 764:	115c0000 	beq	t2,gp,768 <NB_PROCS+0x764>
 768:	11600000 	beqz	t3,76c <NB_PROCS+0x768>
 76c:	00010000 	sll	zero,at,0x0
 770:	0011606d 	0x11606d
 774:	0011a400 	sll	s4,s1,0x10
 778:	8d000200 	lw	zero,512(t0)
 77c:	00000020 	add	zero,zero,zero
 780:	00000000 	nop
 784:	0011a400 	sll	s4,s1,0x10
 788:	0011a800 	sll	s5,s1,0x0
 78c:	6d000100 	0x6d000100
 790:	000011a8 	0x11a8
 794:	000011d8 	0x11d8
 798:	208d0002 	addi	t5,a0,2
	...
 7a8:	00000004 	sllv	zero,zero,zero
 7ac:	046d0001 	0x46d0001
 7b0:	2c000000 	sltiu	zero,zero,0
 7b4:	02000001 	movf	zero,s0,$fcc0
 7b8:	00208d00 	0x208d00
 7bc:	00000000 	nop
 7c0:	2c000000 	sltiu	zero,zero,0
 7c4:	30000001 	andi	zero,zero,0x1
 7c8:	01000001 	movf	zero,t0,$fcc0
 7cc:	01306d00 	0x1306d00
 7d0:	02880000 	0x2880000
 7d4:	00020000 	sll	zero,v0,0x0
 7d8:	0000288d 	break	0x0,0xa2
 7dc:	00000000 	nop
 7e0:	02880000 	0x2880000
 7e4:	028c0000 	0x28c0000
 7e8:	00010000 	sll	zero,at,0x0
 7ec:	00028c6d 	0x28c6d
 7f0:	0003bc00 	sll	s7,v1,0x10
 7f4:	8d000200 	lw	zero,512(t0)
 7f8:	00000020 	add	zero,zero,zero
 7fc:	00000000 	nop
	...

Disassembly of section .debug_pubnames:

00000000 <.debug_pubnames>:
   0:	00000234 	teq	zero,zero,0x8
   4:	00000002 	srl	zero,zero,0x0
   8:	0d4b0000 	jal	52c0000 <seg_stack_base+0x12c0000>
   c:	01eb0000 	0x1eb0000
  10:	705f0000 	madd	v0,ra
  14:	69636f72 	0x69636f72
  18:	021d0064 	0x21d0064
  1c:	705f0000 	madd	v0,ra
  20:	74636f72 	jalx	18dbdc8 <NB_PROCS+0x18dbdc4>
  24:	00656d69 	0x656d69
  28:	00000248 	0x248
  2c:	5f74695f 	0x5f74695f
  30:	6b73616d 	0x6b73616d
  34:	00026f00 	sll	t5,v0,0x1c
  38:	74695f00 	jalx	1a57c00 <NB_PROCS+0x1a57bfc>
  3c:	616e655f 	0x616e655f
  40:	00656c62 	0x656c62
  44:	00000296 	0x296
  48:	6163645f 	0x6163645f
  4c:	5f656863 	0x5f656863
  50:	5f667562 	0x5f667562
  54:	61766e69 	0x61766e69
  58:	6164696c 	0x6164696c
  5c:	e6006574 	swc1	$f0,25972(s0)
  60:	5f000002 	bgtzl	t8,6c <NB_PROCS+0x68>
  64:	616f7469 	0x616f7469
  68:	6365645f 	0x6365645f
  6c:	00035b00 	sll	t3,v1,0xc
  70:	74695f00 	jalx	1a57c00 <NB_PROCS+0x1a57bfc>
  74:	685f616f 	0x685f616f
  78:	c0007865 	ll	zero,30821(zero)
  7c:	5f000003 	bgtzl	t8,8c <NB_PROCS+0x88>
  80:	656d6974 	0x656d6974
  84:	72775f72 	0x72775f72
  88:	00657469 	0x657469
  8c:	0000042f 	0x42f
  90:	6d69745f 	0x6d69745f
  94:	725f7265 	0x725f7265
  98:	00646165 	0x646165
  9c:	00000499 	0x499
  a0:	7974745f 	0x7974745f
  a4:	6972775f 	0x6972775f
  a8:	35006574 	ori	zero,t0,0x6574
  ac:	5f000005 	bgtzl	t8,c4 <NB_PROCS+0xc0>
  b0:	5f797474 	0x5f797474
  b4:	64616572 	0x64616572
  b8:	7172695f 	0x7172695f
  bc:	0005bd00 	sll	s7,a1,0x14
  c0:	74745f00 	jalx	1d17c00 <NB_PROCS+0x1d17bfc>
  c4:	65725f79 	0x65725f79
  c8:	45006461 	bc1f	19250 <NB_PROCS+0x1924c>
  cc:	5f000006 	bgtzl	t8,e8 <NB_PROCS+0xe4>
  d0:	74697865 	jalx	1a5e194 <NB_PROCS+0x1a5e190>
  d4:	00069100 	sll	s2,a2,0x4
  d8:	63695f00 	0x63695f00
  dc:	72775f75 	0x72775f75
  e0:	00657469 	0x657469
  e4:	000006ec 	0x6ec
  e8:	7563695f 	jalx	58da57c <seg_stack_base+0x18da57c>
  ec:	6165725f 	0x6165725f
  f0:	07470064 	0x7470064
  f4:	675f0000 	0x675f0000
  f8:	775f6463 	jalx	d7d918c <seg_stack_base+0x97d918c>
  fc:	65746972 	0x65746972
 100:	00079300 	sll	s2,a3,0xc
 104:	63675f00 	0x63675f00
 108:	65725f64 	0x65725f64
 10c:	df006461 	ldc3	$0,25697(t8)
 110:	5f000007 	bgtzl	t8,130 <NB_PROCS+0x12c>
 114:	6b636f6c 	0x6b636f6c
 118:	72775f73 	0x72775f73
 11c:	00657469 	0x657469
 120:	0000082b 	sltu	at,zero,zero
 124:	636f6c5f 	0x636f6c5f
 128:	725f736b 	0x725f736b
 12c:	00646165 	0x646165
 130:	00000893 	0x893
 134:	636f695f 	0x636f695f
 138:	6972775f 	0x6972775f
 13c:	19006574 	blez	t0,19710 <NB_PROCS+0x1970c>
 140:	5f000009 	bgtzl	t8,168 <NB_PROCS+0x164>
 144:	5f636f69 	0x5f636f69
 148:	64616572 	0x64616572
 14c:	00099f00 	sll	s3,t1,0x1c
 150:	6f695f00 	0x6f695f00
 154:	6f635f63 	0x6f635f63
 158:	656c706d 	0x656c706d
 15c:	00646574 	teq	v1,a0,0x195
 160:	000009b6 	tne	zero,zero,0x26
 164:	5f62665f 	0x5f62665f
 168:	636e7973 	0x636e7973
 16c:	6972775f 	0x6972775f
 170:	36006574 	ori	zero,s0,0x6574
 174:	5f00000a 	bgtzl	t8,1a0 <NB_PROCS+0x19c>
 178:	735f6266 	0x735f6266
 17c:	5f636e79 	0x5f636e79
 180:	64616572 	0x64616572
 184:	000aab00 	sll	s5,t2,0xc
 188:	62665f00 	0x62665f00
 18c:	6972775f 	0x6972775f
 190:	30006574 	andi	zero,zero,0x6574
 194:	5f00000b 	bgtzl	t8,1c4 <NB_PROCS+0x1c0>
 198:	725f6266 	0x725f6266
 19c:	00646165 	0x646165
 1a0:	00000bb5 	0xbb5
 1a4:	5f62665f 	0x5f62665f
 1a8:	706d6f63 	0x706d6f63
 1ac:	6574656c 	0x6574656c
 1b0:	0c860064 	jal	2180190 <NB_PROCS+0x218018c>
 1b4:	645f0000 	0x645f0000
 1b8:	625f616d 	0x625f616d
 1bc:	00797375 	0x797375
 1c0:	00000c98 	0xc98
 1c4:	616d645f 	0x616d645f
 1c8:	6174735f 	0x6174735f
 1cc:	00737574 	teq	v1,s3,0x1d5
 1d0:	00000caa 	0xcaa
 1d4:	636f695f 	0x636f695f
 1d8:	7375625f 	0x7375625f
 1dc:	0cbc0079 	jal	2f001e4 <NB_PROCS+0x2f001e0>
 1e0:	695f0000 	0x695f0000
 1e4:	735f636f 	0x735f636f
 1e8:	75746174 	jalx	5d185d0 <seg_stack_base+0x1d185d0>
 1ec:	0cde0073 	jal	37801cc <NB_PROCS+0x37801c8>
 1f0:	745f0000 	jalx	17c0000 <NB_PROCS+0x17bfffc>
 1f4:	675f7974 	0x675f7974
 1f8:	625f7465 	0x625f7465
 1fc:	05006675 	bltz	t0,19bd4 <NB_PROCS+0x19bd0>
 200:	5f00000d 	bgtzl	t8,238 <NB_PROCS+0x234>
 204:	5f797474 	0x5f797474
 208:	5f746567 	0x5f746567
 20c:	6c6c7566 	0x6c6c7566
 210:	000d1c00 	sll	v1,t5,0x10
 214:	74745f00 	jalx	1d17c00 <NB_PROCS+0x1d17bfc>
 218:	75705f79 	jalx	5c17de4 <seg_stack_base+0x1c17de4>
 21c:	75625f74 	jalx	5897dd0 <seg_stack_base+0x1897dd0>
 220:	0d330066 	jal	4cc0198 <seg_stack_base+0xcc0198>
 224:	745f0000 	jalx	17c0000 <NB_PROCS+0x17bfffc>
 228:	705f7974 	0x705f7974
 22c:	665f7475 	0x665f7475
 230:	006c6c75 	0x6c6c75
 234:	00000000 	nop
 238:	00000252 	0x252
 23c:	0d4b0002 	jal	52c0008 <seg_stack_base+0x12c0008>
 240:	0a8f0000 	j	a3c0000 <seg_stack_base+0x63c0000>
 244:	00d00000 	0xd00000
 248:	79730000 	0x79730000
 24c:	61635f73 	0x61635f73
 250:	7c006c6c 	0x7c006c6c
 254:	70000001 	maddu	zero,zero
 258:	69636f72 	0x69636f72
 25c:	01940064 	0x1940064
 260:	72700000 	madd	s3,s0
 264:	6974636f 	0x6974636f
 268:	ac00656d 	sw	zero,25965(zero)
 26c:	65000001 	0x65000001
 270:	00746978 	0x746978
 274:	000001d7 	0x1d7
 278:	646e6172 	0x646e6172
 27c:	00020000 	sll	zero,v0,0x0
 280:	79747400 	0x79747400
 284:	7475705f 	jalx	1d5c17c <NB_PROCS+0x1d5c178>
 288:	02330063 	0x2330063
 28c:	74740000 	jalx	1d00000 <NB_PROCS+0x1cffffc>
 290:	75705f79 	jalx	5c17de4 <seg_stack_base+0x1c17de4>
 294:	73007374 	0x73007374
 298:	74000002 	jalx	8 <NB_PROCS+0x4>
 29c:	705f7974 	0x705f7974
 2a0:	00777475 	0x777475
 2a4:	000002cc 	syscall	0xb
 2a8:	5f797474 	0x5f797474
 2ac:	63746567 	0x63746567
 2b0:	00030600 	sll	zero,v1,0x18
 2b4:	79747400 	0x79747400
 2b8:	7465675f 	jalx	1959d7c <NB_PROCS+0x1959d78>
 2bc:	72695f63 	0x72695f63
 2c0:	03400071 	tgeu	k0,zero,0x1
 2c4:	74740000 	jalx	1d00000 <NB_PROCS+0x1cffffc>
 2c8:	65675f79 	0x65675f79
 2cc:	695f7374 	0x695f7374
 2d0:	ab007172 	swl	zero,29042(t8)
 2d4:	74000003 	jalx	c <NB_PROCS+0x8>
 2d8:	675f7974 	0x675f7974
 2dc:	5f777465 	0x5f777465
 2e0:	00717269 	0x717269
 2e4:	00000476 	tne	zero,zero,0x11
 2e8:	5f797474 	0x5f797474
 2ec:	6e697270 	0x6e697270
 2f0:	85006674 	lh	zero,26228(t0)
 2f4:	74000005 	jalx	14 <NB_PROCS+0x10>
 2f8:	72656d69 	0x72656d69
 2fc:	7465735f 	jalx	195cd7c <NB_PROCS+0x195cd78>
 300:	646f6d5f 	0x646f6d5f
 304:	05c20065 	bltzl	t6,49c <NB_PROCS+0x498>
 308:	69740000 	0x69740000
 30c:	5f72656d 	0x5f72656d
 310:	5f746573 	0x5f746573
 314:	69726570 	0x69726570
 318:	ff00646f 	sdc3	$0,25711(t8)
 31c:	74000005 	jalx	14 <NB_PROCS+0x10>
 320:	72656d69 	0x72656d69
 324:	7365725f 	0x7365725f
 328:	695f7465 	0x695f7465
 32c:	2d007172 	sltiu	zero,t0,29042
 330:	74000006 	jalx	18 <NB_PROCS+0x14>
 334:	72656d69 	0x72656d69
 338:	7465675f 	jalx	1959d7c <NB_PROCS+0x1959d78>
 33c:	6d69745f 	0x6d69745f
 340:	066a0065 	tlti	s3,101
 344:	63670000 	0x63670000
 348:	65735f64 	0x65735f64
 34c:	706f5f74 	0x706f5f74
 350:	06980061 	0x6980061
 354:	63670000 	0x63670000
 358:	65735f64 	0x65735f64
 35c:	706f5f74 	0x706f5f74
 360:	06c60062 	0x6c60062
 364:	63670000 	0x63670000
 368:	74735f64 	jalx	1cd7d90 <NB_PROCS+0x1cd7d8c>
 36c:	00747261 	0x747261
 370:	000006f4 	teq	zero,zero,0x1b
 374:	5f646367 	0x5f646367
 378:	5f746567 	0x5f746567
 37c:	74617473 	jalx	185d1cc <NB_PROCS+0x185d1c8>
 380:	22007375 	addi	zero,s0,29557
 384:	67000007 	0x67000007
 388:	675f6463 	0x675f6463
 38c:	725f7465 	0x725f7465
 390:	6c757365 	0x6c757365
 394:	07500074 	bltzal	k0,568 <NB_PROCS+0x564>
 398:	63690000 	0x63690000
 39c:	65735f75 	0x65735f75
 3a0:	616d5f74 	0x616d5f74
 3a4:	7e006b73 	0x7e006b73
 3a8:	69000007 	0x69000007
 3ac:	635f7563 	0x635f7563
 3b0:	7261656c 	0x7261656c
 3b4:	73616d5f 	0x73616d5f
 3b8:	07ac006b 	teqi	sp,107
 3bc:	63690000 	0x63690000
 3c0:	65675f75 	0x65675f75
 3c4:	616d5f74 	0x616d5f74
 3c8:	da006b73 	ldc2	$0,27507(s0)
 3cc:	69000007 	0x69000007
 3d0:	675f7563 	0x675f7563
 3d4:	695f7465 	0x695f7465
 3d8:	00737172 	tlt	v1,s3,0x1c5
 3dc:	00000808 	0x808
 3e0:	5f756369 	0x5f756369
 3e4:	5f746567 	0x5f746567
 3e8:	65646e69 	0x65646e69
 3ec:	08360078 	j	d801e0 <NB_PROCS+0xd801dc>
 3f0:	6f6c0000 	0x6f6c0000
 3f4:	615f6b63 	0x615f6b63
 3f8:	69757163 	0x69757163
 3fc:	64006572 	0x64006572
 400:	6c000008 	0x6c000008
 404:	5f6b636f 	0x5f6b636f
 408:	656c6572 	0x656c6572
 40c:	00657361 	0x657361
 410:	00000892 	0x892
 414:	5f636f69 	0x5f636f69
 418:	74697277 	jalx	1a5c9dc <NB_PROCS+0x1a5c9d8>
 41c:	08e00065 	j	3800194 <NB_PROCS+0x3800190>
 420:	6f690000 	0x6f690000
 424:	65725f63 	0x65725f63
 428:	2c006461 	sltiu	zero,zero,25697
 42c:	69000009 	0x69000009
 430:	635f636f 	0x635f636f
 434:	6c706d6f 	0x6c706d6f
 438:	64657465 	0x64657465
 43c:	00094500 	sll	t0,t1,0x14
 440:	5f626600 	0x5f626600
 444:	636e7973 	0x636e7973
 448:	6972775f 	0x6972775f
 44c:	91006574 	lbu	zero,25972(t0)
 450:	66000009 	0x66000009
 454:	79735f62 	0x79735f62
 458:	725f636e 	0x725f636e
 45c:	00646165 	0x646165
 460:	000009dd 	0x9dd
 464:	775f6266 	jalx	d7d8998 <seg_stack_base+0x97d8998>
 468:	65746972 	0x65746972
 46c:	000a2900 	sll	a1,t2,0x4
 470:	5f626600 	0x5f626600
 474:	64616572 	0x64616572
 478:	000a7500 	sll	t6,t2,0x14
 47c:	5f626600 	0x5f626600
 480:	706d6f63 	0x706d6f63
 484:	6574656c 	0x6574656c
 488:	00000064 	0x64
 48c:	006b0000 	0x6b0000
 490:	00020000 	sll	zero,v0,0x0
 494:	000017da 	0x17da
 498:	0000012e 	0x12e
 49c:	0000002c 	0x2c
 4a0:	64616f6c 	0x64616f6c
 4a4:	00005a00 	sll	t3,zero,0x8
 4a8:	61727400 	0x61727400
 4ac:	6f70736e 	0x6f70736e
 4b0:	99006573 	lwr	zero,25971(t0)
 4b4:	64000000 	0x64000000
 4b8:	6c707369 	0x6c707369
 4bc:	c0007961 	ll	zero,31073(zero)
 4c0:	62000000 	0x62000000
 4c4:	695f6675 	0x695f6675
 4c8:	6d655f6e 	0x6d655f6e
 4cc:	00797470 	tge	v1,t9,0x1d1
 4d0:	000000d7 	0xd7
 4d4:	5f667562 	0x5f667562
 4d8:	5f74756f 	0x5f74756f
 4dc:	74706d65 	jalx	1c1b594 <NB_PROCS+0x1c1b590>
 4e0:	01090079 	0x1090079
 4e4:	75620000 	jalx	5880000 <seg_stack_base+0x1880000>
 4e8:	756f5f66 	jalx	5bd7d98 <seg_stack_base+0x1bd7d98>
 4ec:	011b0074 	teq	t0,k1,0x1
 4f0:	75620000 	jalx	5880000 <seg_stack_base+0x1880000>
 4f4:	6e695f66 	0x6e695f66
 4f8:	00000000 	nop
	...

Disassembly of section .debug_aranges:

00000000 <.debug_aranges>:
   0:	000000f4 	teq	zero,zero,0x3
   4:	00000002 	srl	zero,zero,0x0
   8:	00040000 	sll	zero,a0,0x0
   c:	00000000 	nop
  10:	800008e8 	lb	zero,2280(zero)
  14:	000000fc 	0xfc
  18:	800009e4 	lb	zero,2532(zero)
  1c:	0000001c 	0x1c
  20:	80000a00 	lb	zero,2560(zero)
  24:	00000018 	mult	zero,zero
  28:	80000a18 	lb	zero,2584(zero)
  2c:	00000024 	and	zero,zero,zero
  30:	80000a3c 	lb	zero,2620(zero)
  34:	00000024 	and	zero,zero,zero
  38:	80000a60 	lb	zero,2656(zero)
  3c:	00000070 	tge	zero,zero,0x1
  40:	80000ad0 	lb	zero,2768(zero)
  44:	0000010c 	syscall	0x4
  48:	80000bdc 	lb	zero,3036(zero)
  4c:	000000d8 	0xd8
  50:	80000cb4 	lb	zero,3252(zero)
  54:	0000008c 	syscall	0x2
  58:	80000d40 	lb	zero,3392(zero)
  5c:	00000090 	0x90
  60:	80000dd0 	lb	zero,3536(zero)
  64:	00000148 	0x148
  68:	80000f18 	lb	zero,3864(zero)
  6c:	00000140 	sll	zero,zero,0x5
  70:	80001058 	lb	zero,4184(zero)
  74:	00000128 	0x128
  78:	80001180 	lb	zero,4480(zero)
  7c:	000000c0 	sll	zero,zero,0x3
  80:	80001240 	lb	zero,4672(zero)
  84:	00000098 	0x98
  88:	800012d8 	lb	zero,4824(zero)
  8c:	0000009c 	0x9c
  90:	80001374 	lb	zero,4980(zero)
  94:	0000005c 	0x5c
  98:	800013d0 	lb	zero,5072(zero)
  9c:	00000060 	0x60
  a0:	80001430 	lb	zero,5168(zero)
  a4:	00000064 	0x64
  a8:	80001494 	lb	zero,5268(zero)
  ac:	000000b0 	tge	zero,zero,0x2
  b0:	80001544 	lb	zero,5444(zero)
  b4:	0000012c 	0x12c
  b8:	80001670 	lb	zero,5744(zero)
  bc:	00000144 	0x144
  c0:	800017b4 	lb	zero,6068(zero)
  c4:	0000005c 	0x5c
  c8:	80001810 	lb	zero,6160(zero)
  cc:	000000c0 	sll	zero,zero,0x3
  d0:	800018d0 	lb	zero,6352(zero)
  d4:	000000c8 	0xc8
  d8:	80001998 	lb	zero,6552(zero)
  dc:	00000114 	0x114
  e0:	80001aac 	lb	zero,6828(zero)
  e4:	00000120 	0x120
  e8:	80001bcc 	lb	zero,7116(zero)
  ec:	00000048 	0x48
	...
  f8:	0000001c 	0x1c
  fc:	0d4b0002 	jal	52c0008 <seg_stack_base+0x12c0008>
 100:	00040000 	sll	zero,a0,0x0
 104:	00000000 	nop
 108:	20000000 	addi	zero,zero,0
 10c:	000011d8 	0x11d8
	...
 118:	0000001c 	0x1c
 11c:	17da0002 	bne	s8,k0,128 <NB_PROCS+0x124>
 120:	00040000 	sll	zero,a0,0x0
 124:	00000000 	nop
 128:	200011d8 	addi	zero,zero,4568
 12c:	000003bc 	0x3bc
	...

Disassembly of section .debug_ranges:

00000000 <.debug_ranges>:
   0:	20000000 	addi	zero,zero,0
   4:	20000000 	addi	zero,zero,0
   8:	800008e8 	lb	zero,2280(zero)
   c:	800009e4 	lb	zero,2532(zero)
  10:	800009e4 	lb	zero,2532(zero)
  14:	80000a00 	lb	zero,2560(zero)
  18:	80000a00 	lb	zero,2560(zero)
  1c:	80000a18 	lb	zero,2584(zero)
  20:	80000a18 	lb	zero,2584(zero)
  24:	80000a3c 	lb	zero,2620(zero)
  28:	80000a3c 	lb	zero,2620(zero)
  2c:	80000a60 	lb	zero,2656(zero)
  30:	80000a60 	lb	zero,2656(zero)
  34:	80000ad0 	lb	zero,2768(zero)
  38:	80000ad0 	lb	zero,2768(zero)
  3c:	80000bdc 	lb	zero,3036(zero)
  40:	80000bdc 	lb	zero,3036(zero)
  44:	80000cb4 	lb	zero,3252(zero)
  48:	80000cb4 	lb	zero,3252(zero)
  4c:	80000d40 	lb	zero,3392(zero)
  50:	80000d40 	lb	zero,3392(zero)
  54:	80000dd0 	lb	zero,3536(zero)
  58:	80000dd0 	lb	zero,3536(zero)
  5c:	80000f18 	lb	zero,3864(zero)
  60:	80000f18 	lb	zero,3864(zero)
  64:	80001058 	lb	zero,4184(zero)
  68:	80001058 	lb	zero,4184(zero)
  6c:	80001180 	lb	zero,4480(zero)
  70:	80001180 	lb	zero,4480(zero)
  74:	80001240 	lb	zero,4672(zero)
  78:	80001240 	lb	zero,4672(zero)
  7c:	800012d8 	lb	zero,4824(zero)
  80:	800012d8 	lb	zero,4824(zero)
  84:	80001374 	lb	zero,4980(zero)
  88:	80001374 	lb	zero,4980(zero)
  8c:	800013d0 	lb	zero,5072(zero)
  90:	800013d0 	lb	zero,5072(zero)
  94:	80001430 	lb	zero,5168(zero)
  98:	80001430 	lb	zero,5168(zero)
  9c:	80001494 	lb	zero,5268(zero)
  a0:	80001494 	lb	zero,5268(zero)
  a4:	80001544 	lb	zero,5444(zero)
  a8:	80001544 	lb	zero,5444(zero)
  ac:	80001670 	lb	zero,5744(zero)
  b0:	80001670 	lb	zero,5744(zero)
  b4:	800017b4 	lb	zero,6068(zero)
  b8:	800017b4 	lb	zero,6068(zero)
  bc:	80001810 	lb	zero,6160(zero)
  c0:	80001810 	lb	zero,6160(zero)
  c4:	800018d0 	lb	zero,6352(zero)
  c8:	800018d0 	lb	zero,6352(zero)
  cc:	80001998 	lb	zero,6552(zero)
  d0:	80001998 	lb	zero,6552(zero)
  d4:	80001aac 	lb	zero,6828(zero)
  d8:	80001aac 	lb	zero,6828(zero)
  dc:	80001bcc 	lb	zero,7116(zero)
  e0:	80001bcc 	lb	zero,7116(zero)
  e4:	80001c14 	lb	zero,7188(zero)
	...
  f0:	00000908 	0x908
  f4:	0000094c 	syscall	0x25
  f8:	00000970 	tge	zero,zero,0x25
  fc:	00000c1c 	0xc1c
	...

Disassembly of section .debug_str:

00000000 <.debug_str>:
   0:	6f72705f 	0x6f72705f
   4:	00646963 	0x646963
   8:	434f4c42 	c0	0x14f4c42
   c:	45445f4b 	0x45445f4b
  10:	45434956 	0x45434956
  14:	4f4f4e5f 	c3	0x14f4e5f
  18:	424e0050 	c0	0x4e0050
  1c:	4f52505f 	c3	0x152505f
  20:	74005343 	jalx	14d0c <NB_PROCS+0x14d08>
  24:	72656d69 	0x72656d69
  28:	6464615f 	0x6464615f
  2c:	73736572 	0x73736572
  30:	6f6c6200 	0x6f6c6200
  34:	735f6b63 	0x735f6b63
  38:	00657a69 	0x657a69
  3c:	5f797474 	0x5f797474
  40:	72646461 	0x72646461
  44:	00737365 	0x737365
  48:	5f676573 	0x5f676573
  4c:	656d6974 	0x656d6974
  50:	61625f72 	0x61625f72
  54:	42006573 	c0	0x6573
  58:	4b434f4c 	c2	0x1434f4c
  5c:	5645445f 	bnel	s2,a1,111dc <NB_PROCS+0x111d8>
  60:	5f454349 	0x5f454349
  64:	44414552 	0x44414552
  68:	4355535f 	c0	0x155535f
  6c:	53534543 	beql	k0,s3,1157c <NB_PROCS+0x11578>
  70:	6f6c5f00 	0x6f6c5f00
  74:	5f736b63 	0x5f736b63
  78:	64616572 	0x64616572
  7c:	7a697300 	0x7a697300
  80:	00745f65 	0x745f65
  84:	756f6c70 	jalx	5bdb1c0 <seg_stack_base+0x1bdb1c0>
  88:	4c420066 	0x4c420066
  8c:	5f4b434f 	0x5f4b434f
  90:	49564544 	0x49564544
  94:	575f4543 	bnel	k0,ra,115a4 <NB_PROCS+0x115a0>
  98:	45544952 	0x45544952
  9c:	67657200 	0x67657200
  a0:	65747369 	0x65747369
  a4:	6e695f72 	0x6e695f72
  a8:	00786564 	0x786564
  ac:	6978655f 	0x6978655f
  b0:	745f0074 	jalx	17c01d0 <NB_PROCS+0x17c01cc>
  b4:	675f7974 	0x675f7974
  b8:	625f7465 	0x625f7465
  bc:	42006675 	c0	0x6675
  c0:	4b434f4c 	c2	0x1434f4c
  c4:	5645445f 	bnel	s2,a1,11244 <NB_PROCS+0x11240>
  c8:	5f454349 	0x5f454349
  cc:	454c4449 	0x454c4449
  d0:	6d656d00 	0x6d656d00
  d4:	00797063 	0x797063
  d8:	616c6564 	0x616c6564
  dc:	4d440079 	0x4d440079
  e0:	45525f41 	0x45525f41
  e4:	455f4441 	0x455f4441
  e8:	524f5252 	beql	s2,t7,14a34 <NB_PROCS+0x14a30>
  ec:	414d4400 	0x414d4400
  f0:	4952575f 	0x4952575f
  f4:	455f4554 	0x455f4554
  f8:	524f5252 	beql	s2,t7,14a44 <NB_PROCS+0x14a40>
  fc:	6d645f00 	0x6d645f00
 100:	74735f61 	jalx	1cd7d84 <NB_PROCS+0x1cd7d80>
 104:	73757461 	0x73757461
 108:	636f5300 	0x636f5300
 10c:	4262696c 	c0	0x62696c
 110:	6b636f6c 	0x6b636f6c
 114:	69766544 	0x69766544
 118:	74536563 	jalx	14d958c <NB_PROCS+0x14d9588>
 11c:	73757461 	0x73757461
 120:	6c617600 	0x6c617600
 124:	5f006575 	bgtzl	t8,196fc <NB_PROCS+0x196f8>
 128:	616f7469 	0x616f7469
 12c:	6365645f 	0x6365645f
 130:	67657300 	0x67657300
 134:	5f62665f 	0x5f62665f
 138:	65736162 	0x65736162
 13c:	64636700 	0x64636700
 140:	6464615f 	0x6464615f
 144:	73736572 	0x73736572
 148:	414d4400 	0x414d4400
 14c:	4e454c5f 	c3	0x454c5f
 150:	6d645f00 	0x6d645f00
 154:	75625f61 	jalx	5897d84 <seg_stack_base+0x1897d84>
 158:	5f007973 	bgtzl	t8,1e728 <NB_PROCS+0x1e724>
 15c:	5f797474 	0x5f797474
 160:	5f747570 	0x5f747570
 164:	00667562 	0x667562
 168:	5f676573 	0x5f676573
 16c:	5f646367 	0x5f646367
 170:	65736162 	0x65736162
 174:	636f6c00 	0x636f6c00
 178:	615f736b 	0x615f736b
 17c:	65726464 	0x65726464
 180:	5f007373 	bgtzl	t8,1cf50 <NB_PROCS+0x1cf4c>
 184:	5f797474 	0x5f797474
 188:	74697277 	jalx	1a5c9dc <NB_PROCS+0x1a5c9d8>
 18c:	552f0065 	bnel	t1,t7,324 <NB_PROCS+0x320>
 190:	73726573 	0x73726573
 194:	616c612f 	0x616c612f
 198:	442f6e69 	0x442f6e69
 19c:	6d75636f 	0x6d75636f
 1a0:	73746e65 	0x73746e65
 1a4:	63696c2f 	0x63696c2f
 1a8:	65636e65 	0x65636e65
 1ac:	6d6c612f 	0x6d6c612f
 1b0:	6f732f6f 	0x6f732f6f
 1b4:	672f7466 	0x672f7466
 1b8:	2f746569 	sltiu	s4,k1,25961
 1bc:	76697264 	jalx	9a5c990 <seg_stack_base+0x5a5c990>
 1c0:	2e737265 	sltiu	s3,s3,29285
 1c4:	61740063 	0x61740063
 1c8:	695f6b73 	0x695f6b73
 1cc:	7865646e 	0x7865646e
 1d0:	4f4c4200 	c3	0x14c4200
 1d4:	445f4b43 	0x445f4b43
 1d8:	43495645 	c0	0x1495645
 1dc:	52575f45 	beql	s2,s7,17ef4 <NB_PROCS+0x17ef0>
 1e0:	5f455449 	0x5f455449
 1e4:	4f525245 	c3	0x1525245
 1e8:	6d440052 	0x6d440052
 1ec:	61745361 	0x61745361
 1f0:	56737574 	bnel	s3,s3,1d7c4 <NB_PROCS+0x1d7c0>
 1f4:	65756c61 	0x65756c61
 1f8:	4d440073 	0x4d440073
 1fc:	44495f41 	0x44495f41
 200:	5f00454c 	bgtzl	t8,11734 <NB_PROCS+0x11730>
 204:	635f6266 	0x635f6266
 208:	6c706d6f 	0x6c706d6f
 20c:	64657465 	0x64657465
 210:	4f4c4200 	c3	0x14c4200
 214:	445f4b43 	0x445f4b43
 218:	43495645 	c0	0x1495645
 21c:	55425f45 	bnel	t2,v0,17f34 <NB_PROCS+0x17f30>
 220:	5f005953 	bgtzl	t8,16770 <NB_PROCS+0x1676c>
 224:	656d6974 	0x656d6974
 228:	72775f72 	0x72775f72
 22c:	00657469 	0x657469
 230:	63616364 	0x63616364
 234:	6c5f6568 	0x6c5f6568
 238:	5f656e69 	0x5f656e69
 23c:	657a6973 	0x657a6973
 240:	67657300 	0x67657300
 244:	7563695f 	jalx	58da57c <seg_stack_base+0x18da57c>
 248:	7361625f 	0x7361625f
 24c:	4d440065 	0x4d440065
 250:	53445f41 	beql	k0,a0,17f58 <NB_PROCS+0x17f54>
 254:	616d0054 	0x616d0054
 258:	61745f78 	0x61745f78
 25c:	00736b73 	tltu	v1,s3,0x1ad
 260:	7563695f 	jalx	58da57c <seg_stack_base+0x18da57c>
 264:	6972775f 	0x6972775f
 268:	5f006574 	bgtzl	t8,1983c <NB_PROCS+0x19838>
 26c:	5f636f69 	0x5f636f69
 270:	74697277 	jalx	1a5c9dc <NB_PROCS+0x1a5c9d8>
 274:	645f0065 	0x645f0065
 278:	68636163 	0x68636163
 27c:	75625f65 	jalx	5897d94 <seg_stack_base+0x1897d94>
 280:	6e695f66 	0x6e695f66
 284:	696c6176 	0x696c6176
 288:	65746164 	0x65746164
 28c:	636f5300 	0x636f5300
 290:	4262696c 	c0	0x62696c
 294:	6b636f6c 	0x6b636f6c
 298:	69766544 	0x69766544
 29c:	704f6563 	0x704f6563
 2a0:	66666f00 	0x66666f00
 2a4:	00746573 	tltu	v1,s4,0x195
 2a8:	63727363 	0x63727363
 2ac:	79747400 	0x79747400
 2b0:	646e695f 	0x646e695f
 2b4:	42007865 	c0	0x7865
 2b8:	4b434f4c 	c2	0x1434f4c
 2bc:	5645445f 	bnel	s2,a1,1143c <NB_PROCS+0x11438>
 2c0:	5f454349 	0x5f454349
 2c4:	4e554f43 	c3	0x554f43
 2c8:	675f0054 	0x675f0054
 2cc:	725f6463 	0x725f6463
 2d0:	00646165 	0x646165
 2d4:	434f4c42 	c0	0x14f4c42
 2d8:	45445f4b 	0x45445f4b
 2dc:	45434956 	0x45434956
 2e0:	4655425f 	c1	0x55425f
 2e4:	00524546 	0x524546
 2e8:	5f62665f 	0x5f62665f
 2ec:	64616572 	0x64616572
 2f0:	67657300 	0x67657300
 2f4:	636f695f 	0x636f695f
 2f8:	7361625f 	0x7361625f
 2fc:	656c0065 	0x656c0065
 300:	6874676e 	0x6874676e
 304:	436f5300 	c0	0x16f5300
 308:	4462694c 	0x4462694c
 30c:	6552616d 	0x6552616d
 310:	74736967 	jalx	1cda59c <NB_PROCS+0x1cda598>
 314:	00737265 	0x737265
 318:	5f756369 	0x5f756369
 31c:	72646461 	0x72646461
 320:	00737365 	0x737365
 324:	69736e75 	0x69736e75
 328:	64656e67 	0x64656e67
 32c:	61686320 	0x61686320
 330:	4c420072 	0x4c420072
 334:	5f4b434f 	0x5f4b434f
 338:	49564544 	0x49564544
 33c:	455f4543 	0x455f4543
 340:	524f5252 	beql	s2,t7,14c8c <NB_PROCS+0x14c88>
 344:	636f5300 	0x636f5300
 348:	5462696c 	bnel	v1,v0,1a8fc <NB_PROCS+0x1a8f8>
 34c:	72656d69 	0x72656d69
 350:	69676552 	0x69676552
 354:	72657473 	0x72657473
 358:	695f0073 	0x695f0073
 35c:	6e655f74 	0x6e655f74
 360:	656c6261 	0x656c6261
 364:	62665f00 	0x62665f00
 368:	6e79735f 	0x6e79735f
 36c:	72775f63 	0x72775f63
 370:	00657469 	0x657469
 374:	636f695f 	0x636f695f
 378:	7375625f 	0x7375625f
 37c:	6e750079 	0x6e750079
 380:	6e676973 	0x6e676973
 384:	69206465 	0x69206465
 388:	5400746e 	bnezl	zero,1d544 <NB_PROCS+0x1d540>
 38c:	52454d49 	beql	s2,a1,138b4 <NB_PROCS+0x138b0>
 390:	5245505f 	beql	s2,a1,14510 <NB_PROCS+0x1450c>
 394:	00444f49 	0x444f49
 398:	434f4c42 	c0	0x14f4c42
 39c:	45445f4b 	0x45445f4b
 3a0:	45434956 	0x45434956
 3a4:	00504f5f 	0x504f5f
 3a8:	434f4c42 	c0	0x14f4c42
 3ac:	45445f4b 	0x45445f4b
 3b0:	45434956 	0x45434956
 3b4:	41424c5f 	0x41424c5f
 3b8:	5f424e00 	0x5f424e00
 3bc:	4b434f4c 	c2	0x1434f4c
 3c0:	665f0053 	0x665f0053
 3c4:	72775f62 	0x72775f62
 3c8:	00657469 	0x657469
 3cc:	636f695f 	0x636f695f
 3d0:	6165725f 	0x6165725f
 3d4:	745f0064 	jalx	17c0190 <NB_PROCS+0x17c018c>
 3d8:	725f7974 	0x725f7974
 3dc:	00646165 	0x646165
 3e0:	656d6974 	0x656d6974
 3e4:	6e695f72 	0x6e695f72
 3e8:	00786564 	0x786564
 3ec:	6972776e 	0x6972776e
 3f0:	6e657474 	0x6e657474
 3f4:	4d495400 	0x4d495400
 3f8:	535f5245 	beql	k0,ra,14d10 <NB_PROCS+0x14d0c>
 3fc:	004e4150 	0x4e4150
 400:	434f4c42 	c0	0x14f4c42
 404:	45445f4b 	0x45445f4b
 408:	45434956 	0x45434956
 40c:	5152495f 	beql	t2,s2,1298c <NB_PROCS+0x12988>
 410:	414e455f 	0x414e455f
 414:	00454c42 	0x454c42
 418:	5f78616d 	0x5f78616d
 41c:	636f7270 	0x636f7270
 420:	675f0073 	0x675f0073
 424:	775f6463 	jalx	d7d918c <seg_stack_base+0x97d918c>
 428:	65746972 	0x65746972
 42c:	636f6900 	0x636f6900
 430:	6464615f 	0x6464615f
 434:	73736572 	0x73736572
 438:	6f727000 	0x6f727000
 43c:	73736563 	0x73736563
 440:	695f726f 	0x695f726f
 444:	6f6c0064 	0x6f6c0064
 448:	695f6b63 	0x695f6b63
 44c:	7865646e 	0x7865646e
 450:	6f727000 	0x6f727000
 454:	6e695f63 	0x6e695f63
 458:	00786564 	0x786564
 45c:	636f695f 	0x636f695f
 460:	6d6f635f 	0x6d6f635f
 464:	74656c70 	jalx	195b1c0 <NB_PROCS+0x195b1bc>
 468:	44006465 	0x44006465
 46c:	495f414d 	0x495f414d
 470:	445f5152 	0x445f5152
 474:	42415349 	c0	0x415349
 478:	4e00454c 	c3	0x454c
 47c:	49545f42 	0x49545f42
 480:	5352454d 	beql	k0,s2,119b8 <NB_PROCS+0x119b4>
 484:	4f4c4200 	c3	0x14c4200
 488:	445f4b43 	0x445f4b43
 48c:	43495645 	c0	0x1495645
 490:	45525f45 	0x45525f45
 494:	455f4441 	0x455f4441
 498:	524f5252 	beql	s2,t7,14de4 <NB_PROCS+0x14de0>
 49c:	6f6c5f00 	0x6f6c5f00
 4a0:	5f736b63 	0x5f736b63
 4a4:	74697277 	jalx	1a5c9dc <NB_PROCS+0x1a5c9d8>
 4a8:	665f0065 	0x665f0065
 4ac:	79735f62 	0x79735f62
 4b0:	725f636e 	0x725f636e
 4b4:	00646165 	0x646165
 4b8:	6d69745f 	0x6d69745f
 4bc:	725f7265 	0x725f7265
 4c0:	00646165 	0x646165
 4c4:	434f4c42 	c0	0x14f4c42
 4c8:	45445f4b 	0x45445f4b
 4cc:	45434956 	0x45434956
 4d0:	4f4c425f 	c3	0x14c425f
 4d4:	535f4b43 	beql	k0,ra,131e4 <NB_PROCS+0x131e0>
 4d8:	00455a49 	0x455a49
 4dc:	6f72705f 	0x6f72705f
 4e0:	6d697463 	0x6d697463
 4e4:	65730065 	0x65730065
 4e8:	74745f67 	jalx	1d17d9c <NB_PROCS+0x1d17d98>
 4ec:	61625f79 	0x61625f79
 4f0:	5f006573 	bgtzl	t8,19ac0 <NB_PROCS+0x19abc>
 4f4:	5f797474 	0x5f797474
 4f8:	5f746567 	0x5f746567
 4fc:	6c6c7566 	0x6c6c7566
 500:	414d4400 	0x414d4400
 504:	4355535f 	c0	0x155535f
 508:	53534543 	beql	k0,s3,11a18 <NB_PROCS+0x11a14>
 50c:	756f6300 	jalx	5bd8c00 <seg_stack_base+0x1bd8c00>
 510:	7300746e 	0x7300746e
 514:	645f6765 	0x645f6765
 518:	625f616d 	0x625f616d
 51c:	00657361 	0x657361
 520:	6372735f 	0x6372735f
 524:	4f4c4200 	c3	0x14c4200
 528:	445f4b43 	0x445f4b43
 52c:	43495645 	c0	0x1495645
 530:	54535f45 	bnel	v0,s3,18248 <NB_PROCS+0x18244>
 534:	53555441 	beql	k0,s5,1563c <NB_PROCS+0x15638>
 538:	73646300 	0x73646300
 53c:	695f0074 	0x695f0074
 540:	5f616f74 	0x5f616f74
 544:	00786568 	0x786568
 548:	5f414d44 	0x5f414d44
 54c:	00435253 	0x435253
 550:	454d4954 	0x454d4954
 554:	41565f52 	0x41565f52
 558:	0045554c 	syscall	0x11555
 55c:	434f4c42 	c0	0x14f4c42
 560:	45445f4b 	0x45445f4b
 564:	45434956 	0x45434956
 568:	4145525f 	0x4145525f
 56c:	645f0044 	0x645f0044
 570:	73007473 	0x73007473
 574:	6c5f6765 	0x6c5f6765
 578:	736b636f 	0x736b636f
 57c:	7361625f 	0x7361625f
 580:	695f0065 	0x695f0065
 584:	735f636f 	0x735f636f
 588:	75746174 	jalx	5d185d0 <seg_stack_base+0x1d185d0>
 58c:	4c420073 	0x4c420073
 590:	5f4b434f 	0x5f4b434f
 594:	49564544 	0x49564544
 598:	535f4543 	beql	k0,ra,11aa8 <NB_PROCS+0x11aa4>
 59c:	00455a49 	0x455a49
 5a0:	54636544 	bnel	v1,v1,19ab4 <NB_PROCS+0x19ab0>
 5a4:	48006261 	0x48006261
 5a8:	54617865 	bnel	v1,at,1e740 <NB_PROCS+0x1e73c>
 5ac:	5f006261 	bgtzl	t8,18f34 <NB_PROCS+0x18f30>
 5b0:	5f797474 	0x5f797474
 5b4:	5f747570 	0x5f747570
 5b8:	6c6c7566 	0x6c6c7566
 5bc:	554e4700 	bnel	t2,t6,121c0 <NB_PROCS+0x121bc>
 5c0:	34204320 	ori	zero,at,0x4320
 5c4:	322e342e 	andi	t6,s1,0x342e
 5c8:	63695f00 	0x63695f00
 5cc:	65725f75 	0x65725f75
 5d0:	44006461 	0x44006461
 5d4:	525f414d 	beql	s2,ra,10b0c <NB_PROCS+0x10b08>
 5d8:	54455345 	bnel	v0,a1,152f0 <NB_PROCS+0x152ec>
 5dc:	4d495400 	0x4d495400
 5e0:	525f5245 	beql	s2,ra,14ef8 <NB_PROCS+0x14ef4>
 5e4:	54455345 	bnel	v0,a1,152fc <NB_PROCS+0x152f8>
 5e8:	00515249 	0x515249
 5ec:	6c636f53 	0x6c636f53
 5f0:	6c426269 	0x6c426269
 5f4:	446b636f 	0x446b636f
 5f8:	63697665 	0x63697665
 5fc:	67655265 	0x67655265
 600:	65747369 	0x65747369
 604:	5f007372 	bgtzl	t8,1d3d0 <NB_PROCS+0x1d3cc>
 608:	6d5f7469 	0x6d5f7469
 60c:	006b7361 	0x6b7361
 610:	434f4c42 	c0	0x14f4c42
 614:	45445f4b 	0x45445f4b
 618:	45434956 	0x45434956
 61c:	4952575f 	0x4952575f
 620:	535f4554 	beql	k0,ra,11b74 <NB_PROCS+0x11b70>
 624:	45434355 	0x45434355
 628:	4e005353 	c3	0x5353
 62c:	41545f42 	0x41545f42
 630:	00534b53 	0x534b53
 634:	454d4954 	0x454d4954
 638:	4f4d5f52 	c3	0x14d5f52
 63c:	5f004544 	bgtzl	t8,11b50 <NB_PROCS+0x11b4c>
 640:	5f797474 	0x5f797474
 644:	64616572 	0x64616572
 648:	7172695f 	0x7172695f
 64c:	75635f00 	jalx	58d7c00 <seg_stack_base+0x18d7c00>
 650:	6e657272 	0x6e657272
 654:	61745f74 	0x61745f74
 658:	615f6b73 	0x615f6b73
 65c:	79617272 	0x79617272
 660:	44434700 	0x44434700
 664:	4154535f 	0x4154535f
 668:	47005452 	c1	0x1005452
 66c:	4f5f4443 	c3	0x15f4443
 670:	47004150 	c1	0x1004150
 674:	4f5f4443 	c3	0x15f4443
 678:	2f004250 	sltiu	zero,t8,16976
 67c:	72657355 	0x72657355
 680:	6c612f73 	0x6c612f73
 684:	2f6e6961 	sltiu	t6,k1,26977
 688:	75636f44 	jalx	58dbd10 <seg_stack_base+0x18dbd10>
 68c:	746e656d 	jalx	1b995b4 <NB_PROCS+0x1b995b0>
 690:	696c2f73 	0x696c2f73
 694:	636e6563 	0x636e6563
 698:	6c612f65 	0x6c612f65
 69c:	732f6f6d 	0x732f6f6d
 6a0:	2f74666f 	sltiu	s4,k1,26223
 6a4:	74656967 	jalx	195a59c <NB_PROCS+0x195a598>
 6a8:	6474732f 	0x6474732f
 6ac:	632e6f69 	0x632e6f69
 6b0:	64636700 	0x64636700
 6b4:	7465675f 	jalx	1959d7c <NB_PROCS+0x1959d78>
 6b8:	6174735f 	0x6174735f
 6bc:	00737574 	teq	v1,s3,0x1d5
 6c0:	5f737973 	0x5f737973
 6c4:	6c6c6163 	0x6c6c6163
 6c8:	75636900 	jalx	58da400 <seg_stack_base+0x18da400>
 6cc:	7465675f 	jalx	1959d7c <NB_PROCS+0x1959d78>
 6d0:	73616d5f 	0x73616d5f
 6d4:	4349006b 	c0	0x149006b
 6d8:	414d5f55 	0x414d5f55
 6dc:	535f4b53 	beql	k0,ra,1342c <NB_PROCS+0x13428>
 6e0:	47005445 	c1	0x1005445
 6e4:	535f4443 	beql	k0,ra,117f4 <NB_PROCS+0x117f0>
 6e8:	55544154 	bnel	t2,s4,10c3c <NB_PROCS+0x10c38>
 6ec:	6f530053 	0x6f530053
 6f0:	62696c63 	0x62696c63
 6f4:	52636950 	beql	s3,v1,1ac38 <NB_PROCS+0x1ac34>
 6f8:	73696765 	0x73696765
 6fc:	73726574 	0x73726574
 700:	79747400 	0x79747400
 704:	7465675f 	jalx	1959d7c <NB_PROCS+0x1959d78>
 708:	72695f73 	0x72695f73
 70c:	63690071 	0x63690071
 710:	65675f75 	0x65675f75
 714:	72695f74 	0x72695f74
 718:	67007371 	0x67007371
 71c:	735f6463 	0x735f6463
 720:	6f5f7465 	0x6f5f7465
 724:	67006170 	0x67006170
 728:	735f6463 	0x735f6463
 72c:	6f5f7465 	0x6f5f7465
 730:	72006270 	0x72006270
 734:	615f6765 	0x615f6765
 738:	65720030 	0x65720030
 73c:	6f6e5f67 	0x6f6e5f67
 740:	646e615f 	0x646e615f
 744:	74756f5f 	jalx	1d5bd7c <NB_PROCS+0x1d5bd78>
 748:	00747570 	tge	v1,s4,0x1d5
 74c:	5f756369 	0x5f756369
 750:	5f746573 	0x5f746573
 754:	6b73616d 	0x6b73616d
 758:	67726100 	0x67726100
 75c:	6100305f 	0x6100305f
 760:	315f6772 	andi	ra,t2,0x6772
 764:	67726100 	0x67726100
 768:	6100325f 	0x6100325f
 76c:	335f6772 	andi	ra,k0,0x6772
 770:	67657200 	0x67657200
 774:	0031615f 	0x31615f
 778:	5f676572 	0x5f676572
 77c:	72003261 	0x72003261
 780:	615f6765 	0x615f6765
 784:	63690033 	0x63690033
 788:	65675f75 	0x65675f75
 78c:	6e695f74 	0x6e695f74
 790:	00786564 	0x786564
 794:	5f554349 	0x5f554349
 798:	00544e49 	0x544e49
 79c:	5f554349 	0x5f554349
 7a0:	4b53414d 	c2	0x153414d
 7a4:	454c435f 	0x454c435f
 7a8:	74005241 	jalx	14904 <NB_PROCS+0x14900>
 7ac:	705f7974 	0x705f7974
 7b0:	00637475 	0x637475
 7b4:	6d726f66 	0x6d726f66
 7b8:	70007461 	0x70007461
 7bc:	00667562 	0x667562
 7c0:	5f797474 	0x5f797474
 7c4:	73747570 	0x73747570
 7c8:	72747300 	0x72747300
 7cc:	00676e69 	0x676e69
 7d0:	65747962 	0x65747962
 7d4:	636f5300 	0x636f5300
 7d8:	4c62696c 	0x4c62696c
 7dc:	65526463 	0x65526463
 7e0:	74736967 	jalx	1cda59c <NB_PROCS+0x1cda598>
 7e4:	00737265 	0x737265
 7e8:	656e6f64 	0x656e6f64
 7ec:	79747400 	0x79747400
 7f0:	7465675f 	jalx	1959d7c <NB_PROCS+0x1959d78>
 7f4:	72695f63 	0x72695f63
 7f8:	74740071 	jalx	1d001c4 <NB_PROCS+0x1d001c0>
 7fc:	65675f79 	0x65675f79
 800:	695f7774 	0x695f7774
 804:	49007172 	bc2f	1cdd0 <NB_PROCS+0x1cdcc>
 808:	495f5543 	0x495f5543
 80c:	45565f54 	0x45565f54
 810:	524f5443 	beql	s2,t7,15920 <NB_PROCS+0x1591c>
 814:	636f6c00 	0x636f6c00
 818:	65725f6b 	0x65725f6b
 81c:	7361656c 	0x7361656c
 820:	6f6c0065 	0x6f6c0065
 824:	615f6b63 	0x615f6b63
 828:	69757163 	0x69757163
 82c:	70006572 	0x70006572
 830:	746e6972 	jalx	1b9a5c8 <NB_PROCS+0x1b9a5c4>
 834:	65745f66 	0x65745f66
 838:	74007478 	jalx	1d1e0 <NB_PROCS+0x1d1dc>
 83c:	705f7974 	0x705f7974
 840:	00777475 	0x777475
 844:	64726f77 	0x64726f77
 848:	6675625f 	0x6675625f
 84c:	00726566 	0x726566
 850:	65766173 	0x65766173
 854:	65766f00 	0x65766f00
 858:	6f6c6672 	0x6f6c6672
 85c:	43470077 	c0	0x1470077
 860:	50535f44 	beql	v0,s3,18574 <NB_PROCS+0x18570>
 864:	74004e41 	jalx	13904 <NB_PROCS+0x13900>
 868:	72656d69 	0x72656d69
 86c:	7465675f 	jalx	1959d7c <NB_PROCS+0x1959d78>
 870:	6d69745f 	0x6d69745f
 874:	63690065 	0x63690065
 878:	6c635f75 	0x6c635f75
 87c:	5f726165 	0x5f726165
 880:	6b73616d 	0x6b73616d
 884:	6d697400 	0x6d697400
 888:	735f7265 	0x735f7265
 88c:	6d5f7465 	0x6d5f7465
 890:	0065646f 	0x65646f
 894:	5f554349 	0x5f554349
 898:	4b53414d 	c2	0x153414d
 89c:	6c616300 	0x6c616300
 8a0:	6f6e5f6c 	0x6f6e5f6c
 8a4:	625f5f00 	0x625f5f00
 8a8:	746c6975 	jalx	1b1a5d4 <NB_PROCS+0x1b1a5d0>
 8ac:	765f6e69 	jalx	97db9a4 <seg_stack_base+0x57db9a4>
 8b0:	696c5f61 	0x696c5f61
 8b4:	62007473 	0x62007473
 8b8:	69736675 	0x69736675
 8bc:	7400657a 	jalx	195e8 <NB_PROCS+0x195e4>
 8c0:	72656d69 	0x72656d69
 8c4:	7365725f 	0x7365725f
 8c8:	695f7465 	0x695f7465
 8cc:	74007172 	jalx	1c5c8 <NB_PROCS+0x1c5c4>
 8d0:	705f7974 	0x705f7974
 8d4:	746e6972 	jalx	1b9a5c8 <NB_PROCS+0x1b9a5c4>
 8d8:	74740066 	jalx	1d00198 <NB_PROCS+0x1d00194>
 8dc:	65675f79 	0x65675f79
 8e0:	72006374 	0x72006374
 8e4:	00646e61 	0x646e61
 8e8:	5f646367 	0x5f646367
 8ec:	5f746567 	0x5f746567
 8f0:	75736572 	jalx	5cd95c8 <seg_stack_base+0x1cd95c8>
 8f4:	5f00746c 	bgtzl	t8,1daa8 <NB_PROCS+0x1daa4>
 8f8:	756e675f 	jalx	5b99d7c <seg_stack_base+0x1b99d7c>
 8fc:	61765f63 	0x61765f63
 900:	73696c5f 	0x73696c5f
 904:	69740074 	0x69740074
 908:	5f72656d 	0x5f72656d
 90c:	5f746573 	0x5f746573
 910:	69726570 	0x69726570
 914:	7000646f 	0x7000646f
 918:	746e6972 	jalx	1b9a5c8 <NB_PROCS+0x1b9a5c4>
 91c:	72615f66 	0x72615f66
 920:	656d7567 	0x656d7567
 924:	0073746e 	0x73746e
 928:	5f646367 	0x5f646367
 92c:	72617473 	0x72617473
 930:	75620074 	jalx	58801d0 <seg_stack_base+0x18801d0>
 934:	6e695f66 	0x6e695f66
 938:	706d655f 	0x706d655f
 93c:	2f007974 	sltiu	zero,t8,31092
 940:	72657355 	0x72657355
 944:	6c612f73 	0x6c612f73
 948:	2f6e6961 	sltiu	t6,k1,26977
 94c:	2f636f73 	sltiu	v1,k1,28531
 950:	6c636f73 	0x6c636f73
 954:	732d6269 	0x732d6269
 958:	6a2d6e76 	0x6a2d6e76
 95c:	2d656e75 	sltiu	a1,t3,28277
 960:	39303032 	xori	s0,t1,0x3032
 964:	636f732f 	0x636f732f
 968:	2f62696c 	sltiu	v0,k1,26988
 96c:	6c636f73 	0x6c636f73
 970:	702f6269 	0x702f6269
 974:	6674616c 	0x6674616c
 978:	2f6d726f 	sltiu	t5,k1,29295
 97c:	63706f74 	0x63706f74
 980:	736c6c65 	0x736c6c65
 984:	6261632f 	0x6261632f
 988:	63345f61 	0x63345f61
 98c:	7473756c 	jalx	1cdd5b0 <NB_PROCS+0x1cdd5ac>
 990:	5f737265 	0x5f737265
 994:	6e617274 	0x6e617274
 998:	736f7073 	0x736f7073
 99c:	6f732f65 	0x6f732f65
 9a0:	745f7466 	jalx	17dd198 <NB_PROCS+0x17dd194>
 9a4:	736e6172 	0x736e6172
 9a8:	65736f70 	0x65736f70
 9ac:	616f6c00 	0x616f6c00
 9b0:	616d0064 	0x616d0064
 9b4:	632e6e69 	0x632e6e69
 9b8:	73696400 	0x73696400
 9bc:	79616c70 	0x79616c70
 9c0:	66756200 	0x66756200
 9c4:	74756f5f 	jalx	1d5bd7c <NB_PROCS+0x1d5bd78>
 9c8:	706d655f 	0x706d655f
 9cc:	62007974 	0x62007974
 9d0:	6f5f6675 	0x6f5f6675
 9d4:	69007475 	0x69007475
 9d8:	6567616d 	0x6567616d
 9dc:	66756200 	0x66756200
 9e0:	006e695f 	0x6e695f
